 UserThreads

 Timestamp is 5eba87e0 (Tue May 12 14:26:24 2020)

 Preferred load address is 00400000

 Start         Length     Name                   Class
 0001:00000000 000ae552H .text                   CODE
 0001:000ae560 0000ebbfH .text$x                 CODE
 0001:000bd120 000028daH .text$yc                CODE
 0001:000bfa00 000001e6H .text$yd                CODE
 0002:00000000 000017b0H .idata$5                DATA
 0002:000017b0 00000004H .CRT$XCA                DATA
 0002:000017b4 00000004H .CRT$XCAA               DATA
 0002:000017b8 00000010H .CRT$XCL                DATA
 0002:000017c8 000009f8H .CRT$XCU                DATA
 0002:000021c0 00000004H .CRT$XCZ                DATA
 0002:000021c4 00000004H .CRT$XIA                DATA
 0002:000021c8 00000004H .CRT$XIAA               DATA
 0002:000021cc 00000004H .CRT$XIC                DATA
 0002:000021d0 00000004H .CRT$XIY                DATA
 0002:000021d4 00000004H .CRT$XIZ                DATA
 0002:000021e0 00010f70H .rdata                  DATA
 0002:00013150 0000004cH .rdata$debug            DATA
 0002:0001319c 00003904H .rdata$r                DATA
 0002:00016aa0 00000ce0H .rdata$sxdata           DATA
 0002:00017780 00000004H .rtc$IAA                DATA
 0002:00017784 00000004H .rtc$IZZ                DATA
 0002:00017788 00000004H .rtc$TAA                DATA
 0002:0001778c 00000004H .rtc$TZZ                DATA
 0002:00017790 0000fcf4H .xdata$x                DATA
 0002:00027484 00000000H ATL$__a                 DATA
 0002:00027484 00000000H ATL$__z                 DATA
 0002:00027484 000000f0H .idata$2                DATA
 0002:00027574 00000014H .idata$3                DATA
 0002:00027588 000017b0H .idata$4                DATA
 0002:00028d38 000020c8H .idata$6                DATA
 0002:0002ae00 00000000H .edata                  DATA
 0003:00000000 00002f50H .data                   DATA
 0003:00002f50 000011c4H .bss                    DATA
 0004:00000000 000038e4H .rsrc$01                DATA
 0004:000038f0 004cd188H .rsrc$02                DATA

  Address         Publics by Value              Rva+Base       Lib:Object

 0000:00000000       __except_list              00000000     <absolute>
 0000:00000338       ___safe_se_handler_count   00000338     <absolute>
 0000:00009876       __fltused                  00009876     <absolute>
 0000:00009876       __ldused                   00009876     <absolute>
 0000:00000000       ___ImageBase               00400000     <linker-defined>
 0001:00000000       ??0C1CHelper@@QAE@XZ       00401000 f   1CHelper.obj
 0001:00000030       ??1C1CHelper@@UAE@XZ       00401030 f   1CHelper.obj
 0001:00000050       ?Open1C@C1CHelper@@QAEHPA_W@Z 00401050 f   1CHelper.obj
 0001:00000330       ?Open1CEx@C1CHelper@@QAEHABV?$CStringT@DV?$StrTraitMFC_DLL@DV?$ChTraitsCRT@D@ATL@@@@@ATL@@00@Z 00401330 f   1CHelper.obj
 0001:000006b0       ?SaveZReportIn1C@C1CHelper@@QAEHABV?$CStringT@DV?$StrTraitMFC_DLL@DV?$ChTraitsCRT@D@ATL@@@@@ATL@@ABVCOleDateTime@3@000PAUtagVARIANT@@@Z 004016b0 f   1CHelper.obj
 0001:000009f0       ?SaveCheckIn1C@C1CHelper@@QAEHABV?$CStringT@DV?$StrTraitMFC_DLL@DV?$ChTraitsCRT@D@ATL@@@@@ATL@@0HPAUtagVARIANT@@@Z 004019f0 f   1CHelper.obj
 0001:00004360       ?SetPropertyValue@C1CHelper@@QAEHPAUIDispatch@@PA_WUtagVARIANT@@@Z 00405360 f   1CHelper.obj
 0001:00004510       ??_GC1CHelper@@UAEPAXI@Z   00405510 f i 1CHelper.obj
 0001:00004510       ??_EC1CHelper@@UAEPAXI@Z   00405510 f i 1CHelper.obj
 0001:00004540       ??0CComBSTR@ATL@@QAE@PBD@Z 00405540 f i 1CHelper.obj
 0001:00004590       ?A2WBSTR@@YAPA_WPBDH@Z     00405590 f i 1CHelper.obj
 0001:000046a0       ?_AtlGetConversionACP@ATL@@YGIXZ 004056a0 f i 1CHelper.obj
 0001:000046b0       ?AtlThrowImpl@ATL@@YGXJ@Z  004056b0 f i 1CHelper.obj
 0001:000046d0       ??7ImageList_SetBkColor_Type@CComCtlWrapper@@QBE_NXZ 004056d0 f i DictGoodsFrame.obj
 0001:000046d0       ??7ImageList_GetImageInfo_Type@CComCtlWrapper@@QBE_NXZ 004056d0 f i MyTabCtrl.obj
 0001:000046d0       ??7CComBSTR@ATL@@QBE_NXZ   004056d0 f i 1CHelper.obj
 0001:000046d0       ??7ImageList_Draw_Type@CComCtlWrapper@@QBE_NXZ 004056d0 f i MyTabCtrl.obj
 0001:000046d0       ??7?$shared_ptr@VRefItemV@@@boost@@QBE_NXZ 004056d0 f i DlgLogin.obj
 0001:000046d0       ??7ImageList_AddMasked_Type@CComCtlWrapper@@QBE_NXZ 004056d0 f i PopupMenu.obj
 0001:000046d0       ??7ImageList_ReplaceIcon_Type@CComCtlWrapper@@QBE_NXZ 004056d0 f i DictGoodsFrame.obj
 0001:000046d0       ??7ImageList_GetIcon_Type@CComCtlWrapper@@QBE_NXZ 004056d0 f i PopupMenu.obj
 0001:000046f0       ??4CComBSTR@ATL@@QAEAAV01@PBD@Z 004056f0 f i 1CHelper.obj
 0001:00004740       ??1CComBSTR@ATL@@QAE@XZ    00405740 f i 1CHelper.obj
 0001:00004760       ??0CComVariant@ATL@@QAE@XZ 00405760 f i 1CHelper.obj
 0001:00004760       ??0_variant_t@@QAE@XZ      00405760 f i 1CHelper.obj
 0001:00004780       ??1CComVariant@ATL@@QAE@XZ 00405780 f i 1CHelper.obj
 0001:000047a0       ?AfxGetApp@@YGPAVCWinApp@@XZ 004057a0 f i 1CHelper.obj
 0001:000047b0       ?GetTickCount@COleDateTime@ATL@@SG?AV12@XZ 004057b0 f i 1CHelper.obj
 0001:000047d0       ??0COleDateTime@ATL@@QAE@_J@Z 004057d0 f i 1CHelper.obj
 0001:00004800       ?GetYear@COleDateTime@ATL@@QBEHXZ 00405800 f i 1CHelper.obj
 0001:00004850       ?GetAsSystemTime@COleDateTime@ATL@@QBE_NAAU_SYSTEMTIME@@@Z 00405850 f i 1CHelper.obj
 0001:000048a0       ??4COleDateTime@ATL@@QAEAAV01@AB_J@Z 004058a0 f i 1CHelper.obj
 0001:00004920       ??0CTime@ATL@@QAE@_J@Z     00405920 f i 1CHelper.obj
 0001:00004920       ??0CSize@@QAE@UtagSIZE@@@Z 00405920 f i PopupMenu.obj
 0001:00004940       ?GetAsSystemTime@CTime@ATL@@QBE_NAAU_SYSTEMTIME@@@Z 00405940 f i 1CHelper.obj
 0001:000049f0       ?GetLocalTm@CTime@ATL@@QBEPAUtm@@PAU3@@Z 004059f0 f i 1CHelper.obj
 0001:00004a80       ?ConvertSystemTimeToVariantTime@COleDateTime@ATL@@IAEHABU_SYSTEMTIME@@@Z 00405a80 f i 1CHelper.obj
 0001:00004aa0       ?AtlConvertSystemTimeToVariantTime@ATL@@YAHABU_SYSTEMTIME@@PAN@Z 00405aa0 f i 1CHelper.obj
 0001:00004bc0       ??0COleException@@QAE@XZ   00405bc0 f i 1CHelper.obj
 0001:00004bf0       ??_GCOleException@@UAEPAXI@Z 00405bf0 f i 1CHelper.obj
 0001:00004bf0       ??_ECOleException@@UAEPAXI@Z 00405bf0 f i 1CHelper.obj
 0001:00004c20       ??3CObject@@SGXPAX@Z       00405c20 f i 1CHelper.obj
 0001:00004c40       ??1COleException@@UAE@XZ   00405c40 f i 1CHelper.obj
 0001:00004c60       ??1CException@@UAE@XZ      00405c60 f i 1CHelper.obj
 0001:00004c80       ??1COleDispatchDriver@@QAE@XZ 00405c80 f i 1CHelper.obj
 0001:00004ca0       ??0COleSafeArray@@QAE@XZ   00405ca0 f i 1CHelper.obj
 0001:00004cc0       ??1COleSafeArray@@QAE@XZ   00405cc0 f i 1CHelper.obj
 0001:00004ce0       ?Clear@COleSafeArray@@QAEXXZ 00405ce0 f i 1CHelper.obj
 0001:00004ce0       ?Clear@COleVariant@@QAEXXZ 00405ce0 f i drvfr.obj
 0001:00004ce0       ??1COleVariant@@QAE@XZ     00405ce0 f i DialogView.obj
 0001:00004ce0       ??1_variant_t@@QAE@XZ      00405ce0 f i 1CHelper.obj
 0001:00004ce0       ?Clear@CComVariant@ATL@@QAEJXZ 00405ce0 f i 1CHelper.obj
 0001:00004d00       ??0_bstr_t@@QAE@PB_W@Z     00405d00 f i 1CHelper.obj
 0001:00004da0       ??1_bstr_t@@QAE@XZ         00405da0 f i 1CHelper.obj
 0001:00004dc0       ?_Free@_bstr_t@@AAEXXZ     00405dc0 f i 1CHelper.obj
 0001:00004df0       ??0Data_t@_bstr_t@@QAE@PB_W@Z 00405df0 f i 1CHelper.obj
 0001:00004e40       ?Release@Data_t@_bstr_t@@QAEKXZ 00405e40 f i 1CHelper.obj
 0001:00004e90       ??_GData_t@_bstr_t@@AAEPAXI@Z 00405e90 f i 1CHelper.obj
 0001:00004ec0       ?GetString@Data_t@_bstr_t@@QBEPBDXZ 00405ec0 f i 1CHelper.obj
 0001:00004ef0       ??2Data_t@_bstr_t@@SAPAXI@Z 00405ef0 f i 1CHelper.obj
 0001:00004f10       ??1Data_t@_bstr_t@@AAE@XZ  00405f10 f i 1CHelper.obj
 0001:00004f30       ?_Free@Data_t@_bstr_t@@AAEXXZ 00405f30 f i 1CHelper.obj
 0001:00004f70       ??0_variant_t@@QAE@PBD@Z   00405f70 f i 1CHelper.obj
 0001:00004fa0       ??0_bstr_t@@QAE@ABV_variant_t@@@Z 00405fa0 f i 1CHelper.obj
 0001:00005040       ??4_bstr_t@@QAEAAV0@PB_W@Z 00406040 f i 1CHelper.obj
 0001:000050f0       ??B_bstr_t@@QBEPA_WXZ      004060f0 f i CheckDoc.obj
 0001:000050f0       ??B_bstr_t@@QBEPB_WXZ      004060f0 f i 1CHelper.obj
 0001:00005120       ?ChangeType@_variant_t@@QAEXGPBV1@@Z 00406120 f i 1CHelper.obj
 0001:00005170       ?ShowError@MessageBoxHelper@@SAXPBD@Z 00406170 f i 1CHelper.obj
 0001:00005190       ??1?$CAtlSafeAllocBufferManager@VCCRTAllocator@ATL@@@_ATL_SAFE_ALLOCA_IMPL@ATL@@QAE@XZ 00406190 f i 1CHelper.obj
 0001:000051d0       ?Free@CCRTAllocator@ATL@@SAXPAX@Z 004061d0 f i 1CHelper.obj
 0001:000051f0       ??HATL@@YA?AV?$CStringT@DV?$StrTraitMFC_DLL@DV?$ChTraitsCRT@D@ATL@@@@@0@ABV10@PBD@Z 004061f0 f i 1CHelper.obj
 0001:000052b0       ??0CBarcode@@QAE@XZ        004062b0 f   Barcode.obj
 0001:00005320       ??1CBarcode@@UAE@XZ        00406320 f   Barcode.obj
 0001:00005340       ?InitComm@CBarcode@@QAEHXZ 00406340 f   Barcode.obj
 0001:00005490       ??0CBarcode@@QAE@PAUHWND__@@ABV?$CStringT@DV?$StrTraitMFC_DLL@DV?$ChTraitsCRT@D@ATL@@@@@ATL@@@Z 00406490 f   Barcode.obj
 0001:00005510       ?ReadData@CBarcode@@CGIPAX@Z 00406510 f   Barcode.obj
 0001:000059b0       ?CloseCommPort@CBarcode@@QAEHXZ 004069b0 f   Barcode.obj
 0001:00005a70       ??_ECBarcode@@UAEPAXI@Z    00406a70 f i Barcode.obj
 0001:00005a70       ??_GCBarcode@@UAEPAXI@Z    00406a70 f i Barcode.obj
 0001:00005aa0       ??0CNotyfyFndProduct@@QAE@AAUtagNMHDR@@HPBD1@Z 00406aa0 f i Barcode.obj
 0001:00005b30       ??0CBarcodeEdit@@QAE@XZ    00406b30 f   BarcodeEdit.obj
 0001:00005b60       ??1CBarcodeEdit@@UAE@XZ    00406b60 f   BarcodeEdit.obj
 0001:00005b90       ?GetMessageMap@CBarcodeEdit@@MBEPBUAFX_MSGMAP@@XZ 00406b90 f   BarcodeEdit.obj
 0001:00005ba0       ?GetThisMessageMap@CBarcodeEdit@@KGPBUAFX_MSGMAP@@XZ 00406ba0 f   BarcodeEdit.obj
 0001:00005bb0       ??_ECBarcodeEdit@@UAEPAXI@Z 00406bb0 f i BarcodeEdit.obj
 0001:00005bb0       ??_GCBarcodeEdit@@UAEPAXI@Z 00406bb0 f i BarcodeEdit.obj
 0001:00005be0       ?BeginModalState@CWnd@@UAEXXZ 00406be0 f i BarcodeEdit.obj
 0001:00005c00       ?EndModalState@CWnd@@UAEXXZ 00406c00 f i BarcodeEdit.obj
 0001:00005c20       ??0CEdit@@QAE@XZ           00406c20 f i BarcodeEdit.obj
 0001:00005c40       ??_ECEdit@@UAEPAXI@Z       00406c40 f i BarcodeEdit.obj
 0001:00005c40       ??_GCEdit@@UAEPAXI@Z       00406c40 f i BarcodeEdit.obj
 0001:00005c70       ?CreateObject@CCashDoc@@SGPAVCObject@@XZ 00406c70 f   CashDoc.obj
 0001:00005cf0       ?_GetBaseClass@CCashDoc@@KGPAUCRuntimeClass@@XZ 00406cf0 f   CashDoc.obj
 0001:00005d00       ?GetThisClass@CCashDoc@@SGPAUCRuntimeClass@@XZ 00406d00 f   CashDoc.obj
 0001:00005d10       ?GetRuntimeClass@CCashDoc@@UBEPAUCRuntimeClass@@XZ 00406d10 f   CashDoc.obj
 0001:00005d20       ??0CCashDoc@@IAE@XZ        00406d20 f   CashDoc.obj
 0001:00005d80       ?OnNewDocument@CCashDoc@@UAEHXZ 00406d80 f   CashDoc.obj
 0001:00005da0       ??1CCashDoc@@UAE@XZ        00406da0 f   CashDoc.obj
 0001:00005dc0       ?GetMessageMap@CCashDoc@@MBEPBUAFX_MSGMAP@@XZ 00406dc0 f   CashDoc.obj
 0001:00005dd0       ?GetThisMessageMap@CCashDoc@@KGPBUAFX_MSGMAP@@XZ 00406dd0 f   CashDoc.obj
 0001:00005de0       ?Serialize@CCashDoc@@UAEXAAVCArchive@@@Z 00406de0 f   CashDoc.obj
 0001:00005e00       ?CashDoActionIncome@CCashDoc@@QAEHPBDM@Z 00406e00 f   CashDoc.obj
 0001:00005e20       ?CashDoActionOutcome@CCashDoc@@QAEHPBDM@Z 00406e20 f   CashDoc.obj
 0001:00005e40       ?AddCashMoveDocument@CCashDoc@@QAEHPBD0000M@Z 00406e40 f   CashDoc.obj
 0001:00005e60       ?OnCloseDocument@CCashDoc@@UAEXXZ 00406e60 f   CashDoc.obj
 0001:00005e80       ?UpdateCashMove@CCashDoc@@QAEHXZ 00406e80 f   CashDoc.obj
 0001:00005e90       ?CalculateCashRegisters@CCashDoc@@QAEHVCOleDateTime@ATL@@0AAN@Z 00406e90 f   CashDoc.obj
 0001:00005eb0       ?CalculateCashBalance@CCashDoc@@QAENAAVCOleDateTime@ATL@@@Z 00406eb0 f   CashDoc.obj
 0001:00005f30       ?GetMainCashId@CCashDoc@@QAEAAV?$CStringT@DV?$StrTraitMFC_DLL@DV?$ChTraitsCRT@D@ATL@@@@@ATL@@XZ 00406f30 f   CashDoc.obj
 0001:00005f50       ?GetCashId@CCashDoc@@QAEAAV?$CStringT@DV?$StrTraitMFC_DLL@DV?$ChTraitsCRT@D@ATL@@@@@ATL@@XZ 00406f50 f   CashDoc.obj
 0001:00005f70       ??_ECCashDoc@@UAEPAXI@Z    00406f70 f i CashDoc.obj
 0001:00005f70       ??_GCCashDoc@@UAEPAXI@Z    00406f70 f i CashDoc.obj
 0001:00005fa0       ??1CShtrihFRK@@QAE@XZ      00406fa0 f i CashDoc.obj
 0001:00006000       ??1IDrvFR47@CShtrihFRK@@QAE@XZ 00407000 f i CashDoc.obj
 0001:00006020       ??2CObject@@SGPAXI@Z       00407020 f i CashDoc.obj
 0001:00006040       ?IsStoring@CArchive@@QBEHXZ 00407040 f i CashDoc.obj
 0001:00006060       ??$GetDocument@VCMainDocument@@@CUserThreadsApp@@SAPAVCMainDocument@@XZ 00407060 f i CashDoc.obj
 0001:000060f0       ?GetAdapter@CDocument@@UAEPAUIDocument@ATL@@XZ 004070f0 f i CashDoc.obj
 0001:000061f0       ??0CDocumentAdapter@CDocument@@QAE@PAV1@@Z 004071f0 f i CashDoc.obj
 0001:00006220       ??0IDocument@ATL@@IAE@XZ   00407220 f i CashDoc.obj
 0001:00006250       ?AddRef@IDocument@ATL@@UAEJXZ 00407250 f i CashDoc.obj
 0001:00006270       ?Release@IDocument@ATL@@UAEJXZ 00407270 f i CashDoc.obj
 0001:000062d0       ??_GIDocument@ATL@@UAEPAXI@Z 004072d0 f i CashDoc.obj
 0001:000062d0       ??_EIDocument@ATL@@UAEPAXI@Z 004072d0 f i CashDoc.obj
 0001:00006300       ??1IDocument@ATL@@UAE@XZ   00407300 f i CashDoc.obj
 0001:00006320       ?LoadFromStream@CDocumentAdapter@CDocument@@UAEJPAUIStream@@K@Z 00407320 f i CashDoc.obj
 0001:000063a0       ?InitializeSearchContent@CDocumentAdapter@CDocument@@UAEXXZ 004073a0 f i CashDoc.obj
 0001:000063d0       ?ClearChunkList@CDocumentAdapter@CDocument@@UAEXXZ 004073d0 f i CashDoc.obj
 0001:00006400       ?SetChunkValue@CDocumentAdapter@CDocument@@UAEHPAUIFilterChunkValue@ATL@@@Z 00407400 f i CashDoc.obj
 0001:00006440       ?BeginReadChunks@CDocumentAdapter@CDocument@@UAEXXZ 00407440 f i CashDoc.obj
 0001:00006470       ?ReadNextChunkValue@CDocumentAdapter@CDocument@@UAEHPAPAUIFilterChunkValue@ATL@@@Z 00407470 f i CashDoc.obj
 0001:000064b0       ?RemoveChunk@CDocumentAdapter@CDocument@@UAEXABU_GUID@@K@Z 004074b0 f i CashDoc.obj
 0001:000064f0       ?FindChunk@CDocumentAdapter@CDocument@@UAEPAU__POSITION@@ABU_GUID@@K@Z 004074f0 f i CashDoc.obj
 0001:00006530       ?size@?$_Tree@V?$_Tmap_traits@V?$CStringT@DV?$StrTraitMFC_DLL@DV?$ChTraitsCRT@D@ATL@@@@@ATL@@V?$shared_ptr@VCFont@@@tr1@std@@U?$less@V?$CStringT@DV?$StrTraitMFC_DLL@DV?$ChTraitsCRT@D@ATL@@@@@ATL@@@5@V?$allocator@U?$pair@$$CBV?$CStringT@DV?$StrTraitMFC_DLL@DV?$ChTraitsCRT@D@ATL@@@@@ATL@@V?$shared_ptr@VCFont@@@tr1@std@@@std@@@5@$0A@@std@@@std@@QBEIXZ 00407530 f i DlgEnterCash.obj
 0001:00006530       ?size@?$_Tree@V?$_Tmap_traits@V?$CStringT@DV?$StrTraitMFC_DLL@DV?$ChTraitsCRT@D@ATL@@@@@ATL@@V?$CAdapt@V?$CComPtr@UIDispatch@@@ATL@@@2@U?$less@V?$CStringT@DV?$StrTraitMFC_DLL@DV?$ChTraitsCRT@D@ATL@@@@@ATL@@@std@@V?$allocator@U?$pair@$$CBV?$CStringT@DV?$StrTraitMFC_DLL@DV?$ChTraitsCRT@D@ATL@@@@@ATL@@V?$CAdapt@V?$CComPtr@UIDispatch@@@ATL@@@2@@std@@@5@$0A@@std@@@std@@QBEIXZ 00407530 f i DlgSelectGood.obj
 0001:00006530       ?GetStatus@COleDateTime@ATL@@QBE?AW4DateTimeStatus@12@XZ 00407530 f i 1CHelper.obj
 0001:00006530       ?GetSize@CStringArray@@QBEHXZ 00407530 f i TableValue1.obj
 0001:00006530       ?GetContainer@CDocumentAdapter@CDocument@@UBEPAXXZ 00407530 f i CashDoc.obj
 0001:00006530       ?size@?$_Tree@V?$_Tmap_traits@PAVCWnd@@IU?$less@PAVCWnd@@@std@@V?$allocator@U?$pair@QAVCWnd@@I@std@@@3@$0A@@std@@@std@@QBEIXZ 00407530 f i MultiSplitterView.obj
 0001:00006530       ?size@?$_Tree@V?$_Tmap_traits@V?$basic_string@_WU?$char_traits@_W@std@@V?$allocator@_W@2@@std@@V12@U?$less@V?$basic_string@_WU?$char_traits@_W@std@@V?$allocator@_W@2@@std@@@2@V?$allocator@U?$pair@$$CBV?$basic_string@_WU?$char_traits@_W@std@@V?$allocator@_W@2@@std@@V12@@std@@@2@$0A@@std@@@std@@QBEIXZ 00407530 f i CheckDoc.obj
 0001:00006550       ?GetThumbnail@CDocumentAdapter@CDocument@@UAEHIPAPAUHBITMAP__@@PAW4WTS_ALPHATYPE@@@Z 00407550 f i CashDoc.obj
 0001:00006590       ??_ECDocumentAdapter@CDocument@@UAEPAXI@Z 00407590 f i CashDoc.obj
 0001:00006590       ??_GCDocumentAdapter@CDocument@@UAEPAXI@Z 00407590 f i CashDoc.obj
 0001:000065c0       ??1CDocumentAdapter@CDocument@@UAE@XZ 004075c0 f i CashDoc.obj
 0001:00006660       ?SetModifiedFlag@CDocument@@UAEXH@Z 00407660 f i CashDoc.obj
 0001:00006680       ??0COleDateTime@ATL@@QAE@XZ 00407680 f i CashDoc.obj
 0001:000066a0       ??0CCashPrinter@@QAE@PAVCView@@@Z 004076a0 f   CashPrinter.obj
 0001:000066d0       ??1CCashPrinter@@UAE@XZ    004076d0 f   CashPrinter.obj
 0001:000066f0       ?AddNewLine@CCashPrinter@@QAEXHHHHPBD@Z 004076f0 f   CashPrinter.obj
 0001:000067c0       ?NewCheck@CCashPrinter@@QAEHH@Z 004077c0 f   CashPrinter.obj
 0001:000068a0       ?PrintCheck@CCashPrinter@@QAEHXZ 004078a0 f   CashPrinter.obj
 0001:00006d70       ?WriteLPT@CCashPrinter@@AAEHXZ 00407d70 f   CashPrinter.obj
 0001:00006e20       ??_ECCashPrinter@@UAEPAXI@Z 00407e20 f i CashPrinter.obj
 0001:00006e20       ??_GCCashPrinter@@UAEPAXI@Z 00407e20 f i CashPrinter.obj
 0001:00006e50       ?GetCurSumma@CCheckDoc@@QBEMXZ 00407e50 f i CashPrinter.obj
 0001:00006ec0       ?begin@?$list@USalesItemLine@CCheckDoc@@V?$allocator@USalesItemLine@CCheckDoc@@@std@@@std@@QBE?AV?$_List_const_iterator@V?$_List_val@USalesItemLine@CCheckDoc@@V?$allocator@USalesItemLine@CCheckDoc@@@std@@@std@@@2@XZ 00407ec0 f i CashPrinter.obj
 0001:00006ef0       ??$?0UIUnknown@@@?$_com_ptr_t@V?$_com_IIID@UIVSFlexGrid@@$1?_GUID_d76d712b_4a96_11d3_bd95_d296dc2dd072@@3U__s_GUID@@B@@@@QAE@PAUIUnknown@@@Z 00407ef0 f i CashPrinter.obj
 0001:00006f40       ??$for_each@V?$_List_const_iterator@V?$_List_val@USalesItemLine@CCheckDoc@@V?$allocator@USalesItemLine@CCheckDoc@@@std@@@std@@@std@@V<lambda0>@?A0x12bc0d92@@@std@@YA?AV<lambda0>@?A0x12bc0d92@@V?$_List_const_iterator@V?$_List_val@USalesItemLine@CCheckDoc@@V?$allocator@USalesItemLine@CCheckDoc@@@std@@@std@@@0@0V12@@Z 00407f40 f i CashPrinter.obj
 0001:00006f90       ??$_QueryInterface@PAUIUnknown@@@?$_com_ptr_t@V?$_com_IIID@UIVSFlexGrid@@$1?_GUID_d76d712b_4a96_11d3_bd95_d296dc2dd072@@3U__s_GUID@@B@@@@AAEJPAUIUnknown@@@Z 00407f90 f i CashPrinter.obj
 0001:00006ff0       ??$_For_each@V?$_List_unchecked_const_iterator@V?$_List_val@USalesItemLine@CCheckDoc@@V?$allocator@USalesItemLine@CCheckDoc@@@std@@@std@@U_Iterator_base0@2@@std@@V<lambda0>@?A0x12bc0d92@@@std@@YA?AV<lambda0>@?A0x12bc0d92@@V?$_List_unchecked_const_iterator@V?$_List_val@USalesItemLine@CCheckDoc@@V?$allocator@USalesItemLine@CCheckDoc@@@std@@@std@@U_Iterator_base0@2@@0@0V12@@Z 00407ff0 f i CashPrinter.obj
 0001:00007050       ??R<lambda0>@?A0x12bc0d92@@QBEXUSalesItemLine@CCheckDoc@@@Z 00408050 f i CashPrinter.obj
 0001:00007090       ??1SalesItemLine@CCheckDoc@@QAE@XZ 00408090 f i CashPrinter.obj
 0001:00007110       ??0SalesItemLine@CCheckDoc@@QAE@ABU01@@Z 00408110 f i CashPrinter.obj
 0001:000071d0       ??0?$basic_string@_WU?$char_traits@_W@std@@V?$allocator@_W@2@@std@@QAE@ABV01@@Z 004081d0 f i CashPrinter.obj
 0001:00007250       ?GetIID@?$_com_ptr_t@V?$_com_IIID@UIVSFlexGrid@@$1?_GUID_d76d712b_4a96_11d3_bd95_d296dc2dd072@@3U__s_GUID@@B@@@@SAABU_GUID@@XZ 00408250 f i CashPrinter.obj
 0001:00007260       ??$?4U_Recordset@@@?$_com_ptr_t@V?$_com_IIID@U_Recordset@@$1?_GUID_00000556_0000_0010_8000_00aa006d2ea4@@3U__s_GUID@@B@@@@QAEAAV0@PAU_Recordset@@@Z 00408260 f i CheckDoc.obj
 0001:00007260       ??$?4UIMSMQQueueInfos@MSMQ@@@?$_com_ptr_t@V?$_com_IIID@UIMSMQQueueInfos@MSMQ@@$1?_GUID_d7d6e07d_dccd_11d0_aa4b_0060970debae@@3U__s_GUID@@B@@@@QAEAAV0@PAUIMSMQQueueInfos@MSMQ@@@Z 00408260 f i MainDocument.obj
 0001:00007260       ??$?4UIVSFlexGrid@@@?$_com_ptr_t@V?$_com_IIID@UIVSFlexGrid@@$1?_GUID_d76d712b_4a96_11d3_bd95_d296dc2dd072@@3U__s_GUID@@B@@@@QAEAAV0@PAUIVSFlexGrid@@@Z 00408260 f i CashPrinter.obj
 0001:00007260       ??$?4UError@@@?$_com_ptr_t@V?$_com_IIID@UError@@$1?_GUID_00000500_0000_0010_8000_00aa006d2ea4@@3U__s_GUID@@B@@@@QAEAAV0@PAUError@@@Z 00408260 f i InfoConsole.obj
 0001:00007260       ??$?4U_Connection@@@?$_com_ptr_t@V?$_com_IIID@U_Connection@@$1?_GUID_00000550_0000_0010_8000_00aa006d2ea4@@3U__s_GUID@@B@@@@QAEAAV0@PAU_Connection@@@Z 00408260 f i DBDoc.obj
 0001:00007260       ??$?4U_Parameter@@@?$_com_ptr_t@V?$_com_IIID@U_Parameter@@$1?_GUID_0000050c_0000_0010_8000_00aa006d2ea4@@3U__s_GUID@@B@@@@QAEAAV0@PAU_Parameter@@@Z 00408260 f i ReturnDoc.obj
 0001:00007260       ??$?4UIMSMQQueue@MSMQ@@@?$_com_ptr_t@V?$_com_IIID@UIMSMQQueue@MSMQ@@$1?_GUID_d7d6e076_dccd_11d0_aa4b_0060970debae@@3U__s_GUID@@B@@@@QAEAAV0@PAUIMSMQQueue@MSMQ@@@Z 00408260 f i MainDocument.obj
 0001:00007260       ??$?4UIMSMQQueueInfo@MSMQ@@@?$_com_ptr_t@V?$_com_IIID@UIMSMQQueueInfo@MSMQ@@$1?_GUID_d7d6e07b_dccd_11d0_aa4b_0060970debae@@3U__s_GUID@@B@@@@QAEAAV0@PAUIMSMQQueueInfo@MSMQ@@@Z 00408260 f i MainDocument.obj
 0001:000072b0       ??D?$_List_unchecked_const_iterator@V?$_List_val@USalesItemLine@CCheckDoc@@V?$allocator@USalesItemLine@CCheckDoc@@@std@@@std@@U_Iterator_base0@2@@std@@QBEABUSalesItemLine@CCheckDoc@@XZ 004082b0 f i CashPrinter.obj
 0001:000072b0       ??D?$_List_const_iterator@V?$_List_val@USalesItemLine@CCheckDoc@@V?$allocator@USalesItemLine@CCheckDoc@@@std@@@std@@@std@@QBEABUSalesItemLine@CCheckDoc@@XZ 004082b0 f i CheckDoc.obj
 0001:000072d0       ??E?$_List_unchecked_const_iterator@V?$_List_val@USalesItemLine@CCheckDoc@@V?$allocator@USalesItemLine@CCheckDoc@@@std@@@std@@U_Iterator_base0@2@@std@@QAEAAV01@XZ 004082d0 f i CashPrinter.obj
 0001:000072d0       ??E?$_List_const_iterator@V?$_List_val@USalesItemLine@CCheckDoc@@V?$allocator@USalesItemLine@CCheckDoc@@@std@@@std@@@std@@QAEAAV01@XZ 004082d0 f i CheckDoc.obj
 0001:00007300       ?GetIID@?$_com_IIID@UIVSFlexGrid@@$1?_GUID_d76d712b_4a96_11d3_bd95_d296dc2dd072@@3U__s_GUID@@B@@SAABU_GUID@@XZ 00408300 f i CashPrinter.obj
 0001:00007310       ?GetMonth@COleDateTime@ATL@@QBEHXZ 00408310 f i CashPrinter.obj
 0001:00007360       ?GetDay@COleDateTime@ATL@@QBEHXZ 00408360 f i CashPrinter.obj
 0001:000073b0       ?GetHour@COleDateTime@ATL@@QBEHXZ 004083b0 f i CashPrinter.obj
 0001:00007400       ?GetMinute@COleDateTime@ATL@@QBEHXZ 00408400 f i CashPrinter.obj
 0001:00007450       ??B_bstr_t@@QBEPADXZ       00408450 f i CashPrinter.obj
 0001:00007450       ??B_bstr_t@@QBEPBDXZ       00408450 f i 1CHelper.obj
 0001:00007480       ?GetRows@IVSFlexGrid@@QAEJXZ 00408480 f i CashPrinter.obj
 0001:000074d0       ?GetTextMatrix@IVSFlexGrid@@QAE?AV_bstr_t@@JJ@Z 004084d0 f i CashPrinter.obj
 0001:00007540       ??0_bstr_t@@QAE@PA_W_N@Z   00408540 f i CashPrinter.obj
 0001:000075e0       ??0Data_t@_bstr_t@@QAE@PA_W_N@Z 004085e0 f i CashPrinter.obj
 0001:00007650       ??1?$basic_string@_WU?$char_traits@_W@std@@V?$allocator@_W@2@@std@@QAE@XZ 00408650 f i CashPrinter.obj
 0001:000076b0       ?_Tidy@?$basic_string@_WU?$char_traits@_W@std@@V?$allocator@_W@2@@std@@QAEX_NI@Z 004086b0 f i CashPrinter.obj
 0001:00007730       ?copy@?$char_traits@_W@std@@SAPA_WPA_WPB_WI@Z 00408730 f i CashPrinter.obj
 0001:00007750       _wmemcpy                   00408750 f i CashPrinter.obj
 0001:00007770       ??0?$_String_val@DV?$allocator@D@std@@@std@@QAE@V?$allocator@D@1@@Z 00408770 f i CheckDoc.obj
 0001:00007770       ??0?$_String_val@_WV?$allocator@_W@std@@@std@@QAE@V?$allocator@_W@1@@Z 00408770 f i CashPrinter.obj
 0001:00007790       ?_Eos@?$basic_string@_WU?$char_traits@_W@std@@V?$allocator@_W@2@@std@@QAEXI@Z 00408790 f i CashPrinter.obj
 0001:000077d0       ?assign@?$char_traits@_W@std@@SAXAA_WAB_W@Z 004087d0 f i CashPrinter.obj
 0001:000077f0       ?assign@?$basic_string@_WU?$char_traits@_W@std@@V?$allocator@_W@2@@std@@QAEAAV12@ABV12@II@Z 004087f0 f i CashPrinter.obj
 0001:000078b0       ?_Grow@?$basic_string@_WU?$char_traits@_W@std@@V?$allocator@_W@2@@std@@QAE_NI_N@Z 004088b0 f i CashPrinter.obj
 0001:00007950       ?_Xlen@?$basic_string@DU?$char_traits@D@std@@V?$allocator@D@2@@std@@QBEXXZ 00408950 f i CheckDoc.obj
 0001:00007950       ?_Xlen@?$basic_string@_WU?$char_traits@_W@std@@V?$allocator@_W@2@@std@@QBEXXZ 00408950 f i CashPrinter.obj
 0001:00007970       ?max_size@?$basic_string@_WU?$char_traits@_W@std@@V?$allocator@_W@2@@std@@QBEIXZ 00408970 f i CashPrinter.obj
 0001:000079b0       ?_Copy@?$basic_string@_WU?$char_traits@_W@std@@V?$allocator@_W@2@@std@@QAEXII@Z 004089b0 f i CashPrinter.obj
 0001:00007b40       ?_Myptr@?$basic_string@_WU?$char_traits@_W@std@@V?$allocator@_W@2@@std@@QAEPA_WXZ 00408b40 f i CashPrinter.obj
 0001:00007b40       ?_Myptr@?$basic_string@_WU?$char_traits@_W@std@@V?$allocator@_W@2@@std@@QBEPB_WXZ 00408b40 f i CashPrinter.obj
 0001:00007b70       ?erase@?$basic_string@_WU?$char_traits@_W@std@@V?$allocator@_W@2@@std@@QAEAAV12@II@Z 00408b70 f i CashPrinter.obj
 0001:00007c10       ?move@?$char_traits@_W@std@@SAPA_WPA_WPB_WI@Z 00408c10 f i CashPrinter.obj
 0001:00007c30       _wmemmove                  00408c30 f i CashPrinter.obj
 0001:00007c50       ?allocate@?$allocator@_W@std@@QAEPA_WI@Z 00408c50 f i CashPrinter.obj
 0001:00007c70       ?max_size@?$allocator@_W@std@@QBEIXZ 00408c70 f i CashPrinter.obj
 0001:00007ca0       ??$_Allocate@_W@std@@YAPA_WIPA_W@Z 00408ca0 f i CashPrinter.obj
 0001:00007d00       ??0bad_alloc@std@@QAE@PBD@Z 00408d00 f i CashPrinter.obj
 0001:00007d30       ??1bad_alloc@std@@UAE@XZ   00408d30 f i CashPrinter.obj
 0001:00007d50       ??_Ebad_alloc@std@@UAEPAXI@Z 00408d50 f i CashPrinter.obj
 0001:00007d50       ??_Gbad_alloc@std@@UAEPAXI@Z 00408d50 f i CashPrinter.obj
 0001:00007d80       ??0bad_alloc@std@@QAE@ABV01@@Z 00408d80 f i CashPrinter.obj
 0001:00007db0       ?CreateObject@CCategoryTree@@SGPAVCObject@@XZ 00408db0 f   CategoryTree.obj
 0001:00007e30       ?_GetBaseClass@CCategoryTree@@KGPAUCRuntimeClass@@XZ 00408e30 f   CategoryTree.obj
 0001:00007e40       ?GetThisClass@CCategoryTree@@SGPAUCRuntimeClass@@XZ 00408e40 f   CategoryTree.obj
 0001:00007e50       ?GetRuntimeClass@CCategoryTree@@UBEPAUCRuntimeClass@@XZ 00408e50 f   CategoryTree.obj
 0001:00007e60       ??0CCategoryTree@@IAE@XZ   00408e60 f   CategoryTree.obj
 0001:00007ed0       ??1CCategoryTree@@MAE@XZ   00408ed0 f   CategoryTree.obj
 0001:00007f40       ?GetMessageMap@CCategoryTree@@MBEPBUAFX_MSGMAP@@XZ 00408f40 f   CategoryTree.obj
 0001:00007f50       ?GetThisMessageMap@CCategoryTree@@KGPBUAFX_MSGMAP@@XZ 00408f50 f   CategoryTree.obj
 0001:00007f60       ?OnDraw@CCategoryTree@@MAEXPAVCDC@@@Z 00408f60 f   CategoryTree.obj
 0001:00007f70       ?OnCreate@CCategoryTree@@IAEHPAUtagCREATESTRUCTA@@@Z 00408f70 f   CategoryTree.obj
 0001:00007ff0       ?OnSize@CCategoryTree@@IAEXIHH@Z 00408ff0 f   CategoryTree.obj
 0001:00008050       ?OnGetInfoFromNode@CCategoryTree@@IAEJIJ@Z 00409050 f   CategoryTree.obj
 0001:00008280       ?GetDocument@CCategoryTree@@QAEPAVCDBDoc@@XZ 00409280 f   CategoryTree.obj
 0001:000082c0       ?OnUpdate@CCategoryTree@@UAEXPAVCView@@JPAVCObject@@@Z 004092c0 f   CategoryTree.obj
 0001:00008390       ?OnInitialUpdate@CCategoryTree@@UAEXXZ 00409390 f   CategoryTree.obj
 0001:00008470       ?OnClose@CCategoryTree@@IAEXXZ 00409470 f   CategoryTree.obj
 0001:00008480       ??_GCCategoryTree@@MAEPAXI@Z 00409480 f i CategoryTree.obj
 0001:00008480       ??_ECCategoryTree@@MAEPAXI@Z 00409480 f i CategoryTree.obj
 0001:000084b0       ?GetFontSize@CDBDoc@@QAEHXZ 004094b0 f i CategoryTree.obj
 0001:000084d0       ?GetFontName@CDBDoc@@QAEAAV?$CStringT@DV?$StrTraitMFC_DLL@DV?$ChTraitsCRT@D@ATL@@@@@ATL@@XZ 004094d0 f i CategoryTree.obj
 0001:000084f0       ??0CRect@@QAE@HHHH@Z       004094f0 f i CategoryTree.obj
 0001:00008530       ??0CFont@@QAE@XZ           00409530 f i CategoryTree.obj
 0001:00008550       ??0CGdiObject@@QAE@XZ      00409550 f i CategoryTree.obj
 0001:00008580       ??_ECGdiObject@@UAEPAXI@Z  00409580 f i CategoryTree.obj
 0001:00008580       ??_GCGdiObject@@UAEPAXI@Z  00409580 f i CategoryTree.obj
 0001:000085b0       ??1CGdiObject@@UAE@XZ      004095b0 f i CategoryTree.obj
 0001:00008750       ??_GCFont@@UAEPAXI@Z       00409750 f i CategoryTree.obj
 0001:00008750       ??_ECFont@@UAEPAXI@Z       00409750 f i CategoryTree.obj
 0001:00008780       ??1CFont@@UAE@XZ           00409780 f i CategoryTree.obj
 0001:000087a0       ?GetSafeHwnd@CWnd@@QBEPAUHWND__@@XZ 004097a0 f i CategoryTree.obj
 0001:000087d0       ?GetParent@CWnd@@QBEPAV1@XZ 004097d0 f i CategoryTree.obj
 0001:000087f0       ?OnMDIActivate@CWnd@@IAEXHPAV1@0@Z 004097f0 f i MDIClient.obj
 0001:000087f0       ?OnKeyDown@CWnd@@IAEXIII@Z 004097f0 f i FindEdit.obj
 0001:000087f0       ?OnSize@CWnd@@IAEXIHH@Z    004097f0 f i CategoryTree.obj
 0001:000087f0       ?OnMouseMove@CWnd@@IAEXIVCPoint@@@Z 004097f0 f i DlgSelectGood.obj
 0001:000087f0       ?OnLButtonDown@CWnd@@IAEXIVCPoint@@@Z 004097f0 f i DlgSelectGood.obj
 0001:000087f0       ?OnRButtonDown@CWnd@@IAEXIVCPoint@@@Z 004097f0 f i ViewManager.obj
 0001:00008810       ??0CTreeView@@QAE@XZ       00409810 f i CategoryTree.obj
 0001:00008840       ??_GCTreeView@@UAEPAXI@Z   00409840 f i CategoryTree.obj
 0001:00008840       ??_ECTreeView@@UAEPAXI@Z   00409840 f i CategoryTree.obj
 0001:00008870       ??1CTreeView@@UAE@XZ       00409870 f i CategoryTree.obj
 0001:00008890       ??HATL@@YA?AV?$CStringT@DV?$StrTraitMFC_DLL@DV?$ChTraitsCRT@D@ATL@@@@@0@ABV10@0@Z 00409890 f i CategoryTree.obj
 0001:00008950       ?c_str@?$basic_string@_WU?$char_traits@_W@std@@V?$allocator@_W@2@@std@@QBEPB_WXZ 00409950 f i CategoryTree.obj
 0001:00008970       ??0CCheckButton@@QAE@XZ    00409970 f   CheckButton.obj
 0001:00008990       ??1CCheckButton@@UAE@XZ    00409990 f   CheckButton.obj
 0001:000089b0       ?GetMessageMap@CCheckButton@@MBEPBUAFX_MSGMAP@@XZ 004099b0 f   CheckButton.obj
 0001:000089c0       ?GetThisMessageMap@CCheckButton@@KGPBUAFX_MSGMAP@@XZ 004099c0 f   CheckButton.obj
 0001:000089d0       ?DrawItem@CCheckButton@@UAEXPAUtagDRAWITEMSTRUCT@@@Z 004099d0 f   CheckButton.obj
 0001:00008ba0       ??_GCCheckButton@@UAEPAXI@Z 00409ba0 f i CheckButton.obj
 0001:00008ba0       ??_ECCheckButton@@UAEPAXI@Z 00409ba0 f i CheckButton.obj
 0001:00008bd0       ??0CRect@@QAE@XZ           00409bd0 f i CheckButton.obj
 0001:00008c10       ?InflateRect@CRect@@QAEXHH@Z 00409c10 f i PopupMenu.obj
 0001:00008c10       ?InflateRect@CRect@@QAEXUtagSIZE@@@Z 00409c10 f i CheckButton.obj
 0001:00008c30       ??4CRect@@QAEXABUtagRECT@@@Z 00409c30 f i CheckButton.obj
 0001:00008c50       ?NormalizeRect@CRect@@QAEXXZ 00409c50 f i CheckButton.obj
 0001:00008cc0       ?DrawEdge@CDC@@QAEHPAUtagRECT@@II@Z 00409cc0 f i CheckButton.obj
 0001:00008cf0       ?DrawFocusRect@CDC@@QAEXPBUtagRECT@@@Z 00409cf0 f i CheckButton.obj
 0001:00008d10       ?DrawTextA@CDC@@QAEHABV?$CStringT@DV?$StrTraitMFC_DLL@DV?$ChTraitsCRT@D@ATL@@@@@ATL@@PAUtagRECT@@I@Z 00409d10 f i CheckButton.obj
 0001:00008d50       ??0CButton@@QAE@XZ         00409d50 f i CheckButton.obj
 0001:00008d70       ??_ECButton@@UAEPAXI@Z     00409d70 f i CheckButton.obj
 0001:00008d70       ??_GCButton@@UAEPAXI@Z     00409d70 f i CheckButton.obj
 0001:00008da0       ?CreateObject@CCheckDoc@@SGPAVCObject@@XZ 00409da0 f   CheckDoc.obj
 0001:00008e20       ?_GetBaseClass@CCheckDoc@@KGPAUCRuntimeClass@@XZ 00409e20 f   CheckDoc.obj
 0001:00008e30       ?GetThisClass@CCheckDoc@@SGPAUCRuntimeClass@@XZ 00409e30 f   CheckDoc.obj
 0001:00008e40       ?GetRuntimeClass@CCheckDoc@@UBEPAUCRuntimeClass@@XZ 00409e40 f   CheckDoc.obj
 0001:00008e50       ??0CCheckDoc@@IAE@XZ       00409e50 f   CheckDoc.obj
 0001:00008f20       ?OnNewDocument@CCheckDoc@@UAEHXZ 00409f20 f   CheckDoc.obj
 0001:000090e0       ??1CCheckDoc@@UAE@XZ       0040a0e0 f   CheckDoc.obj
 0001:00009170       ?GetMessageMap@CCheckDoc@@MBEPBUAFX_MSGMAP@@XZ 0040a170 f   CheckDoc.obj
 0001:00009180       ?GetThisMessageMap@CCheckDoc@@KGPBUAFX_MSGMAP@@XZ 0040a180 f   CheckDoc.obj
 0001:00009190       ?GetThisEventSinkMap@CCheckDoc@@KGPBUAFX_EVENTSINKMAP@@XZ 0040a190 f   CheckDoc.obj
 0001:000091a0       ?GetEventSinkMap@CCheckDoc@@MBEPBUAFX_EVENTSINKMAP@@XZ 0040a1a0 f   CheckDoc.obj
 0001:000091b0       ?Serialize@CCheckDoc@@UAEXAAVCArchive@@@Z 0040a1b0 f   CheckDoc.obj
 0001:000091d0       ?OnCloseDocument@CCheckDoc@@UAEXXZ 0040a1d0 f   CheckDoc.obj
 0001:00009240       ?AddLine@CCheckDoc@@QAEXABUSalesItemLine@1@@Z 0040a240 f   CheckDoc.obj
 0001:000092f0       ?OnCmdMsg@CCheckDoc@@UAEHIHPAXPAUAFX_CMDHANDLERINFO@@@Z 0040a2f0 f   CheckDoc.obj
 0001:0000a5b0       ?TransactCheck@CCheckDoc@@QAEHXZ 0040b5b0 f   CheckDoc.obj
 0001:0000b020       ?SaveHeadCheck@CCheckDoc@@QAEHABVCOleDateTime@ATL@@PBD@Z 0040c020 f   CheckDoc.obj
 0001:0000b040       ?SaveTableCheck@CCheckDoc@@QAEHPAUtagVARIANT@@PBD@Z 0040c040 f   CheckDoc.obj
 0001:0000b060       ?DeleteCheck@CCheckDoc@@QAEHPBD@Z 0040c060 f   CheckDoc.obj
 0001:0000b070       ?DeleteLineNo@CCheckDoc@@QAEXH@Z 0040c070 f   CheckDoc.obj
 0001:0000b0b0       ?GetCheckInfo@CCheckDoc@@QAEHPBDPAD11IAAVCOleDateTime@ATL@@@Z 0040c0b0 f   CheckDoc.obj
 0001:0000b0c0       ?OnSaveDocument@CCheckDoc@@UAEHPBD@Z 0040c0c0 f   CheckDoc.obj
 0001:0000b120       ?OnMultbutHolder@CCheckDoc@@QAEXXZ 0040c120 f   CheckDoc.obj
 0001:0000b1c0       ?OnUpdateMultbutHolder@CCheckDoc@@QAEXPAVCCmdUI@@@Z 0040c1c0 f   CheckDoc.obj
 0001:0000b2f0       ??_GCCheckDoc@@UAEPAXI@Z   0040c2f0 f i CheckDoc.obj
 0001:0000b2f0       ??_ECCheckDoc@@UAEPAXI@Z   0040c2f0 f i CheckDoc.obj
 0001:0000b320       ??_D?$basic_stringstream@_WU?$char_traits@_W@std@@V?$allocator@_W@2@@std@@QAEXXZ 0040c320 f i CheckDoc.obj
 0001:0000b350       ?AtlA2WHelper@@YGPA_WPA_WPBDHI@Z 0040c350 f i CheckDoc.obj
 0001:0000b3a0       ?BaseUnit@ListOfAttr@Products@@SA?BV?$basic_string@_WU?$char_traits@_W@std@@V?$allocator@_W@2@@std@@XZ 0040c3a0 f i CheckDoc.obj
 0001:0000b3d0       ?PriceValue@ListOfAttr@Prices@@SA?BV?$basic_string@_WU?$char_traits@_W@std@@V?$allocator@_W@2@@std@@XZ 0040c3d0 f i CheckDoc.obj
 0001:0000b400       ?getType_price@Repository@@QBE?AV?$shared_ptr@V?$Reference@UTypePrice@@V?$SQLSearchStrategy@UTypePrice@@V?$RefCreator@UTypePrice@@$00@@@@@@@boost@@XZ 0040c400 f i CheckDoc.obj
 0001:0000b440       ?getProducts@Repository@@QBE?AV?$shared_ptr@V?$HierarchyReference@UProducts@@@@@boost@@XZ 0040c440 f i CheckDoc.obj
 0001:0000b510       ?getUnits@Repository@@QBE?AV?$shared_ptr@V?$SlaveReference@UUnits@@UProducts@@@@@boost@@XZ 0040c510 f i CheckDoc.obj
 0001:0000b5e0       ?getPrices@Repository@@QBE?AV?$shared_ptr@V?$SlaveReference@UPrices@@UProducts@@@@@boost@@XZ 0040c5e0 f i CheckDoc.obj
 0001:0000b6b0       ??1shared_count@detail@boost@@QAE@XZ 0040c6b0 f i CheckDoc.obj
 0001:0000b6d0       ?release@sp_counted_base@detail@boost@@QAEXXZ 0040c6d0 f i CheckDoc.obj
 0001:0000b700       ?weak_release@sp_counted_base@detail@boost@@QAEXXZ 0040c700 f i CheckDoc.obj
 0001:0000b730       ?GetCode@CNotyfyFndProduct@@QBE?AV?$CStringT@DV?$StrTraitMFC_DLL@DV?$ChTraitsCRT@D@ATL@@@@@ATL@@XZ 0040c730 f i CheckDoc.obj
 0001:0000b770       ?size@?$basic_string@DU?$char_traits@D@std@@V?$allocator@D@2@@std@@QBEIXZ 0040c770 f i CheckDoc.obj
 0001:0000b770       ?GetQty@CNotyfyFndProduct@@QBEHXZ 0040c770 f i CheckDoc.obj
 0001:0000b770       ?length@?$basic_string@DU?$char_traits@D@std@@V?$allocator@D@2@@std@@QBEIXZ 0040c770 f i CheckDoc.obj
 0001:0000b770       ?size@?$basic_string@_WU?$char_traits@_W@std@@V?$allocator@_W@2@@std@@QBEIXZ 0040c770 f i CashPrinter.obj
 0001:0000b790       ?GetBarCode@CNotyfyFndProduct@@QBE?AV?$CStringT@DV?$StrTraitMFC_DLL@DV?$ChTraitsCRT@D@ATL@@@@@ATL@@XZ 0040c790 f i CheckDoc.obj
 0001:0000b7d0       ??0SalesItemLine@CCheckDoc@@QAE@XZ 0040c7d0 f i CheckDoc.obj
 0001:0000b850       ??_GCNotyfyFndProduct@@QAEPAXI@Z 0040c850 f i CheckDoc.obj
 0001:0000b880       ??1CNotyfyFndProduct@@QAE@XZ 0040c880 f i CheckDoc.obj
 0001:0000b8b0       ?AtlW2AHelper@@YGPADPADPB_WHI@Z 0040c8b0 f i CheckDoc.obj
 0001:0000b900       ??0CheckBuilder@@QAE@XZ    0040c900 f i CheckDoc.obj
 0001:0000b920       ??0CDocBuilder@@QAE@XZ     0040c920 f i CheckDoc.obj
 0001:0000b960       ?CreateHead@CheckBuilder@@UAEHXZ 0040c960 f i CheckDoc.obj
 0001:0000bb50       ??0?$CComPtr@UIDispatch@@@ATL@@QAE@PAUIDispatch@@@Z 0040cb50 f i CheckDoc.obj
 0001:0000bb70       ?AddAttrName@IHead@DOC@@QAEJV_bstr_t@@@Z 0040cb70 f i CheckDoc.obj
 0001:0000bc00       ?CreateTable@CheckBuilder@@UAEHXZ 0040cc00 f i CheckDoc.obj
 0001:0000bdd0       ?AddField@ITable@DOC@@QAEJV_bstr_t@@@Z 0040cdd0 f i CheckDoc.obj
 0001:0000be60       ?SetDescription@CCheckContainer@@QAEJPBD@Z 0040ce60 f i CheckDoc.obj
 0001:0000bf50       ?SetAuthor@CCheckContainer@@QAEJPBD@Z 0040cf50 f i CheckDoc.obj
 0001:0000c040       ?SetNumber@CCheckContainer@@QAEJPBD@Z 0040d040 f i CheckDoc.obj
 0001:0000c130       ?SaveToString@CCheckContainer@@QAEJPAPA_W@Z 0040d130 f i CheckDoc.obj
 0001:0000c1b0       ?SaveToString@IValue@DOC@@QAEJPAPA_W@Z 0040d1b0 f i CheckDoc.obj
 0001:0000c1f0       ?AddNewLine@CCheckContainer@@QAEJXZ 0040d1f0 f i CheckDoc.obj
 0001:0000c2b0       ?AddNewLine@ITable@DOC@@QAEJXZ 0040d2b0 f i CheckDoc.obj
 0001:0000c2f0       ?SetPrice@CCheckContainer@@QAEJN@Z 0040d2f0 f i CheckDoc.obj
 0001:0000c380       ??0CComVariant@ATL@@QAE@NG@Z 0040d380 f i CheckDoc.obj
 0001:0000c3e0       ?SetFieldValue@CCheckContainer@@AAEJPBDABUtagVARIANT@@@Z 0040d3e0 f i CheckDoc.obj
 0001:0000c570       ?PutValue@IField@DOC@@QAEXABV_variant_t@@@Z 0040d570 f i CheckDoc.obj
 0001:0000c5e0       ?Item@IRow@DOC@@QAE?AV?$_com_ptr_t@V?$_com_IIID@UIField@DOC@@$1?_GUID_3c9bf0b5_52b5_4a0b_9bf1_55828b2fdee4@@3U__s_GUID@@B@@@@V_bstr_t@@@Z 0040d5e0 f i CheckDoc.obj
 0001:0000c690       ?GetFieldsX@ITable@DOC@@QAE?AV?$_com_ptr_t@V?$_com_IIID@UIRow@DOC@@$1?_GUID_7969f54c_4ea5_4917_b576_3b26d9ed819c@@3U__s_GUID@@B@@@@XZ 0040d690 f i CheckDoc.obj
 0001:0000c700       ?SetQty@CCheckContainer@@QAEJH@Z 0040d700 f i CheckDoc.obj
 0001:0000c790       ??0CComVariant@ATL@@QAE@JG@Z 0040d790 f i CheckDoc.obj
 0001:0000c7f0       ?SetBarCode@CCheckContainer@@QAEJPBD@Z 0040d7f0 f i CheckDoc.obj
 0001:0000cb40       ??0CComVariant@ATL@@QAE@PBD@Z 0040db40 f i CheckDoc.obj
 0001:0000cb70       ??4CComVariant@ATL@@QAEAAV01@PBD@Z 0040db70 f i CheckDoc.obj
 0001:0000cce0       ??$AtlMultiply@H@ATL@@YAJPAHHH@Z 0040dce0 f i CheckDoc.obj
 0001:0000cd50       _HRESULT_FROM_WIN32        0040dd50 f i CheckDoc.obj
 0001:0000cd90       ?_AtlVerifyStackAvailable@_ATL_SAFE_ALLOCA_IMPL@ATL@@YA_NK@Z 0040dd90 f i CheckDoc.obj
 0001:0000ce70       ?ClearThrow@CComVariant@ATL@@AAEXXZ 0040de70 f i CheckDoc.obj
 0001:0000cea0       ?SetNomenclatureCode@CCheckContainer@@QAEJPBD@Z 0040dea0 f i CheckDoc.obj
 0001:0000cf20       ?SetPointCode@CCheckContainer@@QAEJPBD@Z 0040df20 f i CheckDoc.obj
 0001:0000cfa0       ?SetAttribute@CCheckContainer@@AAEJPBDABUtagVARIANT@@@Z 0040dfa0 f i CheckDoc.obj
 0001:0000d180       ??0CComVariant@ATL@@QAE@ABUtagVARIANT@@@Z 0040e180 f i CheckDoc.obj
 0001:0000d1b0       ?InternalCopy@CComVariant@ATL@@QAEXPBUtagVARIANT@@@Z 0040e1b0 f i CheckDoc.obj
 0001:0000d200       ?Copy@CComVariant@ATL@@QAEJPBUtagVARIANT@@@Z 0040e200 f i CheckDoc.obj
 0001:0000d220       ?SetPrefix@CCheckContainer@@QAEJPBD@Z 0040e220 f i CheckDoc.obj
 0001:0000d2a0       ??0CCheckContainer@@QAE@PAVCDocBuilder@@@Z 0040e2a0 f i CheckDoc.obj
 0001:0000d2d0       ?Init@CCheckContainer@@QAEJH@Z 0040e2d0 f i CheckDoc.obj
 0001:0000d3e0       ?PutViewName@IDocOneC@DOC@@QAEXV_bstr_t@@@Z 0040e3e0 f i CheckDoc.obj
 0001:0000d470       ?CreateInstance@CDocBuilder@@QAEJPBD@Z 0040e470 f i CheckDoc.obj
 0001:0000d4d0       ?Append@CComBSTR@ATL@@QAEJPBD@Z 0040e4d0 f i CheckDoc.obj
 0001:0000d5b0       ?Append@CComBSTR@ATL@@QAEJABV12@@Z 0040e5b0 f i CheckDoc.obj
 0001:0000d5d0       ?AppendBSTR@CComBSTR@ATL@@QAEJPA_W@Z 0040e5d0 f i CheckDoc.obj
 0001:0000d630       ?GetDocPtr@CDocBuilder@@QAEJPAPAUIDocOneC@DOC@@@Z 0040e630 f i CheckDoc.obj
 0001:0000d670       ??1?$_com_ptr_t@V?$_com_IIID@UIRow@DOC@@$1?_GUID_7969f54c_4ea5_4917_b576_3b26d9ed819c@@3U__s_GUID@@B@@@@QAE@XZ 0040e670 f i CheckDoc.obj
 0001:0000d670       ??1?$_com_ptr_t@V?$_com_IIID@UIMSMQQuery@MSMQ@@$1?_GUID_d7d6e072_dccd_11d0_aa4b_0060970debae@@3U__s_GUID@@B@@@@QAE@XZ 0040e670 f i MainDocument.obj
 0001:0000d670       ??1?$CComPtr@UIDocOneC@DOC@@@ATL@@QAE@XZ 0040e670 f i CheckDoc.obj
 0001:0000d670       ??1?$_com_ptr_t@V?$_com_IIID@UIField@DOC@@$1?_GUID_3c9bf0b5_52b5_4a0b_9bf1_55828b2fdee4@@3U__s_GUID@@B@@@@QAE@XZ 0040e670 f i CheckDoc.obj
 0001:0000d670       ??1?$_com_ptr_t@V?$_com_IIID@UErrors@@$1?_GUID_00000501_0000_0010_8000_00aa006d2ea4@@3U__s_GUID@@B@@@@QAE@XZ 0040e670 f i InfoConsole.obj
 0001:0000d670       ??1?$_com_ptr_t@V?$_com_IIID@UIMSMQQueueInfos@MSMQ@@$1?_GUID_d7d6e07d_dccd_11d0_aa4b_0060970debae@@3U__s_GUID@@B@@@@QAE@XZ 0040e670 f i MainDocument.obj
 0001:0000d670       ??1?$_com_ptr_t@V?$_com_IIID@UIMSMQQueueInfo@MSMQ@@$1?_GUID_d7d6e07b_dccd_11d0_aa4b_0060970debae@@3U__s_GUID@@B@@@@QAE@XZ 0040e670 f i MainDocument.obj
 0001:0000d670       ??1?$CComPtr@UIValue@DOC@@@ATL@@QAE@XZ 0040e670 f i CheckDoc.obj
 0001:0000d670       ??1?$_com_ptr_t@V?$_com_IIID@U_Parameter@@$1?_GUID_0000050c_0000_0010_8000_00aa006d2ea4@@3U__s_GUID@@B@@@@QAE@XZ 0040e670 f i ReturnDoc.obj
 0001:0000d670       ??1?$_com_ptr_t@V?$_com_IIID@U_Recordset@@$1?_GUID_00000556_0000_0010_8000_00aa006d2ea4@@3U__s_GUID@@B@@@@QAE@XZ 0040e670 f i CheckDoc.obj
 0001:0000d670       ??1?$_com_ptr_t@V?$_com_IIID@UIMSMQMessage@MSMQ@@$1?_GUID_d7d6e074_dccd_11d0_aa4b_0060970debae@@3U__s_GUID@@B@@@@QAE@XZ 0040e670 f i MainDocument.obj
 0001:0000d670       ??1?$_com_ptr_t@V?$_com_IIID@UFields@@$1?_GUID_00000564_0000_0010_8000_00aa006d2ea4@@3U__s_GUID@@B@@@@QAE@XZ 0040e670 f i CheckDoc.obj
 0001:0000d670       ??1?$_com_ptr_t@V?$_com_IIID@UIMSMQQueue@MSMQ@@$1?_GUID_d7d6e076_dccd_11d0_aa4b_0060970debae@@3U__s_GUID@@B@@@@QAE@XZ 0040e670 f i MainDocument.obj
 0001:0000d670       ??1?$_com_ptr_t@V?$_com_IIID@UParameters@@$1?_GUID_0000050d_0000_0010_8000_00aa006d2ea4@@3U__s_GUID@@B@@@@QAE@XZ 0040e670 f i ReturnDoc.obj
 0001:0000d670       ??1?$_com_ptr_t@V?$_com_IIID@U_Command@@$1?_GUID_b08400bd_f9d1_4d02_b856_71d5dba123e9@@3U__s_GUID@@B@@@@QAE@XZ 0040e670 f i CheckDoc.obj
 0001:0000d670       ??1?$CComPtr@UIErrorInfo@@@ATL@@QAE@XZ 0040e670 f i CheckDoc.obj
 0001:0000d670       ??1?$_com_ptr_t@V?$_com_IIID@UIVSFlexGrid@@$1?_GUID_d76d712b_4a96_11d3_bd95_d296dc2dd072@@3U__s_GUID@@B@@@@QAE@XZ 0040e670 f i CashPrinter.obj
 0001:0000d670       ??1?$_com_ptr_t@V?$_com_IIID@U_Connection@@$1?_GUID_00000550_0000_0010_8000_00aa006d2ea4@@3U__s_GUID@@B@@@@QAE@XZ 0040e670 f i InfoConsole.obj
 0001:0000d670       ??1?$CComPtr@UITable@DOC@@@ATL@@QAE@XZ 0040e670 f i CheckDoc.obj
 0001:0000d670       ??1?$_com_ptr_t@V?$_com_IIID@UField@@$1?_GUID_00000569_0000_0010_8000_00aa006d2ea4@@3U__s_GUID@@B@@@@QAE@XZ 0040e670 f i CheckDoc.obj
 0001:0000d670       ??1?$CComPtr@UIHead@DOC@@@ATL@@QAE@XZ 0040e670 f i CheckDoc.obj
 0001:0000d670       ??1?$CComPtr@UIDispatch@@@ATL@@QAE@XZ 0040e670 f i CheckDoc.obj
 0001:0000d670       ??1?$CComPtr@UICreateErrorInfo@@@ATL@@QAE@XZ 0040e670 f i CheckDoc.obj
 0001:0000d670       ??1?$_com_ptr_t@V?$_com_IIID@UError@@$1?_GUID_00000500_0000_0010_8000_00aa006d2ea4@@3U__s_GUID@@B@@@@QAE@XZ 0040e670 f i InfoConsole.obj
 0001:0000d690       ??_GCCheckContainer@@QAEPAXI@Z 0040e690 f i CheckDoc.obj
 0001:0000d6c0       ??1CCheckContainer@@QAE@XZ 0040e6c0 f i CheckDoc.obj
 0001:0000d710       ??_GCDocBuilder@@QAEPAXI@Z 0040e710 f i CheckDoc.obj
 0001:0000d740       ??1CDocBuilder@@QAE@XZ     0040e740 f i CheckDoc.obj
 0001:0000d770       ??0<lambda0>@?A0x4e2117bc@@QAE@ABQAVCListBox@@@Z 0040e770 f i FontDlgPage.obj
 0001:0000d770       ??0<lambda2>@?A0x376302a3@@QAE@ABH@Z 0040e770 f i UserThreadsView.obj
 0001:0000d770       ??0<lambda1>@?A0x376302a3@@QAE@ABH@Z 0040e770 f i UserThreadsView.obj
 0001:0000d770       ??0<lambda2>@?A0x13b243aa@@QAE@ABH@Z 0040e770 f i CheckDoc.obj
 0001:0000d790       ??1CDlgSetQuantity@@UAE@XZ 0040e790 f i CheckDoc.obj
 0001:0000d840       ?GetNext@CObList@@QBEPBVCObject@@AAPAU__POSITION@@@Z 0040e840 f i CheckDoc.obj
 0001:0000d880       ?AfxDynamicDownCast@@YAPBVCObject@@PAUCRuntimeClass@@PBV1@@Z 0040e880 f i CheckDoc.obj
 0001:0000d8a0       ?SetText@MultButtonEx@@QAEXPBD@Z 0040e8a0 f i CheckDoc.obj
 0001:0000d8c0       ?Release@?$CComPtrBase@UIDispatch@@@ATL@@QAEXXZ 0040e8c0 f i CheckDoc.obj
 0001:0000d900       ??4?$basic_string@_WU?$char_traits@_W@std@@V?$allocator@_W@2@@std@@QAEAAV01@PB_W@Z 0040e900 f i CheckDoc.obj
 0001:0000d920       ?AfxGetMainWnd@@YGPAVCWnd@@XZ 0040e920 f i CheckDoc.obj
 0001:0000d960       ?getAttribute@?$RefItemT@UVariantType@@V?$RefItemTraits@UVariantType@@@@@@QAEABV_variant_t@@V?$basic_string@_WU?$char_traits@_W@std@@V?$allocator@_W@2@@std@@@Z 0040e960 f i CheckDoc.obj
 0001:0000dad0       ??0?$basic_stringstream@_WU?$char_traits@_W@std@@V?$allocator@_W@2@@std@@QAE@H@Z 0040ead0 f i CheckDoc.obj
 0001:0000db90       ??1?$basic_stringstream@_WU?$char_traits@_W@std@@V?$allocator@_W@2@@std@@UAE@XZ 0040eb90 f i CheckDoc.obj
 0001:0000dc00       ?str@?$basic_stringstream@_WU?$char_traits@_W@std@@V?$allocator@_W@2@@std@@QBE?AV?$basic_string@_WU?$char_traits@_W@std@@V?$allocator@_W@2@@2@XZ 0040ec00 f i CheckDoc.obj
 0001:0000dc40       ??1?$basic_stringbuf@_WU?$char_traits@_W@std@@V?$allocator@_W@2@@std@@UAE@XZ 0040ec40 f i CheckDoc.obj
 0001:0000dca0       ?overflow@?$basic_stringbuf@_WU?$char_traits@_W@std@@V?$allocator@_W@2@@std@@MAEGG@Z 0040eca0 f i CheckDoc.obj
 0001:0000dfc0       ?pbackfail@?$basic_stringbuf@_WU?$char_traits@_W@std@@V?$allocator@_W@2@@std@@MAEGG@Z 0040efc0 f i CheckDoc.obj
 0001:0000e0b0       ?underflow@?$basic_stringbuf@_WU?$char_traits@_W@std@@V?$allocator@_W@2@@std@@MAEGXZ 0040f0b0 f i CheckDoc.obj
 0001:0000e1b0       ?seekoff@?$basic_stringbuf@_WU?$char_traits@_W@std@@V?$allocator@_W@2@@std@@MAE?AV?$fpos@H@2@_JHH@Z 0040f1b0 f i CheckDoc.obj
 0001:0000e480       ?seekpos@?$basic_stringbuf@_WU?$char_traits@_W@std@@V?$allocator@_W@2@@std@@MAE?AV?$fpos@H@2@V32@H@Z 0040f480 f i CheckDoc.obj
 0001:0000e690       ?swap@shared_count@detail@boost@@QAEXAAV123@@Z 0040f690 f i CheckDoc.obj
 0001:0000e6c0       ??0?$shared_ptr@V?$SlaveReference@UPrices@@UProducts@@@@@boost@@QAE@$$QAV01@@Z 0040f6c0 f i CheckDoc.obj
 0001:0000e6c0       ??0?$shared_ptr@VRefItemV@@@boost@@QAE@$$QAV01@@Z 0040f6c0 f i CheckDoc.obj
 0001:0000e6c0       ??0?$shared_ptr@V?$SlaveReference@UUnits@@UProducts@@@@@boost@@QAE@$$QAV01@@Z 0040f6c0 f i CheckDoc.obj
 0001:0000e6c0       ??0?$shared_ptr@VDbContext@@@boost@@QAE@$$QAV01@@Z 0040f6c0 f i Repository.obj
 0001:0000e6c0       ??0?$shared_ptr@U_Recordset@@@boost@@QAE@$$QAV01@@Z 0040f6c0 f i CheckDoc.obj
 0001:0000e6c0       ??0?$shared_ptr@V?$HierarchyReference@UProducts@@@@@boost@@QAE@$$QAV01@@Z 0040f6c0 f i CheckDoc.obj
 0001:0000e740       ??0shared_count@detail@boost@@QAE@ABV012@@Z 0040f740 f i CheckDoc.obj
 0001:0000e770       ?add_ref_copy@sp_counted_base@detail@boost@@QAEXXZ 0040f770 f i CheckDoc.obj
 0001:0000e790       ??0?$HierarchyReference@UProducts@@@@QAE@ABV0@@Z 0040f790 f i CheckDoc.obj
 0001:0000e850       ?FindByCode@?$HierarchyReference@UProducts@@@@QAEHV?$basic_string@_WU?$char_traits@_W@std@@V?$allocator@_W@2@@std@@@Z 0040f850 f i CheckDoc.obj
 0001:0000e9d0       ??0?$SlaveReference@UUnits@@UProducts@@@@QAE@ABV0@@Z 0040f9d0 f i CheckDoc.obj
 0001:0000ea90       ?FindByCode@?$SlaveReference@UUnits@@UProducts@@@@QAEHV?$basic_string@_WU?$char_traits@_W@std@@V?$allocator@_W@2@@std@@@Z 0040fa90 f i CheckDoc.obj
 0001:0000ea90       ?FindByCode@?$SlaveReference@UPrices@@UProducts@@@@QAEHV?$basic_string@_WU?$char_traits@_W@std@@V?$allocator@_W@2@@std@@@Z 0040fa90 f i CheckDoc.obj
 0001:0000ec10       ?getCurrent@?$SlaveReference@UUnits@@UProducts@@@@QAE?AV?$shared_ptr@VRefItemV@@@boost@@XZ 0040fc10 f i CheckDoc.obj
 0001:0000ec10       ?getCurrent@?$HierarchyReference@UProducts@@@@QAE?AV?$shared_ptr@VRefItemV@@@boost@@XZ 0040fc10 f i CheckDoc.obj
 0001:0000ec10       ?getCurrent@?$SlaveReference@UPrices@@UProducts@@@@QAE?AV?$shared_ptr@VRefItemV@@@boost@@XZ 0040fc10 f i CheckDoc.obj
 0001:0000ec40       ??0?$SlaveReference@UPrices@@UProducts@@@@QAE@ABV0@@Z 0040fc40 f i CheckDoc.obj
 0001:0000ed00       ??0<lambda5>@?A0x13b243aa@@QAE@ABV01@@Z 0040fd00 f i CheckDoc.obj
 0001:0000ed00       ??0<lambda2>@?A0xa417b150@@QAE@ABV01@@Z 0040fd00 f i DlgFindAll.obj
 0001:0000ed00       ??0<lambda3>@?A0x13b243aa@@QAE@ABV01@@Z 0040fd00 f i CheckDoc.obj
 0001:0000ed00       ??0?$cons@V?$basic_string@_WU?$char_traits@_W@std@@V?$allocator@_W@2@@std@@Unull_type@tuples@boost@@@tuples@boost@@QAE@ABU012@@Z 0040fd00 f i DlgFindAll.obj
 0001:0000ed00       ??0<lambda3>@?A0x13b243aa@@QAE@ABV?$basic_string@_WU?$char_traits@_W@std@@V?$allocator@_W@2@@std@@@Z 0040fd00 f i CheckDoc.obj
 0001:0000ed00       ??0<lambda3>@?A0xfa0d1c7f@@QAE@ABV?$basic_string@_WU?$char_traits@_W@std@@V?$allocator@_W@2@@std@@@Z 0040fd00 f i DlgSelectGood.obj
 0001:0000ed00       ??0<lambda4>@?A0x13b243aa@@QAE@ABV01@@Z 0040fd00 f i CheckDoc.obj
 0001:0000ed00       ??0<lambda6>@?A0xfa0d1c7f@@QAE@ABV?$basic_string@_WU?$char_traits@_W@std@@V?$allocator@_W@2@@std@@@Z 0040fd00 f i DlgSelectGood.obj
 0001:0000ed00       ??0<lambda3>@?A0xfa0d1c7f@@QAE@ABV01@@Z 0040fd00 f i DlgSelectGood.obj
 0001:0000ed00       ??0<lambda4>@?A0x13b243aa@@QAE@ABV?$basic_string@_WU?$char_traits@_W@std@@V?$allocator@_W@2@@std@@@Z 0040fd00 f i CheckDoc.obj
 0001:0000ed00       ??0<lambda2>@?A0xede8a68f@@QAE@ABV?$basic_string@_WU?$char_traits@_W@std@@V?$allocator@_W@2@@std@@@Z 0040fd00 f i DlgInsert.obj
 0001:0000ed00       ??0<lambda6>@?A0xfa0d1c7f@@QAE@ABV01@@Z 0040fd00 f i DlgSelectGood.obj
 0001:0000ed00       ??0<lambda2>@?A0xede8a68f@@QAE@ABV01@@Z 0040fd00 f i DlgInsert.obj
 0001:0000ed00       ??0<lambda2>@?A0xa417b150@@QAE@ABV?$basic_string@_WU?$char_traits@_W@std@@V?$allocator@_W@2@@std@@@Z 0040fd00 f i DlgFindAll.obj
 0001:0000ed00       ??0<lambda5>@?A0x13b243aa@@QAE@ABV?$basic_string@_WU?$char_traits@_W@std@@V?$allocator@_W@2@@std@@@Z 0040fd00 f i CheckDoc.obj
 0001:0000ed20       ??0?$list@USalesItemLine@CCheckDoc@@V?$allocator@USalesItemLine@CCheckDoc@@@std@@@std@@QAE@XZ 0040fd20 f i CheckDoc.obj
 0001:0000ed50       ??1?$list@USalesItemLine@CCheckDoc@@V?$allocator@USalesItemLine@CCheckDoc@@@std@@@std@@QAE@XZ 0040fd50 f i CheckDoc.obj
 0001:0000edb0       ?begin@?$list@USalesItemLine@CCheckDoc@@V?$allocator@USalesItemLine@CCheckDoc@@@std@@@std@@QAE?AV?$_List_iterator@V?$_List_val@USalesItemLine@CCheckDoc@@V?$allocator@USalesItemLine@CCheckDoc@@@std@@@std@@@2@XZ 0040fdb0 f i CheckDoc.obj
 0001:0000ede0       ?end@?$list@USalesItemLine@CCheckDoc@@V?$allocator@USalesItemLine@CCheckDoc@@@std@@@std@@QAE?AV?$_List_iterator@V?$_List_val@USalesItemLine@CCheckDoc@@V?$allocator@USalesItemLine@CCheckDoc@@@std@@@std@@@2@XZ 0040fde0 f i CheckDoc.obj
 0001:0000ee10       ?cbegin@?$list@USalesItemLine@CCheckDoc@@V?$allocator@USalesItemLine@CCheckDoc@@@std@@@std@@QBE?AV?$_List_const_iterator@V?$_List_val@USalesItemLine@CCheckDoc@@V?$allocator@USalesItemLine@CCheckDoc@@@std@@@std@@@2@XZ 0040fe10 f i CheckDoc.obj
 0001:0000ee30       ?cend@?$list@USalesItemLine@CCheckDoc@@V?$allocator@USalesItemLine@CCheckDoc@@@std@@@std@@QBE?AV?$_List_const_iterator@V?$_List_val@USalesItemLine@CCheckDoc@@V?$allocator@USalesItemLine@CCheckDoc@@@std@@@std@@@2@XZ 0040fe30 f i CheckDoc.obj
 0001:0000ee50       ?push_back@?$list@USalesItemLine@CCheckDoc@@V?$allocator@USalesItemLine@CCheckDoc@@@std@@@std@@QAEXABUSalesItemLine@CCheckDoc@@@Z 0040fe50 f i CheckDoc.obj
 0001:0000ee80       ?clear@?$list@USalesItemLine@CCheckDoc@@V?$allocator@USalesItemLine@CCheckDoc@@@std@@@std@@QAEXXZ 0040fe80 f i CheckDoc.obj
 0001:0000ef20       ?RedrawWindow@CWnd@@QAEHPBUtagRECT@@PAVCRgn@@I@Z 0040ff20 f i CheckDoc.obj
 0001:0000ef50       ??0?$_com_ptr_t@V?$_com_IIID@UIMSMQQueueInfos@MSMQ@@$1?_GUID_d7d6e07d_dccd_11d0_aa4b_0060970debae@@3U__s_GUID@@B@@@@QAE@PAUIMSMQQueueInfos@MSMQ@@_N@Z 0040ff50 f i MainDocument.obj
 0001:0000ef50       ??0?$_com_ptr_t@V?$_com_IIID@UIField@DOC@@$1?_GUID_3c9bf0b5_52b5_4a0b_9bf1_55828b2fdee4@@3U__s_GUID@@B@@@@QAE@PAUIField@DOC@@_N@Z 0040ff50 f i CheckDoc.obj
 0001:0000ef50       ??0?$_com_ptr_t@V?$_com_IIID@UField@@$1?_GUID_00000569_0000_0010_8000_00aa006d2ea4@@3U__s_GUID@@B@@@@QAE@PAUField@@_N@Z 0040ff50 f i CheckDoc.obj
 0001:0000ef50       ??0?$_com_ptr_t@V?$_com_IIID@U_Recordset@@$1?_GUID_00000556_0000_0010_8000_00aa006d2ea4@@3U__s_GUID@@B@@@@QAE@PAU_Recordset@@_N@Z 0040ff50 f i CheckDoc.obj
 0001:0000ef50       ??0?$_com_ptr_t@V?$_com_IIID@UErrors@@$1?_GUID_00000501_0000_0010_8000_00aa006d2ea4@@3U__s_GUID@@B@@@@QAE@PAUErrors@@_N@Z 0040ff50 f i InfoConsole.obj
 0001:0000ef50       ??0?$_com_ptr_t@V?$_com_IIID@UParameters@@$1?_GUID_0000050d_0000_0010_8000_00aa006d2ea4@@3U__s_GUID@@B@@@@QAE@PAUParameters@@_N@Z 0040ff50 f i ReturnDoc.obj
 0001:0000ef50       ??0?$_com_ptr_t@V?$_com_IIID@UError@@$1?_GUID_00000500_0000_0010_8000_00aa006d2ea4@@3U__s_GUID@@B@@@@QAE@PAUError@@_N@Z 0040ff50 f i InfoConsole.obj
 0001:0000ef50       ??0?$_com_ptr_t@V?$_com_IIID@UFields@@$1?_GUID_00000564_0000_0010_8000_00aa006d2ea4@@3U__s_GUID@@B@@@@QAE@PAUFields@@_N@Z 0040ff50 f i CheckDoc.obj
 0001:0000ef50       ??0?$_com_ptr_t@V?$_com_IIID@U_Parameter@@$1?_GUID_0000050c_0000_0010_8000_00aa006d2ea4@@3U__s_GUID@@B@@@@QAE@PAU_Parameter@@_N@Z 0040ff50 f i ReturnDoc.obj
 0001:0000ef50       ??0?$_com_ptr_t@V?$_com_IIID@UIRow@DOC@@$1?_GUID_7969f54c_4ea5_4917_b576_3b26d9ed819c@@3U__s_GUID@@B@@@@QAE@PAUIRow@DOC@@_N@Z 0040ff50 f i CheckDoc.obj
 0001:0000ef50       ??0?$_com_ptr_t@V?$_com_IIID@UIMSMQQueueInfo@MSMQ@@$1?_GUID_d7d6e07b_dccd_11d0_aa4b_0060970debae@@3U__s_GUID@@B@@@@QAE@PAUIMSMQQueueInfo@MSMQ@@_N@Z 0040ff50 f i MainDocument.obj
 0001:0000ef50       ??0?$_com_ptr_t@V?$_com_IIID@UIMSMQQueue@MSMQ@@$1?_GUID_d7d6e076_dccd_11d0_aa4b_0060970debae@@3U__s_GUID@@B@@@@QAE@PAUIMSMQQueue@MSMQ@@_N@Z 0040ff50 f i MainDocument.obj
 0001:0000ef80       ??4?$CComPtr@UIDocOneC@DOC@@@ATL@@QAEPAUIDocOneC@DOC@@PAU23@@Z 0040ff80 f i CheckDoc.obj
 0001:0000efc0       ?AtlComPtrAssign@ATL@@YGPAUIUnknown@@PAPAU2@PAU2@@Z 0040ffc0 f i CheckDoc.obj
 0001:0000f010       ??8?$CComPtrBase@UIDocOneC@DOC@@@ATL@@QBE_NPAUIDocOneC@DOC@@@Z 00410010 f i CheckDoc.obj
 0001:0000f030       ?CopyTo@?$CComPtrBase@UIDocOneC@DOC@@@ATL@@QAEJPAPAUIDocOneC@DOC@@@Z 00410030 f i CheckDoc.obj
 0001:0000f070       ?CoCreateInstance@?$CComPtrBase@UIDocOneC@DOC@@@ATL@@QAEJPB_WPAUIUnknown@@K@Z 00410070 f i CheckDoc.obj
 0001:0000f0d0       ??0?$CComQIPtr@UIHead@DOC@@$1?_GUID_f367c9d1_91c2_464f_b146_96ba0d78846f@@3U__s_GUID@@B@ATL@@QAE@PAUIUnknown@@@Z 004100d0 f i CheckDoc.obj
 0001:0000f110       ??0?$CComQIPtr@UITable@DOC@@$1?_GUID_976187a7_bd77_4972_b6c3_1f5dd4da1ab1@@3U__s_GUID@@B@ATL@@QAE@PAUIUnknown@@@Z 00410110 f i CheckDoc.obj
 0001:0000f150       ??0?$CComQIPtr@UIValue@DOC@@$1?_GUID_7a6c2ad3_a46f_4cc4_8a8e_8860e038c139@@3U__s_GUID@@B@ATL@@QAE@PAUIUnknown@@@Z 00410150 f i CheckDoc.obj
 0001:0000f190       ??1?$vector@DV?$allocator@D@std@@@std@@QAE@XZ 00410190 f i CheckDoc.obj
 0001:0000f1f0       ??C?$_List_iterator@V?$_List_val@USalesItemLine@CCheckDoc@@V?$allocator@USalesItemLine@CCheckDoc@@@std@@@std@@@std@@QBEPAUSalesItemLine@CCheckDoc@@XZ 004101f0 f i CheckDoc.obj
 0001:0000f210       ?FindByCode@?$Reference@UTypePrice@@V?$SQLSearchStrategy@UTypePrice@@V?$RefCreator@UTypePrice@@$00@@@@@@QAEHV?$basic_string@_WU?$char_traits@_W@std@@V?$allocator@_W@2@@std@@@Z 00410210 f i CheckDoc.obj
 0001:0000f310       ??0RefItemError@?$RefItemT@UVariantType@@V?$RefItemTraits@UVariantType@@@@@@QAE@ABV01@@Z 00410310 f i CheckDoc.obj
 0001:0000f350       ??_E?$basic_stringstream@_WU?$char_traits@_W@std@@V?$allocator@_W@2@@std@@UAEPAXI@Z 00410350 f i CheckDoc.obj
 0001:0000f350       ??_G?$basic_stringstream@_WU?$char_traits@_W@std@@V?$allocator@_W@2@@std@@UAEPAXI@Z 00410350 f i CheckDoc.obj
 0001:0000f390       ??_E?$basic_stringbuf@_WU?$char_traits@_W@std@@V?$allocator@_W@2@@std@@UAEPAXI@Z 00410390 f i CheckDoc.obj
 0001:0000f390       ??_G?$basic_stringbuf@_WU?$char_traits@_W@std@@V?$allocator@_W@2@@std@@UAEPAXI@Z 00410390 f i CheckDoc.obj
 0001:0000f3c0       ??0?$tuple@V?$basic_string@_WU?$char_traits@_W@std@@V?$allocator@_W@2@@std@@V12@_NV12@V?$shared_ptr@VRefItemV@@@boost@@Unull_type@tuples@4@U564@U564@U564@U564@@tuples@boost@@QAE@ABV012@@Z 004103c0 f i CheckDoc.obj
 0001:0000f3e0       ??1?$tuple@V?$basic_string@_WU?$char_traits@_W@std@@V?$allocator@_W@2@@std@@V12@_NV12@V?$shared_ptr@VRefItemV@@@boost@@Unull_type@tuples@4@U564@U564@U564@U564@@tuples@boost@@QAE@XZ 004103e0 f i CheckDoc.obj
 0001:0000f400       ??0?$tuple@V?$basic_string@_WU?$char_traits@_W@std@@V?$allocator@_W@2@@std@@V12@V12@V?$shared_ptr@VRefItemV@@@boost@@Unull_type@tuples@4@U564@U564@U564@U564@U564@@tuples@boost@@QAE@ABV012@@Z 00410400 f i CheckDoc.obj
 0001:0000f420       ??1?$tuple@V?$basic_string@_WU?$char_traits@_W@std@@V?$allocator@_W@2@@std@@V12@V12@V?$shared_ptr@VRefItemV@@@boost@@Unull_type@tuples@4@U564@U564@U564@U564@U564@@tuples@boost@@QAE@XZ 00410420 f i CheckDoc.obj
 0001:0000f440       ??1?$Reference@UTypePrice@@V?$SQLSearchStrategy@UTypePrice@@V?$RefCreator@UTypePrice@@$00@@@@@@QAE@XZ 00410440 f i Repository.obj
 0001:0000f440       ??1?$Reference@UPrices@@V?$SQLSearchStrategy@UPrices@@V?$RefCreator@UPrices@@$00@@@@@@QAE@XZ 00410440 f i CheckDoc.obj
 0001:0000f440       ??1?$Reference@UProducts@@V?$SQLSearchStrategy@UProducts@@V?$RefCreator@UProducts@@$00@@@@@@QAE@XZ 00410440 f i CheckDoc.obj
 0001:0000f440       ??1?$Reference@UContragents@@V?$SQLSearchStrategy@UContragents@@V?$RefCreator@UContragents@@$00@@@@@@QAE@XZ 00410440 f i Repository.obj
 0001:0000f440       ??1?$Reference@UEmployees@@V?$SQLSearchStrategy@UEmployees@@V?$RefCreator@UEmployees@@$00@@@@@@QAE@XZ 00410440 f i Repository.obj
 0001:0000f440       ??1?$Reference@UUnits@@V?$SQLSearchStrategy@UUnits@@V?$RefCreator@UUnits@@$00@@@@@@QAE@XZ 00410440 f i CheckDoc.obj
 0001:0000f440       ??1?$Reference@UPoints@@V?$SQLSearchStrategy@UPoints@@V?$RefCreator@UPoints@@$00@@@@@@QAE@XZ 00410440 f i Repository.obj
 0001:0000f4b0       ??_GSQLSearchStrategyError@?$SQLSearchStrategy@UEmployees@@V?$RefCreator@UEmployees@@$00@@@@UAEPAXI@Z 004104b0 f i DlgLogin.obj
 0001:0000f4b0       ??_GRefItemError@?$RefItemT@UVariantType@@V?$RefItemTraits@UVariantType@@@@@@UAEPAXI@Z 004104b0 f i CheckDoc.obj
 0001:0000f4b0       ??_ECTableValueError@CTableValue@@UAEPAXI@Z 004104b0 f i TableValue1.obj
 0001:0000f4b0       ??_GDbContextError@DbContext@@UAEPAXI@Z 004104b0 f i CheckDoc.obj
 0001:0000f4b0       ??_ESQLSearchStrategyError@?$SQLSearchStrategy@UEmployees@@V?$RefCreator@UEmployees@@$00@@@@UAEPAXI@Z 004104b0 f i DlgLogin.obj
 0001:0000f4b0       ??_GCTableValueError@CTableValue@@UAEPAXI@Z 004104b0 f i TableValue1.obj
 0001:0000f4b0       ??_EDbContextError@DbContext@@UAEPAXI@Z 004104b0 f i CheckDoc.obj
 0001:0000f4b0       ??_ERefItemError@?$RefItemT@UVariantType@@V?$RefItemTraits@UVariantType@@@@@@UAEPAXI@Z 004104b0 f i CheckDoc.obj
 0001:0000f4e0       ??1?$SQLSearchStrategy@UUnits@@V?$RefCreator@UUnits@@$00@@@@QAE@XZ 004104e0 f i CheckDoc.obj
 0001:0000f4e0       ??1?$SQLSearchStrategy@UProducts@@V?$RefCreator@UProducts@@$00@@@@QAE@XZ 004104e0 f i CheckDoc.obj
 0001:0000f4e0       ??1?$SQLSearchStrategy@UPrices@@V?$RefCreator@UPrices@@$00@@@@QAE@XZ 004104e0 f i CheckDoc.obj
 0001:0000f4e0       ??1?$SQLSearchStrategy@UPoints@@V?$RefCreator@UPoints@@$00@@@@QAE@XZ 004104e0 f i Repository.obj
 0001:0000f4e0       ??1?$SQLSearchStrategy@UEmployees@@V?$RefCreator@UEmployees@@$00@@@@QAE@XZ 004104e0 f i Repository.obj
 0001:0000f4e0       ??1?$SQLSearchStrategy@UContragents@@V?$RefCreator@UContragents@@$00@@@@QAE@XZ 004104e0 f i Repository.obj
 0001:0000f4e0       ??1?$SQLSearchStrategy@UTypePrice@@V?$RefCreator@UTypePrice@@$00@@@@QAE@XZ 004104e0 f i Repository.obj
 0001:0000f550       ??0?$cons@V?$basic_string@_WU?$char_traits@_W@std@@V?$allocator@_W@2@@std@@U?$cons@V?$basic_string@_WU?$char_traits@_W@std@@V?$allocator@_W@2@@std@@U?$cons@_NU?$cons@V?$basic_string@_WU?$char_traits@_W@std@@V?$allocator@_W@2@@std@@U?$cons@V?$shared_ptr@VRefItemV@@@boost@@Unull_type@tuples@2@@tuples@boost@@@tuples@boost@@@tuples@boost@@@tuples@boost@@@tuples@boost@@QAE@ABU012@@Z 00410550 f i CheckDoc.obj
 0001:0000f5c0       ??1?$cons@V?$basic_string@_WU?$char_traits@_W@std@@V?$allocator@_W@2@@std@@U?$cons@V?$basic_string@_WU?$char_traits@_W@std@@V?$allocator@_W@2@@std@@U?$cons@_NU?$cons@V?$basic_string@_WU?$char_traits@_W@std@@V?$allocator@_W@2@@std@@U?$cons@V?$shared_ptr@VRefItemV@@@boost@@Unull_type@tuples@2@@tuples@boost@@@tuples@boost@@@tuples@boost@@@tuples@boost@@@tuples@boost@@QAE@XZ 004105c0 f i CheckDoc.obj
 0001:0000f620       ??1?$DataHolder@UContragents@@$00@@QAE@XZ 00410620 f i Repository.obj
 0001:0000f620       ??1?$DataHolder@UPrices@@$00@@QAE@XZ 00410620 f i CheckDoc.obj
 0001:0000f620       ??1?$DataHolder@UUnits@@$00@@QAE@XZ 00410620 f i CheckDoc.obj
 0001:0000f620       ??1?$DataHolder@UTypePrice@@$00@@QAE@XZ 00410620 f i Repository.obj
 0001:0000f620       ??1?$DataHolder@UEmployees@@$00@@QAE@XZ 00410620 f i Repository.obj
 0001:0000f620       ??1?$DataHolder@UProducts@@$00@@QAE@XZ 00410620 f i CheckDoc.obj
 0001:0000f620       ??1?$DataHolder@UPoints@@$00@@QAE@XZ 00410620 f i Repository.obj
 0001:0000f640       ??0?$cons@V?$basic_string@_WU?$char_traits@_W@std@@V?$allocator@_W@2@@std@@U?$cons@V?$basic_string@_WU?$char_traits@_W@std@@V?$allocator@_W@2@@std@@U?$cons@V?$basic_string@_WU?$char_traits@_W@std@@V?$allocator@_W@2@@std@@U?$cons@V?$shared_ptr@VRefItemV@@@boost@@Unull_type@tuples@2@@tuples@boost@@@tuples@boost@@@tuples@boost@@@tuples@boost@@QAE@ABU012@@Z 00410640 f i CheckDoc.obj
 0001:0000f6b0       ??1?$cons@V?$basic_string@_WU?$char_traits@_W@std@@V?$allocator@_W@2@@std@@U?$cons@V?$basic_string@_WU?$char_traits@_W@std@@V?$allocator@_W@2@@std@@U?$cons@V?$basic_string@_WU?$char_traits@_W@std@@V?$allocator@_W@2@@std@@U?$cons@V?$shared_ptr@VRefItemV@@@boost@@Unull_type@tuples@2@@tuples@boost@@@tuples@boost@@@tuples@boost@@@tuples@boost@@QAE@XZ 004106b0 f i CheckDoc.obj
 0001:0000f710       ??0?$cons@V?$basic_string@_WU?$char_traits@_W@std@@V?$allocator@_W@2@@std@@U?$cons@_NU?$cons@V?$basic_string@_WU?$char_traits@_W@std@@V?$allocator@_W@2@@std@@U?$cons@V?$shared_ptr@VRefItemV@@@boost@@Unull_type@tuples@2@@tuples@boost@@@tuples@boost@@@tuples@boost@@@tuples@boost@@QAE@ABU012@@Z 00410710 f i CheckDoc.obj
 0001:0000f780       ??1?$cons@V?$basic_string@_WU?$char_traits@_W@std@@V?$allocator@_W@2@@std@@U?$cons@_NU?$cons@V?$basic_string@_WU?$char_traits@_W@std@@V?$allocator@_W@2@@std@@U?$cons@V?$shared_ptr@VRefItemV@@@boost@@Unull_type@tuples@2@@tuples@boost@@@tuples@boost@@@tuples@boost@@@tuples@boost@@QAE@XZ 00410780 f i CheckDoc.obj
 0001:0000f7e0       ??0?$cons@V?$basic_string@_WU?$char_traits@_W@std@@V?$allocator@_W@2@@std@@U?$cons@V?$basic_string@_WU?$char_traits@_W@std@@V?$allocator@_W@2@@std@@U?$cons@V?$shared_ptr@VRefItemV@@@boost@@Unull_type@tuples@2@@tuples@boost@@@tuples@boost@@@tuples@boost@@QAE@ABU012@@Z 004107e0 f i CheckDoc.obj
 0001:0000f850       ??1?$cons@V?$basic_string@_WU?$char_traits@_W@std@@V?$allocator@_W@2@@std@@U?$cons@V?$basic_string@_WU?$char_traits@_W@std@@V?$allocator@_W@2@@std@@U?$cons@V?$shared_ptr@VRefItemV@@@boost@@Unull_type@tuples@2@@tuples@boost@@@tuples@boost@@@tuples@boost@@QAE@XZ 00410850 f i CheckDoc.obj
 0001:0000f8b0       ??1?$map@V?$basic_string@_WU?$char_traits@_W@std@@V?$allocator@_W@2@@std@@V12@U?$less@V?$basic_string@_WU?$char_traits@_W@std@@V?$allocator@_W@2@@std@@@2@V?$allocator@U?$pair@$$CBV?$basic_string@_WU?$char_traits@_W@std@@V?$allocator@_W@2@@std@@V12@@std@@@2@@std@@QAE@XZ 004108b0 f i CheckDoc.obj
 0001:0000f8d0       ??0?$cons@_NU?$cons@V?$basic_string@_WU?$char_traits@_W@std@@V?$allocator@_W@2@@std@@U?$cons@V?$shared_ptr@VRefItemV@@@boost@@Unull_type@tuples@2@@tuples@boost@@@tuples@boost@@@tuples@boost@@QAE@ABU012@@Z 004108d0 f i CheckDoc.obj
 0001:0000f900       ??1?$cons@_NU?$cons@V?$basic_string@_WU?$char_traits@_W@std@@V?$allocator@_W@2@@std@@U?$cons@V?$shared_ptr@VRefItemV@@@boost@@Unull_type@tuples@2@@tuples@boost@@@tuples@boost@@@tuples@boost@@QAE@XZ 00410900 f i CheckDoc.obj
 0001:0000f920       ??0?$cons@V?$basic_string@_WU?$char_traits@_W@std@@V?$allocator@_W@2@@std@@U?$cons@V?$shared_ptr@VRefItemV@@@boost@@Unull_type@tuples@2@@tuples@boost@@@tuples@boost@@QAE@ABU012@@Z 00410920 f i CheckDoc.obj
 0001:0000f990       ??1?$cons@V?$basic_string@_WU?$char_traits@_W@std@@V?$allocator@_W@2@@std@@U?$cons@V?$shared_ptr@VRefItemV@@@boost@@Unull_type@tuples@2@@tuples@boost@@@tuples@boost@@QAE@XZ 00410990 f i CheckDoc.obj
 0001:0000f9f0       ??0?$cons@V?$shared_ptr@VRefItemV@@@boost@@Unull_type@tuples@2@@tuples@boost@@QAE@ABU012@@Z 004109f0 f i CheckDoc.obj
 0001:0000fa10       ??1?$cons@V?$shared_ptr@VRefItemV@@@boost@@Unull_type@tuples@2@@tuples@boost@@QAE@XZ 00410a10 f i CheckDoc.obj
 0001:0000fa30       ??Y?$basic_string@DU?$char_traits@D@std@@V?$allocator@D@2@@std@@QAEAAV01@PBD@Z 00410a30 f i CheckDoc.obj
 0001:0000fa50       ?find@?$_Tree@V?$_Tmap_traits@$$CBV?$basic_string@_WU?$char_traits@_W@std@@V?$allocator@_W@2@@std@@V_variant_t@@U?$less@$$CBV?$basic_string@_WU?$char_traits@_W@std@@V?$allocator@_W@2@@std@@@2@V?$allocator@U?$pair@$$CBV?$basic_string@_WU?$char_traits@_W@std@@V?$allocator@_W@2@@std@@V_variant_t@@@std@@@2@$0A@@std@@@std@@QAE?AV?$_Tree_iterator@V?$_Tree_val@V?$_Tmap_traits@$$CBV?$basic_string@_WU?$char_traits@_W@std@@V?$allocator@_W@2@@std@@V_variant_t@@U?$less@$$CBV?$basic_string@_WU?$char_traits@_W@std@@V?$allocator@_W@2@@std@@@2@V?$allocator@U?$pair@$$CBV?$basic_string@_WU?$char_traits@_W@std@@V?$allocator@_W@2@@std@@V_variant_t@@@std@@@2@$0A@@std@@@std@@@2@ABV?$basic_string@_WU?$char_traits@_W@std@@V?$allocator@_W@2@@2@@Z 00410a50 f i CheckDoc.obj
 0001:0000fae0       ??1?$_Tree@V?$_Tmap_traits@V?$basic_string@_WU?$char_traits@_W@std@@V?$allocator@_W@2@@std@@V12@U?$less@V?$basic_string@_WU?$char_traits@_W@std@@V?$allocator@_W@2@@std@@@2@V?$allocator@U?$pair@$$CBV?$basic_string@_WU?$char_traits@_W@std@@V?$allocator@_W@2@@std@@V12@@std@@@2@$0A@@std@@@std@@QAE@XZ 00410ae0 f i CheckDoc.obj
 0001:0000fb40       ??1?$vector@V?$shared_ptr@VRefItemV@@@boost@@V?$allocator@V?$shared_ptr@VRefItemV@@@boost@@@std@@@std@@QAE@XZ 00410b40 f i CheckDoc.obj
 0001:0000fba0       ??4?$vector@V?$shared_ptr@VRefItemV@@@boost@@V?$allocator@V?$shared_ptr@VRefItemV@@@boost@@@std@@@std@@QAEAAV01@ABV01@@Z 00410ba0 f i CheckDoc.obj
 0001:0000fd20       ?size@?$vector@V?$shared_ptr@VRefItemV@@@boost@@V?$allocator@V?$shared_ptr@VRefItemV@@@boost@@@std@@@std@@QBEIXZ 00410d20 f i CheckDoc.obj
 0001:0000fd40       ??1?$vector@V?$tuple@V?$basic_string@_WU?$char_traits@_W@std@@V?$allocator@_W@2@@std@@V12@V12@V?$shared_ptr@VRefItemV@@@boost@@Unull_type@tuples@4@U564@U564@U564@U564@U564@@tuples@boost@@V?$allocator@V?$tuple@V?$basic_string@_WU?$char_traits@_W@std@@V?$allocator@_W@2@@std@@V12@V12@V?$shared_ptr@VRefItemV@@@boost@@Unull_type@tuples@4@U564@U564@U564@U564@U564@@tuples@boost@@@std@@@std@@QAE@XZ 00410d40 f i CheckDoc.obj
 0001:0000fda0       ??4?$vector@V?$tuple@V?$basic_string@_WU?$char_traits@_W@std@@V?$allocator@_W@2@@std@@V12@V12@V?$shared_ptr@VRefItemV@@@boost@@Unull_type@tuples@4@U564@U564@U564@U564@U564@@tuples@boost@@V?$allocator@V?$tuple@V?$basic_string@_WU?$char_traits@_W@std@@V?$allocator@_W@2@@std@@V12@V12@V?$shared_ptr@VRefItemV@@@boost@@Unull_type@tuples@4@U564@U564@U564@U564@U564@@tuples@boost@@@std@@@std@@QAEAAV01@ABV01@@Z 00410da0 f i CheckDoc.obj
 0001:0000ff30       ?cbegin@?$vector@V?$tuple@V?$basic_string@_WU?$char_traits@_W@std@@V?$allocator@_W@2@@std@@V12@V12@V?$shared_ptr@VRefItemV@@@boost@@Unull_type@tuples@4@U564@U564@U564@U564@U564@@tuples@boost@@V?$allocator@V?$tuple@V?$basic_string@_WU?$char_traits@_W@std@@V?$allocator@_W@2@@std@@V12@V12@V?$shared_ptr@VRefItemV@@@boost@@Unull_type@tuples@4@U564@U564@U564@U564@U564@@tuples@boost@@@std@@@std@@QBE?AV?$_Vector_const_iterator@V?$_Vector_val@V?$tuple@V?$basic_string@_WU?$char_traits@_W@std@@V?$allocator@_W@2@@std@@V12@V12@V?$shared_ptr@VRefItemV@@@boost@@Unull_type@tuples@4@U564@U564@U564@U564@U564@@tuples@boost@@V?$allocator@V?$tuple@V?$basic_string@_WU?$char_traits@_W@std@@V?$allocator@_W@2@@std@@V12@V12@V?$shared_ptr@VRefItemV@@@boost@@Unull_type@tuples@4@U564@U564@U564@U564@U564@@tuples@boost@@@std@@@std@@@2@XZ 00410f30 f i CheckDoc.obj
 0001:0000ff30       ?cbegin@?$vector@V?$tuple@V?$basic_string@_WU?$char_traits@_W@std@@V?$allocator@_W@2@@std@@V12@_NV12@V?$shared_ptr@VRefItemV@@@boost@@Unull_type@tuples@4@U564@U564@U564@U564@@tuples@boost@@V?$allocator@V?$tuple@V?$basic_string@_WU?$char_traits@_W@std@@V?$allocator@_W@2@@std@@V12@_NV12@V?$shared_ptr@VRefItemV@@@boost@@Unull_type@tuples@4@U564@U564@U564@U564@@tuples@boost@@@std@@@std@@QBE?AV?$_Vector_const_iterator@V?$_Vector_val@V?$tuple@V?$basic_string@_WU?$char_traits@_W@std@@V?$allocator@_W@2@@std@@V12@_NV12@V?$shared_ptr@VRefItemV@@@boost@@Unull_type@tuples@4@U564@U564@U564@U564@@tuples@boost@@V?$allocator@V?$tuple@V?$basic_string@_WU?$char_traits@_W@std@@V?$allocator@_W@2@@std@@V12@_NV12@V?$shared_ptr@VRefItemV@@@boost@@Unull_type@tuples@4@U564@U564@U564@U564@@tuples@boost@@@std@@@std@@@2@XZ 00410f30 f i CheckDoc.obj
 0001:0000ff50       ?cend@?$vector@V?$tuple@V?$basic_string@_WU?$char_traits@_W@std@@V?$allocator@_W@2@@std@@V12@V12@V?$shared_ptr@VRefItemV@@@boost@@Unull_type@tuples@4@U564@U564@U564@U564@U564@@tuples@boost@@V?$allocator@V?$tuple@V?$basic_string@_WU?$char_traits@_W@std@@V?$allocator@_W@2@@std@@V12@V12@V?$shared_ptr@VRefItemV@@@boost@@Unull_type@tuples@4@U564@U564@U564@U564@U564@@tuples@boost@@@std@@@std@@QBE?AV?$_Vector_const_iterator@V?$_Vector_val@V?$tuple@V?$basic_string@_WU?$char_traits@_W@std@@V?$allocator@_W@2@@std@@V12@V12@V?$shared_ptr@VRefItemV@@@boost@@Unull_type@tuples@4@U564@U564@U564@U564@U564@@tuples@boost@@V?$allocator@V?$tuple@V?$basic_string@_WU?$char_traits@_W@std@@V?$allocator@_W@2@@std@@V12@V12@V?$shared_ptr@VRefItemV@@@boost@@Unull_type@tuples@4@U564@U564@U564@U564@U564@@tuples@boost@@@std@@@std@@@2@XZ 00410f50 f i CheckDoc.obj
 0001:0000ff50       ?cend@?$vector@V?$tuple@V?$basic_string@_WU?$char_traits@_W@std@@V?$allocator@_W@2@@std@@V12@_NV12@V?$shared_ptr@VRefItemV@@@boost@@Unull_type@tuples@4@U564@U564@U564@U564@@tuples@boost@@V?$allocator@V?$tuple@V?$basic_string@_WU?$char_traits@_W@std@@V?$allocator@_W@2@@std@@V12@_NV12@V?$shared_ptr@VRefItemV@@@boost@@Unull_type@tuples@4@U564@U564@U564@U564@@tuples@boost@@@std@@@std@@QBE?AV?$_Vector_const_iterator@V?$_Vector_val@V?$tuple@V?$basic_string@_WU?$char_traits@_W@std@@V?$allocator@_W@2@@std@@V12@_NV12@V?$shared_ptr@VRefItemV@@@boost@@Unull_type@tuples@4@U564@U564@U564@U564@@tuples@boost@@V?$allocator@V?$tuple@V?$basic_string@_WU?$char_traits@_W@std@@V?$allocator@_W@2@@std@@V12@_NV12@V?$shared_ptr@VRefItemV@@@boost@@Unull_type@tuples@4@U564@U564@U564@U564@@tuples@boost@@@std@@@std@@@2@XZ 00410f50 f i CheckDoc.obj
 0001:0000ff70       ??1?$vector@V?$tuple@V?$basic_string@_WU?$char_traits@_W@std@@V?$allocator@_W@2@@std@@V12@_NV12@V?$shared_ptr@VRefItemV@@@boost@@Unull_type@tuples@4@U564@U564@U564@U564@@tuples@boost@@V?$allocator@V?$tuple@V?$basic_string@_WU?$char_traits@_W@std@@V?$allocator@_W@2@@std@@V12@_NV12@V?$shared_ptr@VRefItemV@@@boost@@Unull_type@tuples@4@U564@U564@U564@U564@@tuples@boost@@@std@@@std@@QAE@XZ 00410f70 f i CheckDoc.obj
 0001:0000ffd0       ??4?$vector@V?$tuple@V?$basic_string@_WU?$char_traits@_W@std@@V?$allocator@_W@2@@std@@V12@_NV12@V?$shared_ptr@VRefItemV@@@boost@@Unull_type@tuples@4@U564@U564@U564@U564@@tuples@boost@@V?$allocator@V?$tuple@V?$basic_string@_WU?$char_traits@_W@std@@V?$allocator@_W@2@@std@@V12@_NV12@V?$shared_ptr@VRefItemV@@@boost@@Unull_type@tuples@4@U564@U564@U564@U564@@tuples@boost@@@std@@@std@@QAEAAV01@ABV01@@Z 00410fd0 f i CheckDoc.obj
 0001:00010160       ??9?$_Vector_const_iterator@V?$_Vector_val@V?$tuple@V?$basic_string@_WU?$char_traits@_W@std@@V?$allocator@_W@2@@std@@V12@V12@V12@Unull_type@tuples@boost@@U345@U345@U345@U345@U345@@tuples@boost@@V?$allocator@V?$tuple@V?$basic_string@_WU?$char_traits@_W@std@@V?$allocator@_W@2@@std@@V12@V12@V12@Unull_type@tuples@boost@@U345@U345@U345@U345@U345@@tuples@boost@@@std@@@std@@@std@@QBE_NABV01@@Z 00411160 f i DlgInsert.obj
 0001:00010160       ??9?$_String_const_iterator@_WU?$char_traits@_W@std@@V?$allocator@_W@2@@std@@QBE_NABV01@@Z 00411160 f i CheckDoc.obj
 0001:00010160       ??9?$_Vector_const_iterator@V?$_Vector_val@DV?$allocator@D@std@@@std@@@std@@QBE_NABV01@@Z 00411160 f i DlgSetQuantity.obj
 0001:00010160       ??9?$_Vector_const_iterator@V?$_Vector_val@V?$tuple@V?$basic_string@_WU?$char_traits@_W@std@@V?$allocator@_W@2@@std@@V12@V12@Unull_type@tuples@boost@@U345@U345@U345@U345@U345@U345@@tuples@boost@@V?$allocator@V?$tuple@V?$basic_string@_WU?$char_traits@_W@std@@V?$allocator@_W@2@@std@@V12@V12@Unull_type@tuples@boost@@U345@U345@U345@U345@U345@U345@@tuples@boost@@@std@@@std@@@std@@QBE_NABV01@@Z 00411160 f i DlgFindAll.obj
 0001:00010160       ??9?$_Vector_const_iterator@V?$_Vector_val@V?$tuple@V?$basic_string@_WU?$char_traits@_W@std@@V?$allocator@_W@2@@std@@V12@_NV12@V?$shared_ptr@VRefItemV@@@boost@@Unull_type@tuples@4@U564@U564@U564@U564@@tuples@boost@@V?$allocator@V?$tuple@V?$basic_string@_WU?$char_traits@_W@std@@V?$allocator@_W@2@@std@@V12@_NV12@V?$shared_ptr@VRefItemV@@@boost@@Unull_type@tuples@4@U564@U564@U564@U564@@tuples@boost@@@std@@@std@@@std@@QBE_NABV01@@Z 00411160 f i CheckDoc.obj
 0001:00010160       ??9?$_Vector_const_iterator@V?$_Vector_val@V?$tuple@V?$basic_string@_WU?$char_traits@_W@std@@V?$allocator@_W@2@@std@@V12@V12@V?$shared_ptr@VRefItemV@@@boost@@Unull_type@tuples@4@U564@U564@U564@U564@U564@@tuples@boost@@V?$allocator@V?$tuple@V?$basic_string@_WU?$char_traits@_W@std@@V?$allocator@_W@2@@std@@V12@V12@V?$shared_ptr@VRefItemV@@@boost@@Unull_type@tuples@4@U564@U564@U564@U564@U564@@tuples@boost@@@std@@@std@@@std@@QBE_NABV01@@Z 00411160 f i CheckDoc.obj
 0001:00010160       ??9?$_Vector_const_iterator@V?$_Vector_val@V?$tuple@HV?$basic_string@_WU?$char_traits@_W@std@@V?$allocator@_W@2@@std@@V12@V12@Unull_type@tuples@boost@@U345@U345@U345@U345@U345@@tuples@boost@@V?$allocator@V?$tuple@HV?$basic_string@_WU?$char_traits@_W@std@@V?$allocator@_W@2@@std@@V12@V12@Unull_type@tuples@boost@@U345@U345@U345@U345@U345@@tuples@boost@@@std@@@std@@@std@@QBE_NABV01@@Z 00411160 f i DlgSelectGood.obj
 0001:00010160       ??9?$_Vector_const_iterator@V?$_Vector_val@V?$shared_ptr@VRefItemV@@@boost@@V?$allocator@V?$shared_ptr@VRefItemV@@@boost@@@std@@@std@@@std@@QBE_NABV01@@Z 00411160 f i CheckDoc.obj
 0001:00010190       ??0?$basic_stringbuf@_WU?$char_traits@_W@std@@V?$allocator@_W@2@@std@@QAE@H@Z 00411190 f i CheckDoc.obj
 0001:00010210       ?str@?$basic_stringbuf@_WU?$char_traits@_W@std@@V?$allocator@_W@2@@std@@QBE?AV?$basic_string@_WU?$char_traits@_W@std@@V?$allocator@_W@2@@2@XZ 00411210 f i CheckDoc.obj
 0001:000103b0       ??0?$basic_string@_WU?$char_traits@_W@std@@V?$allocator@_W@2@@std@@QAE@$$QAV01@@Z 004113b0 f i CheckDoc.obj
 0001:00010440       ??0?$basic_string@_WU?$char_traits@_W@std@@V?$allocator@_W@2@@std@@QAE@PB_WI@Z 00411440 f i CheckDoc.obj
 0001:000104c0       ?_Tidy@?$basic_stringbuf@_WU?$char_traits@_W@std@@V?$allocator@_W@2@@std@@IAEXXZ 004114c0 f i CheckDoc.obj
 0001:00010560       ?ClearInternalContainer@?$Reference@UPrices@@V?$SQLSearchStrategy@UPrices@@V?$RefCreator@UPrices@@$00@@@@@@IAEXXZ 00411560 f i CheckDoc.obj
 0001:00010560       ?ClearInternalContainer@?$Reference@UUnits@@V?$SQLSearchStrategy@UUnits@@V?$RefCreator@UUnits@@$00@@@@@@IAEXXZ 00411560 f i CheckDoc.obj
 0001:00010560       ?ClearInternalContainer@?$Reference@UProducts@@V?$SQLSearchStrategy@UProducts@@V?$RefCreator@UProducts@@$00@@@@@@IAEXXZ 00411560 f i CheckDoc.obj
 0001:00010580       ??0?$Reference@UProducts@@V?$SQLSearchStrategy@UProducts@@V?$RefCreator@UProducts@@$00@@@@@@QAE@XZ 00411580 f i CheckDoc.obj
 0001:00010600       ??0?$Reference@UUnits@@V?$SQLSearchStrategy@UUnits@@V?$RefCreator@UUnits@@$00@@@@@@QAE@XZ 00411600 f i CheckDoc.obj
 0001:00010680       ?getCurrent@?$Reference@UTypePrice@@V?$SQLSearchStrategy@UTypePrice@@V?$RefCreator@UTypePrice@@$00@@@@@@QAE?AV?$shared_ptr@VRefItemV@@@boost@@XZ 00411680 f i CheckDoc.obj
 0001:00010680       ?getCurrent@?$Reference@UProducts@@V?$SQLSearchStrategy@UProducts@@V?$RefCreator@UProducts@@$00@@@@@@QAE?AV?$shared_ptr@VRefItemV@@@boost@@XZ 00411680 f i CheckDoc.obj
 0001:00010680       ?getCurrent@?$Reference@UContragents@@V?$SQLSearchStrategy@UContragents@@V?$RefCreator@UContragents@@$00@@@@@@QAE?AV?$shared_ptr@VRefItemV@@@boost@@XZ 00411680 f i MainDocument.obj
 0001:00010680       ?getCurrent@?$Reference@UPoints@@V?$SQLSearchStrategy@UPoints@@V?$RefCreator@UPoints@@$00@@@@@@QAE?AV?$shared_ptr@VRefItemV@@@boost@@XZ 00411680 f i DlgLogin.obj
 0001:00010680       ?getCurrent@?$Reference@UPrices@@V?$SQLSearchStrategy@UPrices@@V?$RefCreator@UPrices@@$00@@@@@@QAE?AV?$shared_ptr@VRefItemV@@@boost@@XZ 00411680 f i CheckDoc.obj
 0001:00010680       ?getCurrent@?$Reference@UEmployees@@V?$SQLSearchStrategy@UEmployees@@V?$RefCreator@UEmployees@@$00@@@@@@QAE?AV?$shared_ptr@VRefItemV@@@boost@@XZ 00411680 f i DlgLogin.obj
 0001:00010680       ?getCurrent@?$Reference@UUnits@@V?$SQLSearchStrategy@UUnits@@V?$RefCreator@UUnits@@$00@@@@@@QAE?AV?$shared_ptr@VRefItemV@@@boost@@XZ 00411680 f i CheckDoc.obj
 0001:00010700       ?InsertData@?$Reference@UProducts@@V?$SQLSearchStrategy@UProducts@@V?$RefCreator@UProducts@@$00@@@@@@IAE?AV?$_Vector_const_iterator@V?$_Vector_val@V?$shared_ptr@VRefItemV@@@boost@@V?$allocator@V?$shared_ptr@VRefItemV@@@boost@@@std@@@std@@@std@@V?$shared_ptr@VRefItemV@@@boost@@@Z 00411700 f i CheckDoc.obj
 0001:00010700       ?InsertData@?$Reference@UPrices@@V?$SQLSearchStrategy@UPrices@@V?$RefCreator@UPrices@@$00@@@@@@IAE?AV?$_Vector_const_iterator@V?$_Vector_val@V?$shared_ptr@VRefItemV@@@boost@@V?$allocator@V?$shared_ptr@VRefItemV@@@boost@@@std@@@std@@@std@@V?$shared_ptr@VRefItemV@@@boost@@@Z 00411700 f i CheckDoc.obj
 0001:00010700       ?InsertData@?$Reference@UUnits@@V?$SQLSearchStrategy@UUnits@@V?$RefCreator@UUnits@@$00@@@@@@IAE?AV?$_Vector_const_iterator@V?$_Vector_val@V?$shared_ptr@VRefItemV@@@boost@@V?$allocator@V?$shared_ptr@VRefItemV@@@boost@@@std@@@std@@@std@@V?$shared_ptr@VRefItemV@@@boost@@@Z 00411700 f i CheckDoc.obj
 0001:00010790       ??0?$Reference@UPrices@@V?$SQLSearchStrategy@UPrices@@V?$RefCreator@UPrices@@$00@@@@@@QAE@XZ 00411790 f i CheckDoc.obj
 0001:00010810       ?_Insert@?$list@USalesItemLine@CCheckDoc@@V?$allocator@USalesItemLine@CCheckDoc@@@std@@@std@@QAEXV?$_List_const_iterator@V?$_List_val@USalesItemLine@CCheckDoc@@V?$allocator@USalesItemLine@CCheckDoc@@@std@@@std@@@2@ABUSalesItemLine@CCheckDoc@@@Z 00411810 f i CheckDoc.obj
 0001:00010890       ?_Tidy@?$list@USalesItemLine@CCheckDoc@@V?$allocator@USalesItemLine@CCheckDoc@@@std@@@std@@QAEXXZ 00411890 f i CheckDoc.obj
 0001:000108b0       ??0?$_List_val@USalesItemLine@CCheckDoc@@V?$allocator@USalesItemLine@CCheckDoc@@@std@@@std@@QAE@V?$allocator@USalesItemLine@CCheckDoc@@@1@@Z 004118b0 f i CheckDoc.obj
 0001:00010920       ??1?$_List_val@USalesItemLine@CCheckDoc@@V?$allocator@USalesItemLine@CCheckDoc@@@std@@@std@@QAE@XZ 00411920 f i CheckDoc.obj
 0001:00010940       ?_Parent@?$_Tree_val@V?$_Tmap_traits@$$CBV?$basic_string@_WU?$char_traits@_W@std@@V?$allocator@_W@2@@std@@V_variant_t@@U?$less@$$CBV?$basic_string@_WU?$char_traits@_W@std@@V?$allocator@_W@2@@std@@@2@V?$allocator@U?$pair@$$CBV?$basic_string@_WU?$char_traits@_W@std@@V?$allocator@_W@2@@std@@V_variant_t@@@std@@@2@$0A@@std@@@std@@SAAAPAU_Node@?$_Tree_nod@V?$_Tmap_traits@$$CBV?$basic_string@_WU?$char_traits@_W@std@@V?$allocator@_W@2@@std@@V_variant_t@@U?$less@$$CBV?$basic_string@_WU?$char_traits@_W@std@@V?$allocator@_W@2@@std@@@2@V?$allocator@U?$pair@$$CBV?$basic_string@_WU?$char_traits@_W@std@@V?$allocator@_W@2@@std@@V_variant_t@@@std@@@2@$0A@@std@@@2@PAU342@@Z 00411940 f i CheckDoc.obj
 0001:00010940       ?_Parent@?$_Tree_val@V?$_Tmap_traits@V?$CStringT@DV?$StrTraitMFC_DLL@DV?$ChTraitsCRT@D@ATL@@@@@ATL@@V?$shared_ptr@VCFont@@@tr1@std@@U?$less@V?$CStringT@DV?$StrTraitMFC_DLL@DV?$ChTraitsCRT@D@ATL@@@@@ATL@@@5@V?$allocator@U?$pair@$$CBV?$CStringT@DV?$StrTraitMFC_DLL@DV?$ChTraitsCRT@D@ATL@@@@@ATL@@V?$shared_ptr@VCFont@@@tr1@std@@@std@@@5@$0A@@std@@@std@@SAAAPAU_Node@?$_Tree_nod@V?$_Tmap_traits@V?$CStringT@DV?$StrTraitMFC_DLL@DV?$ChTraitsCRT@D@ATL@@@@@ATL@@V?$shared_ptr@VCFont@@@tr1@std@@U?$less@V?$CStringT@DV?$StrTraitMFC_DLL@DV?$ChTraitsCRT@D@ATL@@@@@ATL@@@5@V?$allocator@U?$pair@$$CBV?$CStringT@DV?$StrTraitMFC_DLL@DV?$ChTraitsCRT@D@ATL@@@@@ATL@@V?$shared_ptr@VCFont@@@tr1@std@@@std@@@5@$0A@@std@@@2@PAU342@@Z 00411940 f i DlgEnterCash.obj
 0001:00010940       ?_Prevnode@?$_List_val@USalesItemLine@CCheckDoc@@V?$allocator@USalesItemLine@CCheckDoc@@@std@@@std@@SAAAPAU_Node@?$_List_nod@USalesItemLine@CCheckDoc@@V?$allocator@USalesItemLine@CCheckDoc@@@std@@@2@PAU342@@Z 00411940 f i CheckDoc.obj
 0001:00010940       ?_Parent@?$_Tree_val@V?$_Tmap_traits@V?$basic_string@_WU?$char_traits@_W@std@@V?$allocator@_W@2@@std@@PAU_TREEITEM@@U?$less@V?$basic_string@_WU?$char_traits@_W@std@@V?$allocator@_W@2@@std@@@2@V?$allocator@U?$pair@$$CBV?$basic_string@_WU?$char_traits@_W@std@@V?$allocator@_W@2@@std@@PAU_TREEITEM@@@std@@@2@$0A@@std@@@std@@SAAAPAU_Node@?$_Tree_nod@V?$_Tmap_traits@V?$basic_string@_WU?$char_traits@_W@std@@V?$allocator@_W@2@@std@@PAU_TREEITEM@@U?$less@V?$basic_string@_WU?$char_traits@_W@std@@V?$allocator@_W@2@@std@@@2@V?$allocator@U?$pair@$$CBV?$basic_string@_WU?$char_traits@_W@std@@V?$allocator@_W@2@@std@@PAU_TREEITEM@@@std@@@2@$0A@@std@@@2@PAU342@@Z 00411940 f i SuperTree.obj
 0001:00010940       ?_Parent@?$_Tree_val@V?$_Tmap_traits@V?$basic_string@_WU?$char_traits@_W@std@@V?$allocator@_W@2@@std@@V?$tuple@V?$basic_string@_WU?$char_traits@_W@std@@V?$allocator@_W@2@@std@@V12@Unull_type@tuples@boost@@U345@U345@U345@U345@U345@U345@U345@@tuples@boost@@U?$less@V?$basic_string@_WU?$char_traits@_W@std@@V?$allocator@_W@2@@std@@@2@V?$allocator@U?$pair@$$CBV?$basic_string@_WU?$char_traits@_W@std@@V?$allocator@_W@2@@std@@V?$tuple@V?$basic_string@_WU?$char_traits@_W@std@@V?$allocator@_W@2@@std@@V12@Unull_type@tuples@boost@@U345@U345@U345@U345@U345@U345@U345@@tuples@boost@@@std@@@2@$00@std@@@std@@SAAAPAU_Node@?$_Tree_nod@V?$_Tmap_traits@V?$basic_string@_WU?$char_traits@_W@std@@V?$allocator@_W@2@@std@@V?$tuple@V?$basic_string@_WU?$char_traits@_W@std@@V?$allocator@_W@2@@std@@V12@Unull_type@tuples@boost@@U345@U345@U345@U345@U345@U345@U345@@tuples@boost@@U?$less@V?$basic_string@_WU?$char_traits@_W@std@@V?$allocator@_W@2@@std@@@2@V?$allocator@U?$pair@$$CBV?$basic_string@_WU?$char_traits@_W@std@@V?$allocator@_W@2@@std@@V?$tuple@V?$basic_string@_WU?$char_traits@_W@std@@V?$allocator@_W@2@@std@@V12@Unull_type@tuples@boost@@U345@U345@U345@U345@U345@U345@U345@@tuples@boost@@@std@@@2@$00@std@@@2@PAU342@@Z 00411940 f i SuperTree.obj
 0001:00010940       ?_Parent@?$_Tree_val@V?$_Tmap_traits@V?$CStringT@DV?$StrTraitMFC_DLL@DV?$ChTraitsCRT@D@ATL@@@@@ATL@@V?$CAdapt@V?$CComPtr@UIDispatch@@@ATL@@@2@U?$less@V?$CStringT@DV?$StrTraitMFC_DLL@DV?$ChTraitsCRT@D@ATL@@@@@ATL@@@std@@V?$allocator@U?$pair@$$CBV?$CStringT@DV?$StrTraitMFC_DLL@DV?$ChTraitsCRT@D@ATL@@@@@ATL@@V?$CAdapt@V?$CComPtr@UIDispatch@@@ATL@@@2@@std@@@5@$0A@@std@@@std@@SAAAPAU_Node@?$_Tree_nod@V?$_Tmap_traits@V?$CStringT@DV?$StrTraitMFC_DLL@DV?$ChTraitsCRT@D@ATL@@@@@ATL@@V?$CAdapt@V?$CComPtr@UIDispatch@@@ATL@@@2@U?$less@V?$CStringT@DV?$StrTraitMFC_DLL@DV?$ChTraitsCRT@D@ATL@@@@@ATL@@@std@@V?$allocator@U?$pair@$$CBV?$CStringT@DV?$StrTraitMFC_DLL@DV?$ChTraitsCRT@D@ATL@@@@@ATL@@V?$CAdapt@V?$CComPtr@UIDispatch@@@ATL@@@2@@std@@@5@$0A@@std@@@2@PAU342@@Z 00411940 f i DlgSelectGood.obj
 0001:00010940       ?_Parent@?$_Tree_val@V?$_Tmap_traits@V?$basic_string@_WU?$char_traits@_W@std@@V?$allocator@_W@2@@std@@V12@U?$less@V?$basic_string@_WU?$char_traits@_W@std@@V?$allocator@_W@2@@std@@@2@V?$allocator@U?$pair@$$CBV?$basic_string@_WU?$char_traits@_W@std@@V?$allocator@_W@2@@std@@V12@@std@@@2@$0A@@std@@@std@@SAAAPAU_Node@?$_Tree_nod@V?$_Tmap_traits@V?$basic_string@_WU?$char_traits@_W@std@@V?$allocator@_W@2@@std@@V12@U?$less@V?$basic_string@_WU?$char_traits@_W@std@@V?$allocator@_W@2@@std@@@2@V?$allocator@U?$pair@$$CBV?$basic_string@_WU?$char_traits@_W@std@@V?$allocator@_W@2@@std@@V12@@std@@@2@$0A@@std@@@2@PAU342@@Z 00411940 f i CheckDoc.obj
 0001:00010940       ?_Parent@?$_Tree_val@V?$_Tmap_traits@PAVCWnd@@IU?$less@PAVCWnd@@@std@@V?$allocator@U?$pair@QAVCWnd@@I@std@@@3@$0A@@std@@@std@@SAAAPAU_Node@?$_Tree_nod@V?$_Tmap_traits@PAVCWnd@@IU?$less@PAVCWnd@@@std@@V?$allocator@U?$pair@QAVCWnd@@I@std@@@3@$0A@@std@@@2@PAU342@@Z 00411940 f i MultiSplitterView.obj
 0001:00010950       ??8?$_Tree_const_iterator@V?$_Tree_val@V?$_Tmap_traits@$$CBV?$basic_string@_WU?$char_traits@_W@std@@V?$allocator@_W@2@@std@@V_variant_t@@U?$less@$$CBV?$basic_string@_WU?$char_traits@_W@std@@V?$allocator@_W@2@@std@@@2@V?$allocator@U?$pair@$$CBV?$basic_string@_WU?$char_traits@_W@std@@V?$allocator@_W@2@@std@@V_variant_t@@@std@@@2@$0A@@std@@@std@@@std@@QBE_NABV01@@Z 00411950 f i CheckDoc.obj
 0001:00010950       ??8?$_Tree_unchecked_const_iterator@V?$_Tree_val@V?$_Tmap_traits@V?$basic_string@_WU?$char_traits@_W@std@@V?$allocator@_W@2@@std@@PAU_TREEITEM@@U?$less@V?$basic_string@_WU?$char_traits@_W@std@@V?$allocator@_W@2@@std@@@2@V?$allocator@U?$pair@$$CBV?$basic_string@_WU?$char_traits@_W@std@@V?$allocator@_W@2@@std@@PAU_TREEITEM@@@std@@@2@$0A@@std@@@std@@U_Iterator_base0@2@@std@@QBE_NABV01@@Z 00411950 f i SuperTree.obj
 0001:00010950       ??8?$_Tree_const_iterator@V?$_Tree_val@V?$_Tmap_traits@PAVCWnd@@IU?$less@PAVCWnd@@@std@@V?$allocator@U?$pair@QAVCWnd@@I@std@@@3@$0A@@std@@@std@@@std@@QBE_NABV01@@Z 00411950 f i MultiSplitterView.obj
 0001:00010950       ??8?$_Tree_const_iterator@V?$_Tree_val@V?$_Tmap_traits@V?$basic_string@_WU?$char_traits@_W@std@@V?$allocator@_W@2@@std@@V12@U?$less@V?$basic_string@_WU?$char_traits@_W@std@@V?$allocator@_W@2@@std@@@2@V?$allocator@U?$pair@$$CBV?$basic_string@_WU?$char_traits@_W@std@@V?$allocator@_W@2@@std@@V12@@std@@@2@$0A@@std@@@std@@@std@@QBE_NABV01@@Z 00411950 f i CheckDoc.obj
 0001:00010950       ??8?$_Tree_const_iterator@V?$_Tree_val@V?$_Tmap_traits@V?$basic_string@_WU?$char_traits@_W@std@@V?$allocator@_W@2@@std@@PAU_TREEITEM@@U?$less@V?$basic_string@_WU?$char_traits@_W@std@@V?$allocator@_W@2@@std@@@2@V?$allocator@U?$pair@$$CBV?$basic_string@_WU?$char_traits@_W@std@@V?$allocator@_W@2@@std@@PAU_TREEITEM@@@std@@@2@$0A@@std@@@std@@@std@@QBE_NABV01@@Z 00411950 f i SuperTree.obj
 0001:00010950       ??8?$_Tree_unchecked_const_iterator@V?$_Tree_val@V?$_Tmap_traits@V?$CStringT@DV?$StrTraitMFC_DLL@DV?$ChTraitsCRT@D@ATL@@@@@ATL@@V?$shared_ptr@VCFont@@@tr1@std@@U?$less@V?$CStringT@DV?$StrTraitMFC_DLL@DV?$ChTraitsCRT@D@ATL@@@@@ATL@@@5@V?$allocator@U?$pair@$$CBV?$CStringT@DV?$StrTraitMFC_DLL@DV?$ChTraitsCRT@D@ATL@@@@@ATL@@V?$shared_ptr@VCFont@@@tr1@std@@@std@@@5@$0A@@std@@@std@@U_Iterator_base0@2@@std@@QBE_NABV01@@Z 00411950 f i FontDlgPage.obj
 0001:00010950       ??8?$_List_const_iterator@V?$_List_val@USalesItemLine@CCheckDoc@@V?$allocator@USalesItemLine@CCheckDoc@@@std@@@std@@@std@@QBE_NABV01@@Z 00411950 f i CheckDoc.obj
 0001:00010950       ??8?$_List_unchecked_const_iterator@V?$_List_val@USalesItemLine@CCheckDoc@@V?$allocator@USalesItemLine@CCheckDoc@@@std@@@std@@U_Iterator_base0@2@@std@@QBE_NABV01@@Z 00411950 f i CashPrinter.obj
 0001:00010950       ??8?$_Tree_const_iterator@V?$_Tree_val@V?$_Tmap_traits@V?$basic_string@_WU?$char_traits@_W@std@@V?$allocator@_W@2@@std@@V?$tuple@V?$basic_string@_WU?$char_traits@_W@std@@V?$allocator@_W@2@@std@@V12@Unull_type@tuples@boost@@U345@U345@U345@U345@U345@U345@U345@@tuples@boost@@U?$less@V?$basic_string@_WU?$char_traits@_W@std@@V?$allocator@_W@2@@std@@@2@V?$allocator@U?$pair@$$CBV?$basic_string@_WU?$char_traits@_W@std@@V?$allocator@_W@2@@std@@V?$tuple@V?$basic_string@_WU?$char_traits@_W@std@@V?$allocator@_W@2@@std@@V12@Unull_type@tuples@boost@@U345@U345@U345@U345@U345@U345@U345@@tuples@boost@@@std@@@2@$00@std@@@std@@@std@@QBE_NABV01@@Z 00411950 f i SuperTree.obj
 0001:00010950       ??8?$_Tree_const_iterator@V?$_Tree_val@V?$_Tmap_traits@V?$CStringT@DV?$StrTraitMFC_DLL@DV?$ChTraitsCRT@D@ATL@@@@@ATL@@V?$shared_ptr@VCFont@@@tr1@std@@U?$less@V?$CStringT@DV?$StrTraitMFC_DLL@DV?$ChTraitsCRT@D@ATL@@@@@ATL@@@5@V?$allocator@U?$pair@$$CBV?$CStringT@DV?$StrTraitMFC_DLL@DV?$ChTraitsCRT@D@ATL@@@@@ATL@@V?$shared_ptr@VCFont@@@tr1@std@@@std@@@5@$0A@@std@@@std@@@std@@QBE_NABV01@@Z 00411950 f i DlgEnterCash.obj
 0001:00010950       ??8?$_Tree_const_iterator@V?$_Tree_val@V?$_Tmap_traits@V?$CStringT@DV?$StrTraitMFC_DLL@DV?$ChTraitsCRT@D@ATL@@@@@ATL@@V?$CAdapt@V?$CComPtr@UIDispatch@@@ATL@@@2@U?$less@V?$CStringT@DV?$StrTraitMFC_DLL@DV?$ChTraitsCRT@D@ATL@@@@@ATL@@@std@@V?$allocator@U?$pair@$$CBV?$CStringT@DV?$StrTraitMFC_DLL@DV?$ChTraitsCRT@D@ATL@@@@@ATL@@V?$CAdapt@V?$CComPtr@UIDispatch@@@ATL@@@2@@std@@@5@$0A@@std@@@std@@@std@@QBE_NABV01@@Z 00411950 f i DlgSelectGood.obj
 0001:00010970       ?_AddRef@?$_com_ptr_t@V?$_com_IIID@UErrors@@$1?_GUID_00000501_0000_0010_8000_00aa006d2ea4@@3U__s_GUID@@B@@@@AAEXXZ 00411970 f i InfoConsole.obj
 0001:00010970       ?_AddRef@?$_com_ptr_t@V?$_com_IIID@UField@@$1?_GUID_00000569_0000_0010_8000_00aa006d2ea4@@3U__s_GUID@@B@@@@AAEXXZ 00411970 f i CheckDoc.obj
 0001:00010970       ?_AddRef@?$_com_ptr_t@V?$_com_IIID@U_Parameter@@$1?_GUID_0000050c_0000_0010_8000_00aa006d2ea4@@3U__s_GUID@@B@@@@AAEXXZ 00411970 f i ReturnDoc.obj
 0001:00010970       ?_AddRef@?$_com_ptr_t@V?$_com_IIID@UIField@DOC@@$1?_GUID_3c9bf0b5_52b5_4a0b_9bf1_55828b2fdee4@@3U__s_GUID@@B@@@@AAEXXZ 00411970 f i CheckDoc.obj
 0001:00010970       ?_AddRef@?$_com_ptr_t@V?$_com_IIID@UError@@$1?_GUID_00000500_0000_0010_8000_00aa006d2ea4@@3U__s_GUID@@B@@@@AAEXXZ 00411970 f i InfoConsole.obj
 0001:00010970       ?_AddRef@?$_com_ptr_t@V?$_com_IIID@UIMSMQQueueInfos@MSMQ@@$1?_GUID_d7d6e07d_dccd_11d0_aa4b_0060970debae@@3U__s_GUID@@B@@@@AAEXXZ 00411970 f i MainDocument.obj
 0001:00010970       ?_AddRef@?$_com_ptr_t@V?$_com_IIID@U_Connection@@$1?_GUID_00000550_0000_0010_8000_00aa006d2ea4@@3U__s_GUID@@B@@@@AAEXXZ 00411970 f i DBDoc.obj
 0001:00010970       ?_AddRef@?$_com_ptr_t@V?$_com_IIID@UIVSFlexGrid@@$1?_GUID_d76d712b_4a96_11d3_bd95_d296dc2dd072@@3U__s_GUID@@B@@@@AAEXXZ 00411970 f i CashPrinter.obj
 0001:00010970       ?_AddRef@?$_com_ptr_t@V?$_com_IIID@UParameters@@$1?_GUID_0000050d_0000_0010_8000_00aa006d2ea4@@3U__s_GUID@@B@@@@AAEXXZ 00411970 f i ReturnDoc.obj
 0001:00010970       ?_AddRef@?$_com_ptr_t@V?$_com_IIID@U_Command@@$1?_GUID_b08400bd_f9d1_4d02_b856_71d5dba123e9@@3U__s_GUID@@B@@@@AAEXXZ 00411970 f i CheckDoc.obj
 0001:00010970       ?_AddRef@?$_com_ptr_t@V?$_com_IIID@UIMSMQQueueInfo@MSMQ@@$1?_GUID_d7d6e07b_dccd_11d0_aa4b_0060970debae@@3U__s_GUID@@B@@@@AAEXXZ 00411970 f i MainDocument.obj
 0001:00010970       ?_AddRef@?$_com_ptr_t@V?$_com_IIID@UIMSMQQueue@MSMQ@@$1?_GUID_d7d6e076_dccd_11d0_aa4b_0060970debae@@3U__s_GUID@@B@@@@AAEXXZ 00411970 f i MainDocument.obj
 0001:00010970       ?_AddRef@?$_com_ptr_t@V?$_com_IIID@UFields@@$1?_GUID_00000564_0000_0010_8000_00aa006d2ea4@@3U__s_GUID@@B@@@@AAEXXZ 00411970 f i CheckDoc.obj
 0001:00010970       ?_AddRef@?$_com_ptr_t@V?$_com_IIID@U_Recordset@@$1?_GUID_00000556_0000_0010_8000_00aa006d2ea4@@3U__s_GUID@@B@@@@AAEXXZ 00411970 f i CheckDoc.obj
 0001:00010970       ?_AddRef@?$_com_ptr_t@V?$_com_IIID@UIRow@DOC@@$1?_GUID_7969f54c_4ea5_4917_b576_3b26d9ed819c@@3U__s_GUID@@B@@@@AAEXXZ 00411970 f i CheckDoc.obj
 0001:000109a0       ??9?$CComPtrBase@UIDocOneC@DOC@@@ATL@@QBE_NPAUIDocOneC@DOC@@@Z 004119a0 f i CheckDoc.obj
 0001:000109d0       ??0?$CComPtr@UICreateErrorInfo@@@ATL@@QAE@XZ 004119d0 f i CheckDoc.obj
 0001:000109d0       ??0?$CComPtr@UIDispatch@@@ATL@@QAE@XZ 004119d0 f i DlgSelectGood.obj
 0001:000109d0       ??0?$CComPtr@UIValue@DOC@@@ATL@@QAE@XZ 004119d0 f i CheckDoc.obj
 0001:000109d0       ??0?$_Tree_const_iterator@V?$_Tree_val@V?$_Tmap_traits@V?$CStringT@DV?$StrTraitMFC_DLL@DV?$ChTraitsCRT@D@ATL@@@@@ATL@@V?$shared_ptr@VCFont@@@tr1@std@@U?$less@V?$CStringT@DV?$StrTraitMFC_DLL@DV?$ChTraitsCRT@D@ATL@@@@@ATL@@@5@V?$allocator@U?$pair@$$CBV?$CStringT@DV?$StrTraitMFC_DLL@DV?$ChTraitsCRT@D@ATL@@@@@ATL@@V?$shared_ptr@VCFont@@@tr1@std@@@std@@@5@$0A@@std@@@std@@@std@@QAE@XZ 004119d0 f i DlgEnterCash.obj
 0001:000109d0       ??0?$CComPtr@UIErrorInfo@@@ATL@@QAE@XZ 004119d0 f i CheckDoc.obj
 0001:000109d0       ??0?$_Tree_const_iterator@V?$_Tree_val@V?$_Tmap_traits@V?$CStringT@DV?$StrTraitMFC_DLL@DV?$ChTraitsCRT@D@ATL@@@@@ATL@@V?$CAdapt@V?$CComPtr@UIDispatch@@@ATL@@@2@U?$less@V?$CStringT@DV?$StrTraitMFC_DLL@DV?$ChTraitsCRT@D@ATL@@@@@ATL@@@std@@V?$allocator@U?$pair@$$CBV?$CStringT@DV?$StrTraitMFC_DLL@DV?$ChTraitsCRT@D@ATL@@@@@ATL@@V?$CAdapt@V?$CComPtr@UIDispatch@@@ATL@@@2@@std@@@5@$0A@@std@@@std@@@std@@QAE@XZ 004119d0 f i DlgSelectGood.obj
 0001:000109d0       ??0?$CComPtr@UITable@DOC@@@ATL@@QAE@XZ 004119d0 f i CheckDoc.obj
 0001:000109d0       ??0?$_Tree_const_iterator@V?$_Tree_val@V?$_Tmap_traits@V?$basic_string@_WU?$char_traits@_W@std@@V?$allocator@_W@2@@std@@V12@U?$less@V?$basic_string@_WU?$char_traits@_W@std@@V?$allocator@_W@2@@std@@@2@V?$allocator@U?$pair@$$CBV?$basic_string@_WU?$char_traits@_W@std@@V?$allocator@_W@2@@std@@V12@@std@@@2@$0A@@std@@@std@@@std@@QAE@XZ 004119d0 f i CheckDoc.obj
 0001:000109d0       ??0?$_Tree_const_iterator@V?$_Tree_val@V?$_Tmap_traits@PAVCWnd@@IU?$less@PAVCWnd@@@std@@V?$allocator@U?$pair@QAVCWnd@@I@std@@@3@$0A@@std@@@std@@@std@@QAE@XZ 004119d0 f i MultiSplitterView.obj
 0001:000109d0       ??0?$_Vector_iterator@V?$_Vector_val@DV?$allocator@D@std@@@std@@@std@@QAE@XZ 004119d0 f i DlgSetQuantity.obj
 0001:000109d0       ??0?$CComPtr@UIHead@DOC@@@ATL@@QAE@XZ 004119d0 f i CheckDoc.obj
 0001:000109d0       ??0?$CComPtr@UIDocOneC@DOC@@@ATL@@QAE@XZ 004119d0 f i CheckDoc.obj
 0001:000109f0       ?_Tidy@?$vector@DV?$allocator@D@std@@@std@@IAEXXZ 004119f0 f i CheckDoc.obj
 0001:00010a60       ?FindByCode@?$SQLSearchStrategy@UTypePrice@@V?$RefCreator@UTypePrice@@$00@@@@QAEHV?$basic_string@_WU?$char_traits@_W@std@@V?$allocator@_W@2@@std@@AAV?$DataHolder@UTypePrice@@$00@@@Z 00411a60 f i CheckDoc.obj
 0001:00010bb0       ??C?$_Tree_unchecked_const_iterator@V?$_Tree_val@V?$_Tmap_traits@$$CBV?$basic_string@_WU?$char_traits@_W@std@@V?$allocator@_W@2@@std@@V_variant_t@@U?$less@$$CBV?$basic_string@_WU?$char_traits@_W@std@@V?$allocator@_W@2@@std@@@2@V?$allocator@U?$pair@$$CBV?$basic_string@_WU?$char_traits@_W@std@@V?$allocator@_W@2@@std@@V_variant_t@@@std@@@2@$0A@@std@@@std@@U_Iterator_base0@2@@std@@QBEPBU?$pair@$$CBV?$basic_string@_WU?$char_traits@_W@std@@V?$allocator@_W@2@@std@@V_variant_t@@@1@XZ 00411bb0 f i CheckDoc.obj
 0001:00010bd0       ??0RefItemError@?$RefItemT@UVariantType@@V?$RefItemTraits@UVariantType@@@@@@QAE@PBDPAV?$basic_ostream@DU?$char_traits@D@std@@@std@@@Z 00411bd0 f i CheckDoc.obj
 0001:00010c10       ??0?$DataHolder@UProducts@@$00@@QAE@XZ 00411c10 f i CheckDoc.obj
 0001:00010c10       ??0?$DataHolder@UEmployees@@$00@@QAE@XZ 00411c10 f i Repository.obj
 0001:00010c10       ??0?$DataHolder@UTypePrice@@$00@@QAE@XZ 00411c10 f i Repository.obj
 0001:00010c10       ??0?$DataHolder@UPoints@@$00@@QAE@XZ 00411c10 f i Repository.obj
 0001:00010c10       ??0?$DataHolder@UPrices@@$00@@QAE@XZ 00411c10 f i CheckDoc.obj
 0001:00010c10       ??0?$DataHolder@UUnits@@$00@@QAE@XZ 00411c10 f i CheckDoc.obj
 0001:00010c10       ??0?$DataHolder@UContragents@@$00@@QAE@XZ 00411c10 f i Repository.obj
 0001:00010c30       ?append@?$basic_string@DU?$char_traits@D@std@@V?$allocator@D@2@@std@@QAEAAV12@PBD@Z 00411c30 f i CheckDoc.obj
 0001:00010c60       ?lower_bound@?$_Tree@V?$_Tmap_traits@$$CBV?$basic_string@_WU?$char_traits@_W@std@@V?$allocator@_W@2@@std@@V_variant_t@@U?$less@$$CBV?$basic_string@_WU?$char_traits@_W@std@@V?$allocator@_W@2@@std@@@2@V?$allocator@U?$pair@$$CBV?$basic_string@_WU?$char_traits@_W@std@@V?$allocator@_W@2@@std@@V_variant_t@@@std@@@2@$0A@@std@@@std@@QAE?AV?$_Tree_iterator@V?$_Tree_val@V?$_Tmap_traits@$$CBV?$basic_string@_WU?$char_traits@_W@std@@V?$allocator@_W@2@@std@@V_variant_t@@U?$less@$$CBV?$basic_string@_WU?$char_traits@_W@std@@V?$allocator@_W@2@@std@@@2@V?$allocator@U?$pair@$$CBV?$basic_string@_WU?$char_traits@_W@std@@V?$allocator@_W@2@@std@@V_variant_t@@@std@@@2@$0A@@std@@@std@@@2@ABV?$basic_string@_WU?$char_traits@_W@std@@V?$allocator@_W@2@@2@@Z 00411c60 f i CheckDoc.obj
 0001:00010c90       ?_Key@?$_Tree_val@V?$_Tmap_traits@$$CBV?$basic_string@_WU?$char_traits@_W@std@@V?$allocator@_W@2@@std@@V_variant_t@@U?$less@$$CBV?$basic_string@_WU?$char_traits@_W@std@@V?$allocator@_W@2@@std@@@2@V?$allocator@U?$pair@$$CBV?$basic_string@_WU?$char_traits@_W@std@@V?$allocator@_W@2@@std@@V_variant_t@@@std@@@2@$0A@@std@@@std@@SAABV?$basic_string@_WU?$char_traits@_W@std@@V?$allocator@_W@2@@2@PAU_Node@?$_Tree_nod@V?$_Tmap_traits@$$CBV?$basic_string@_WU?$char_traits@_W@std@@V?$allocator@_W@2@@std@@V_variant_t@@U?$less@$$CBV?$basic_string@_WU?$char_traits@_W@std@@V?$allocator@_W@2@@std@@@2@V?$allocator@U?$pair@$$CBV?$basic_string@_WU?$char_traits@_W@std@@V?$allocator@_W@2@@std@@V_variant_t@@@std@@@2@$0A@@std@@@2@@Z 00411c90 f i CheckDoc.obj
 0001:00010cb0       ?_Tidy@?$_Tree@V?$_Tmap_traits@V?$basic_string@_WU?$char_traits@_W@std@@V?$allocator@_W@2@@std@@V12@U?$less@V?$basic_string@_WU?$char_traits@_W@std@@V?$allocator@_W@2@@std@@@2@V?$allocator@U?$pair@$$CBV?$basic_string@_WU?$char_traits@_W@std@@V?$allocator@_W@2@@std@@V12@@std@@@2@$0A@@std@@@std@@IAEXXZ 00411cb0 f i CheckDoc.obj
 0001:00010d00       ??0?$vector@V?$tuple@HV?$basic_string@_WU?$char_traits@_W@std@@V?$allocator@_W@2@@std@@V12@V12@Unull_type@tuples@boost@@U345@U345@U345@U345@U345@@tuples@boost@@V?$allocator@V?$tuple@HV?$basic_string@_WU?$char_traits@_W@std@@V?$allocator@_W@2@@std@@V12@V12@Unull_type@tuples@boost@@U345@U345@U345@U345@U345@@tuples@boost@@@std@@@std@@QAE@XZ 00411d00 f i DlgSelectGood.obj
 0001:00010d00       ??0?$vector@V?$CStringT@DV?$StrTraitMFC_DLL@DV?$ChTraitsCRT@D@ATL@@@@@ATL@@V?$allocator@V?$CStringT@DV?$StrTraitMFC_DLL@DV?$ChTraitsCRT@D@ATL@@@@@ATL@@@std@@@std@@QAE@XZ 00411d00 f i OutputWnd.obj
 0001:00010d00       ??0?$vector@V?$tuple@V?$basic_string@_WU?$char_traits@_W@std@@V?$allocator@_W@2@@std@@V12@V12@V12@Unull_type@tuples@boost@@U345@U345@U345@U345@U345@@tuples@boost@@V?$allocator@V?$tuple@V?$basic_string@_WU?$char_traits@_W@std@@V?$allocator@_W@2@@std@@V12@V12@V12@Unull_type@tuples@boost@@U345@U345@U345@U345@U345@@tuples@boost@@@std@@@std@@QAE@XZ 00411d00 f i DlgInsert.obj
 0001:00010d00       ??0?$vector@V?$tuple@V?$basic_string@_WU?$char_traits@_W@std@@V?$allocator@_W@2@@std@@V12@V12@V?$shared_ptr@VRefItemV@@@boost@@Unull_type@tuples@4@U564@U564@U564@U564@U564@@tuples@boost@@V?$allocator@V?$tuple@V?$basic_string@_WU?$char_traits@_W@std@@V?$allocator@_W@2@@std@@V12@V12@V?$shared_ptr@VRefItemV@@@boost@@Unull_type@tuples@4@U564@U564@U564@U564@U564@@tuples@boost@@@std@@@std@@QAE@XZ 00411d00 f i CheckDoc.obj
 0001:00010d00       ??0?$vector@DV?$allocator@D@std@@@std@@QAE@XZ 00411d00 f i DlgSetQuantity.obj
 0001:00010d00       ??0?$vector@V?$shared_ptr@VRefItemV@@@boost@@V?$allocator@V?$shared_ptr@VRefItemV@@@boost@@@std@@@std@@QAE@XZ 00411d00 f i CheckDoc.obj
 0001:00010d00       ??0?$vector@V?$tuple@V?$basic_string@_WU?$char_traits@_W@std@@V?$allocator@_W@2@@std@@V12@_NV12@V?$shared_ptr@VRefItemV@@@boost@@Unull_type@tuples@4@U564@U564@U564@U564@@tuples@boost@@V?$allocator@V?$tuple@V?$basic_string@_WU?$char_traits@_W@std@@V?$allocator@_W@2@@std@@V12@_NV12@V?$shared_ptr@VRefItemV@@@boost@@Unull_type@tuples@4@U564@U564@U564@U564@@tuples@boost@@@std@@@std@@QAE@XZ 00411d00 f i CheckDoc.obj
 0001:00010d00       ??0?$vector@V?$tuple@V?$basic_string@_WU?$char_traits@_W@std@@V?$allocator@_W@2@@std@@V12@V12@Unull_type@tuples@boost@@U345@U345@U345@U345@U345@U345@@tuples@boost@@V?$allocator@V?$tuple@V?$basic_string@_WU?$char_traits@_W@std@@V?$allocator@_W@2@@std@@V12@V12@Unull_type@tuples@boost@@U345@U345@U345@U345@U345@U345@@tuples@boost@@@std@@@std@@QAE@XZ 00411d00 f i DlgFindAll.obj
 0001:00010d30       ?capacity@?$vector@V?$shared_ptr@VRefItemV@@@boost@@V?$allocator@V?$shared_ptr@VRefItemV@@@boost@@@std@@@std@@QBEIXZ 00411d30 f i CheckDoc.obj
 0001:00010d50       ?push_back@?$vector@V?$shared_ptr@VRefItemV@@@boost@@V?$allocator@V?$shared_ptr@VRefItemV@@@boost@@@std@@@std@@QAEXABV?$shared_ptr@VRefItemV@@@boost@@@Z 00411d50 f i CheckDoc.obj
 0001:00010e50       ?clear@?$vector@V?$shared_ptr@VRefItemV@@@boost@@V?$allocator@V?$shared_ptr@VRefItemV@@@boost@@@std@@@std@@QAEXXZ 00411e50 f i CheckDoc.obj
 0001:00010ea0       ?_Buy@?$vector@V?$shared_ptr@VRefItemV@@@boost@@V?$allocator@V?$shared_ptr@VRefItemV@@@boost@@@std@@@std@@IAE_NI@Z 00411ea0 f i CheckDoc.obj
 0001:00010f20       ?_Destroy@?$vector@V?$shared_ptr@VRefItemV@@@boost@@V?$allocator@V?$shared_ptr@VRefItemV@@@boost@@@std@@@std@@IAEXPAV?$shared_ptr@VRefItemV@@@boost@@0@Z 00411f20 f i CheckDoc.obj
 0001:00010f50       ?_Tidy@?$vector@V?$shared_ptr@VRefItemV@@@boost@@V?$allocator@V?$shared_ptr@VRefItemV@@@boost@@@std@@@std@@IAEXXZ 00411f50 f i CheckDoc.obj
 0001:00010fc0       ?deallocate@?$allocator@U_Node@?$_Tree_nod@V?$_Tmap_traits@PAVCWnd@@IU?$less@PAVCWnd@@@std@@V?$allocator@U?$pair@QAVCWnd@@I@std@@@3@$0A@@std@@@std@@@std@@QAEXPAU_Node@?$_Tree_nod@V?$_Tmap_traits@PAVCWnd@@IU?$less@PAVCWnd@@@std@@V?$allocator@U?$pair@QAVCWnd@@I@std@@@3@$0A@@std@@@2@I@Z 00411fc0 f i MultiSplitterView.obj
 0001:00010fc0       ?deallocate@?$allocator@U_Node@?$_List_nod@USalesItemLine@CCheckDoc@@V?$allocator@USalesItemLine@CCheckDoc@@@std@@@std@@@std@@QAEXPAU_Node@?$_List_nod@USalesItemLine@CCheckDoc@@V?$allocator@USalesItemLine@CCheckDoc@@@std@@@2@I@Z 00411fc0 f i CheckDoc.obj
 0001:00010fc0       ?deallocate@?$allocator@U_Node@?$_Tree_nod@V?$_Tmap_traits@V?$basic_string@_WU?$char_traits@_W@std@@V?$allocator@_W@2@@std@@V12@U?$less@V?$basic_string@_WU?$char_traits@_W@std@@V?$allocator@_W@2@@std@@@2@V?$allocator@U?$pair@$$CBV?$basic_string@_WU?$char_traits@_W@std@@V?$allocator@_W@2@@std@@V12@@std@@@2@$0A@@std@@@std@@@std@@QAEXPAU_Node@?$_Tree_nod@V?$_Tmap_traits@V?$basic_string@_WU?$char_traits@_W@std@@V?$allocator@_W@2@@std@@V12@U?$less@V?$basic_string@_WU?$char_traits@_W@std@@V?$allocator@_W@2@@std@@@2@V?$allocator@U?$pair@$$CBV?$basic_string@_WU?$char_traits@_W@std@@V?$allocator@_W@2@@std@@V12@@std@@@2@$0A@@std@@@2@I@Z 00411fc0 f i CheckDoc.obj
 0001:00010fc0       ?deallocate@?$allocator@_W@std@@QAEXPA_WI@Z 00411fc0 f i CashPrinter.obj
 0001:00010fc0       ?deallocate@?$allocator@U_Node@?$_Tree_nod@V?$_Tmap_traits@V?$CStringT@DV?$StrTraitMFC_DLL@DV?$ChTraitsCRT@D@ATL@@@@@ATL@@V?$shared_ptr@VCFont@@@tr1@std@@U?$less@V?$CStringT@DV?$StrTraitMFC_DLL@DV?$ChTraitsCRT@D@ATL@@@@@ATL@@@5@V?$allocator@U?$pair@$$CBV?$CStringT@DV?$StrTraitMFC_DLL@DV?$ChTraitsCRT@D@ATL@@@@@ATL@@V?$shared_ptr@VCFont@@@tr1@std@@@std@@@5@$0A@@std@@@std@@@std@@QAEXPAU_Node@?$_Tree_nod@V?$_Tmap_traits@V?$CStringT@DV?$StrTraitMFC_DLL@DV?$ChTraitsCRT@D@ATL@@@@@ATL@@V?$shared_ptr@VCFont@@@tr1@std@@U?$less@V?$CStringT@DV?$StrTraitMFC_DLL@DV?$ChTraitsCRT@D@ATL@@@@@ATL@@@5@V?$allocator@U?$pair@$$CBV?$CStringT@DV?$StrTraitMFC_DLL@DV?$ChTraitsCRT@D@ATL@@@@@ATL@@V?$shared_ptr@VCFont@@@tr1@std@@@std@@@5@$0A@@std@@@2@I@Z 00411fc0 f i DlgEnterCash.obj
 0001:00010fc0       ?deallocate@?$allocator@D@std@@QAEXPADI@Z 00411fc0 f i CheckDoc.obj
 0001:00010fc0       ?deallocate@?$allocator@U_Node@?$_Tree_nod@V?$_Tmap_traits@V?$CStringT@DV?$StrTraitMFC_DLL@DV?$ChTraitsCRT@D@ATL@@@@@ATL@@V?$CAdapt@V?$CComPtr@UIDispatch@@@ATL@@@2@U?$less@V?$CStringT@DV?$StrTraitMFC_DLL@DV?$ChTraitsCRT@D@ATL@@@@@ATL@@@std@@V?$allocator@U?$pair@$$CBV?$CStringT@DV?$StrTraitMFC_DLL@DV?$ChTraitsCRT@D@ATL@@@@@ATL@@V?$CAdapt@V?$CComPtr@UIDispatch@@@ATL@@@2@@std@@@5@$0A@@std@@@std@@@std@@QAEXPAU_Node@?$_Tree_nod@V?$_Tmap_traits@V?$CStringT@DV?$StrTraitMFC_DLL@DV?$ChTraitsCRT@D@ATL@@@@@ATL@@V?$CAdapt@V?$CComPtr@UIDispatch@@@ATL@@@2@U?$less@V?$CStringT@DV?$StrTraitMFC_DLL@DV?$ChTraitsCRT@D@ATL@@@@@ATL@@@std@@V?$allocator@U?$pair@$$CBV?$CStringT@DV?$StrTraitMFC_DLL@DV?$ChTraitsCRT@D@ATL@@@@@ATL@@V?$CAdapt@V?$CComPtr@UIDispatch@@@ATL@@@2@@std@@@5@$0A@@std@@@2@I@Z 00411fc0 f i DlgSelectGood.obj
 0001:00010fc0       ?deallocate@?$allocator@V?$tuple@V?$basic_string@_WU?$char_traits@_W@std@@V?$allocator@_W@2@@std@@V12@V12@V12@Unull_type@tuples@boost@@U345@U345@U345@U345@U345@@tuples@boost@@@std@@QAEXPAV?$tuple@V?$basic_string@_WU?$char_traits@_W@std@@V?$allocator@_W@2@@std@@V12@V12@V12@Unull_type@tuples@boost@@U345@U345@U345@U345@U345@@tuples@boost@@I@Z 00411fc0 f i DlgInsert.obj
 0001:00010fc0       ?deallocate@?$allocator@V?$shared_ptr@VRefItemV@@@boost@@@std@@QAEXPAV?$shared_ptr@VRefItemV@@@boost@@I@Z 00411fc0 f i CheckDoc.obj
 0001:00010fc0       ?deallocate@?$allocator@U_Node@?$_Tree_nod@V?$_Tmap_traits@V?$basic_string@_WU?$char_traits@_W@std@@V?$allocator@_W@2@@std@@PAU_TREEITEM@@U?$less@V?$basic_string@_WU?$char_traits@_W@std@@V?$allocator@_W@2@@std@@@2@V?$allocator@U?$pair@$$CBV?$basic_string@_WU?$char_traits@_W@std@@V?$allocator@_W@2@@std@@PAU_TREEITEM@@@std@@@2@$0A@@std@@@std@@@std@@QAEXPAU_Node@?$_Tree_nod@V?$_Tmap_traits@V?$basic_string@_WU?$char_traits@_W@std@@V?$allocator@_W@2@@std@@PAU_TREEITEM@@U?$less@V?$basic_string@_WU?$char_traits@_W@std@@V?$allocator@_W@2@@std@@@2@V?$allocator@U?$pair@$$CBV?$basic_string@_WU?$char_traits@_W@std@@V?$allocator@_W@2@@std@@PAU_TREEITEM@@@std@@@2@$0A@@std@@@2@I@Z 00411fc0 f i SuperTree.obj
 0001:00010fc0       ?deallocate@?$allocator@V?$tuple@V?$basic_string@_WU?$char_traits@_W@std@@V?$allocator@_W@2@@std@@V12@V12@Unull_type@tuples@boost@@U345@U345@U345@U345@U345@U345@@tuples@boost@@@std@@QAEXPAV?$tuple@V?$basic_string@_WU?$char_traits@_W@std@@V?$allocator@_W@2@@std@@V12@V12@Unull_type@tuples@boost@@U345@U345@U345@U345@U345@U345@@tuples@boost@@I@Z 00411fc0 f i DlgFindAll.obj
 0001:00010fc0       ?deallocate@?$allocator@V?$tuple@V?$basic_string@_WU?$char_traits@_W@std@@V?$allocator@_W@2@@std@@V12@_NV12@V?$shared_ptr@VRefItemV@@@boost@@Unull_type@tuples@4@U564@U564@U564@U564@@tuples@boost@@@std@@QAEXPAV?$tuple@V?$basic_string@_WU?$char_traits@_W@std@@V?$allocator@_W@2@@std@@V12@_NV12@V?$shared_ptr@VRefItemV@@@boost@@Unull_type@tuples@4@U564@U564@U564@U564@@tuples@boost@@I@Z 00411fc0 f i CheckDoc.obj
 0001:00010fc0       ?deallocate@?$allocator@V?$tuple@HV?$basic_string@_WU?$char_traits@_W@std@@V?$allocator@_W@2@@std@@V12@V12@Unull_type@tuples@boost@@U345@U345@U345@U345@U345@@tuples@boost@@@std@@QAEXPAV?$tuple@HV?$basic_string@_WU?$char_traits@_W@std@@V?$allocator@_W@2@@std@@V12@V12@Unull_type@tuples@boost@@U345@U345@U345@U345@U345@@tuples@boost@@I@Z 00411fc0 f i DlgSelectGood.obj
 0001:00010fc0       ?deallocate@?$allocator@U_Node@?$_Tree_nod@V?$_Tmap_traits@V?$basic_string@_WU?$char_traits@_W@std@@V?$allocator@_W@2@@std@@V?$tuple@V?$basic_string@_WU?$char_traits@_W@std@@V?$allocator@_W@2@@std@@V12@Unull_type@tuples@boost@@U345@U345@U345@U345@U345@U345@U345@@tuples@boost@@U?$less@V?$basic_string@_WU?$char_traits@_W@std@@V?$allocator@_W@2@@std@@@2@V?$allocator@U?$pair@$$CBV?$basic_string@_WU?$char_traits@_W@std@@V?$allocator@_W@2@@std@@V?$tuple@V?$basic_string@_WU?$char_traits@_W@std@@V?$allocator@_W@2@@std@@V12@Unull_type@tuples@boost@@U345@U345@U345@U345@U345@U345@U345@@tuples@boost@@@std@@@2@$00@std@@@std@@@std@@QAEXPAU_Node@?$_Tree_nod@V?$_Tmap_traits@V?$basic_string@_WU?$char_traits@_W@std@@V?$allocator@_W@2@@std@@V?$tuple@V?$basic_string@_WU?$char_traits@_W@std@@V?$allocator@_W@2@@std@@V12@Unull_type@tuples@boost@@U345@U345@U345@U345@U345@U345@U345@@tuples@boost@@U?$less@V?$basic_string@_WU?$char_traits@_W@std@@V?$allocator@_W@2@@std@@@2@V?$allocator@U?$pair@$$CBV?$basic_string@_WU?$char_traits@_W@std@@V?$allocator@_W@2@@std@@V?$tuple@V?$basic_string@_WU?$char_traits@_W@std@@V?$allocator@_W@2@@std@@V12@Unull_type@tuples@boost@@U345@U345@U345@U345@U345@U345@U345@@tuples@boost@@@std@@@2@$00@std@@@2@I@Z 00411fc0 f i SuperTree.obj
 0001:00010fc0       ?deallocate@?$allocator@V?$CStringT@DV?$StrTraitMFC_DLL@DV?$ChTraitsCRT@D@ATL@@@@@ATL@@@std@@QAEXPAV?$CStringT@DV?$StrTraitMFC_DLL@DV?$ChTraitsCRT@D@ATL@@@@@ATL@@I@Z 00411fc0 f i OutputWnd.obj
 0001:00010fc0       ?deallocate@?$allocator@V?$tuple@V?$basic_string@_WU?$char_traits@_W@std@@V?$allocator@_W@2@@std@@V12@V12@V?$shared_ptr@VRefItemV@@@boost@@Unull_type@tuples@4@U564@U564@U564@U564@U564@@tuples@boost@@@std@@QAEXPAV?$tuple@V?$basic_string@_WU?$char_traits@_W@std@@V?$allocator@_W@2@@std@@V12@V12@V?$shared_ptr@VRefItemV@@@boost@@Unull_type@tuples@4@U564@U564@U564@U564@U564@@tuples@boost@@I@Z 00411fc0 f i CheckDoc.obj
 0001:00010fc0       ?deallocate@?$allocator@U_Node@?$_Tree_nod@V?$_Tmap_traits@$$CBV?$basic_string@_WU?$char_traits@_W@std@@V?$allocator@_W@2@@std@@V_variant_t@@U?$less@$$CBV?$basic_string@_WU?$char_traits@_W@std@@V?$allocator@_W@2@@std@@@2@V?$allocator@U?$pair@$$CBV?$basic_string@_WU?$char_traits@_W@std@@V?$allocator@_W@2@@std@@V_variant_t@@@std@@@2@$0A@@std@@@std@@@std@@QAEXPAU_Node@?$_Tree_nod@V?$_Tmap_traits@$$CBV?$basic_string@_WU?$char_traits@_W@std@@V?$allocator@_W@2@@std@@V_variant_t@@U?$less@$$CBV?$basic_string@_WU?$char_traits@_W@std@@V?$allocator@_W@2@@std@@@2@V?$allocator@U?$pair@$$CBV?$basic_string@_WU?$char_traits@_W@std@@V?$allocator@_W@2@@std@@V_variant_t@@@std@@@2@$0A@@std@@@2@I@Z 00411fc0 f i CheckDoc.obj
 0001:00010fe0       ?capacity@?$vector@V?$tuple@V?$basic_string@_WU?$char_traits@_W@std@@V?$allocator@_W@2@@std@@V12@V12@V?$shared_ptr@VRefItemV@@@boost@@Unull_type@tuples@4@U564@U564@U564@U564@U564@@tuples@boost@@V?$allocator@V?$tuple@V?$basic_string@_WU?$char_traits@_W@std@@V?$allocator@_W@2@@std@@V12@V12@V?$shared_ptr@VRefItemV@@@boost@@Unull_type@tuples@4@U564@U564@U564@U564@U564@@tuples@boost@@@std@@@std@@QBEIXZ 00411fe0 f i CheckDoc.obj
 0001:00011000       ?begin@?$vector@V?$tuple@V?$basic_string@_WU?$char_traits@_W@std@@V?$allocator@_W@2@@std@@V12@_NV12@V?$shared_ptr@VRefItemV@@@boost@@Unull_type@tuples@4@U564@U564@U564@U564@@tuples@boost@@V?$allocator@V?$tuple@V?$basic_string@_WU?$char_traits@_W@std@@V?$allocator@_W@2@@std@@V12@_NV12@V?$shared_ptr@VRefItemV@@@boost@@Unull_type@tuples@4@U564@U564@U564@U564@@tuples@boost@@@std@@@std@@QBE?AV?$_Vector_const_iterator@V?$_Vector_val@V?$tuple@V?$basic_string@_WU?$char_traits@_W@std@@V?$allocator@_W@2@@std@@V12@_NV12@V?$shared_ptr@VRefItemV@@@boost@@Unull_type@tuples@4@U564@U564@U564@U564@@tuples@boost@@V?$allocator@V?$tuple@V?$basic_string@_WU?$char_traits@_W@std@@V?$allocator@_W@2@@std@@V12@_NV12@V?$shared_ptr@VRefItemV@@@boost@@Unull_type@tuples@4@U564@U564@U564@U564@@tuples@boost@@@std@@@std@@@2@XZ 00412000 f i CheckDoc.obj
 0001:00011000       ?begin@?$vector@V?$tuple@V?$basic_string@_WU?$char_traits@_W@std@@V?$allocator@_W@2@@std@@V12@V12@V?$shared_ptr@VRefItemV@@@boost@@Unull_type@tuples@4@U564@U564@U564@U564@U564@@tuples@boost@@V?$allocator@V?$tuple@V?$basic_string@_WU?$char_traits@_W@std@@V?$allocator@_W@2@@std@@V12@V12@V?$shared_ptr@VRefItemV@@@boost@@Unull_type@tuples@4@U564@U564@U564@U564@U564@@tuples@boost@@@std@@@std@@QBE?AV?$_Vector_const_iterator@V?$_Vector_val@V?$tuple@V?$basic_string@_WU?$char_traits@_W@std@@V?$allocator@_W@2@@std@@V12@V12@V?$shared_ptr@VRefItemV@@@boost@@Unull_type@tuples@4@U564@U564@U564@U564@U564@@tuples@boost@@V?$allocator@V?$tuple@V?$basic_string@_WU?$char_traits@_W@std@@V?$allocator@_W@2@@std@@V12@V12@V?$shared_ptr@VRefItemV@@@boost@@Unull_type@tuples@4@U564@U564@U564@U564@U564@@tuples@boost@@@std@@@std@@@2@XZ 00412000 f i CheckDoc.obj
 0001:00011030       ?end@?$vector@V?$tuple@V?$basic_string@_WU?$char_traits@_W@std@@V?$allocator@_W@2@@std@@V12@V12@V?$shared_ptr@VRefItemV@@@boost@@Unull_type@tuples@4@U564@U564@U564@U564@U564@@tuples@boost@@V?$allocator@V?$tuple@V?$basic_string@_WU?$char_traits@_W@std@@V?$allocator@_W@2@@std@@V12@V12@V?$shared_ptr@VRefItemV@@@boost@@Unull_type@tuples@4@U564@U564@U564@U564@U564@@tuples@boost@@@std@@@std@@QBE?AV?$_Vector_const_iterator@V?$_Vector_val@V?$tuple@V?$basic_string@_WU?$char_traits@_W@std@@V?$allocator@_W@2@@std@@V12@V12@V?$shared_ptr@VRefItemV@@@boost@@Unull_type@tuples@4@U564@U564@U564@U564@U564@@tuples@boost@@V?$allocator@V?$tuple@V?$basic_string@_WU?$char_traits@_W@std@@V?$allocator@_W@2@@std@@V12@V12@V?$shared_ptr@VRefItemV@@@boost@@Unull_type@tuples@4@U564@U564@U564@U564@U564@@tuples@boost@@@std@@@std@@@2@XZ 00412030 f i CheckDoc.obj
 0001:00011030       ?end@?$vector@V?$tuple@V?$basic_string@_WU?$char_traits@_W@std@@V?$allocator@_W@2@@std@@V12@_NV12@V?$shared_ptr@VRefItemV@@@boost@@Unull_type@tuples@4@U564@U564@U564@U564@@tuples@boost@@V?$allocator@V?$tuple@V?$basic_string@_WU?$char_traits@_W@std@@V?$allocator@_W@2@@std@@V12@_NV12@V?$shared_ptr@VRefItemV@@@boost@@Unull_type@tuples@4@U564@U564@U564@U564@@tuples@boost@@@std@@@std@@QBE?AV?$_Vector_const_iterator@V?$_Vector_val@V?$tuple@V?$basic_string@_WU?$char_traits@_W@std@@V?$allocator@_W@2@@std@@V12@_NV12@V?$shared_ptr@VRefItemV@@@boost@@Unull_type@tuples@4@U564@U564@U564@U564@@tuples@boost@@V?$allocator@V?$tuple@V?$basic_string@_WU?$char_traits@_W@std@@V?$allocator@_W@2@@std@@V12@_NV12@V?$shared_ptr@VRefItemV@@@boost@@Unull_type@tuples@4@U564@U564@U564@U564@@tuples@boost@@@std@@@std@@@2@XZ 00412030 f i CheckDoc.obj
 0001:00011060       ?size@?$vector@V?$tuple@V?$basic_string@_WU?$char_traits@_W@std@@V?$allocator@_W@2@@std@@V12@V12@V?$shared_ptr@VRefItemV@@@boost@@Unull_type@tuples@4@U564@U564@U564@U564@U564@@tuples@boost@@V?$allocator@V?$tuple@V?$basic_string@_WU?$char_traits@_W@std@@V?$allocator@_W@2@@std@@V12@V12@V?$shared_ptr@VRefItemV@@@boost@@Unull_type@tuples@4@U564@U564@U564@U564@U564@@tuples@boost@@@std@@@std@@QBEIXZ 00412060 f i CheckDoc.obj
 0001:00011080       ?clear@?$vector@V?$tuple@V?$basic_string@_WU?$char_traits@_W@std@@V?$allocator@_W@2@@std@@V12@V12@V?$shared_ptr@VRefItemV@@@boost@@Unull_type@tuples@4@U564@U564@U564@U564@U564@@tuples@boost@@V?$allocator@V?$tuple@V?$basic_string@_WU?$char_traits@_W@std@@V?$allocator@_W@2@@std@@V12@V12@V?$shared_ptr@VRefItemV@@@boost@@Unull_type@tuples@4@U564@U564@U564@U564@U564@@tuples@boost@@@std@@@std@@QAEXXZ 00412080 f i CheckDoc.obj
 0001:000110d0       ?_Buy@?$vector@V?$tuple@V?$basic_string@_WU?$char_traits@_W@std@@V?$allocator@_W@2@@std@@V12@V12@V?$shared_ptr@VRefItemV@@@boost@@Unull_type@tuples@4@U564@U564@U564@U564@U564@@tuples@boost@@V?$allocator@V?$tuple@V?$basic_string@_WU?$char_traits@_W@std@@V?$allocator@_W@2@@std@@V12@V12@V?$shared_ptr@VRefItemV@@@boost@@Unull_type@tuples@4@U564@U564@U564@U564@U564@@tuples@boost@@@std@@@std@@IAE_NI@Z 004120d0 f i CheckDoc.obj
 0001:00011150       ?_Destroy@?$vector@V?$tuple@V?$basic_string@_WU?$char_traits@_W@std@@V?$allocator@_W@2@@std@@V12@V12@V?$shared_ptr@VRefItemV@@@boost@@Unull_type@tuples@4@U564@U564@U564@U564@U564@@tuples@boost@@V?$allocator@V?$tuple@V?$basic_string@_WU?$char_traits@_W@std@@V?$allocator@_W@2@@std@@V12@V12@V?$shared_ptr@VRefItemV@@@boost@@Unull_type@tuples@4@U564@U564@U564@U564@U564@@tuples@boost@@@std@@@std@@IAEXPAV?$tuple@V?$basic_string@_WU?$char_traits@_W@std@@V?$allocator@_W@2@@std@@V12@V12@V?$shared_ptr@VRefItemV@@@boost@@Unull_type@tuples@4@U564@U564@U564@U564@U564@@tuples@boost@@0@Z 00412150 f i CheckDoc.obj
 0001:00011180       ?_Tidy@?$vector@V?$tuple@V?$basic_string@_WU?$char_traits@_W@std@@V?$allocator@_W@2@@std@@V12@V12@V?$shared_ptr@VRefItemV@@@boost@@Unull_type@tuples@4@U564@U564@U564@U564@U564@@tuples@boost@@V?$allocator@V?$tuple@V?$basic_string@_WU?$char_traits@_W@std@@V?$allocator@_W@2@@std@@V12@V12@V?$shared_ptr@VRefItemV@@@boost@@Unull_type@tuples@4@U564@U564@U564@U564@U564@@tuples@boost@@@std@@@std@@IAEXXZ 00412180 f i CheckDoc.obj
 0001:00011200       ?capacity@?$vector@V?$tuple@V?$basic_string@_WU?$char_traits@_W@std@@V?$allocator@_W@2@@std@@V12@_NV12@V?$shared_ptr@VRefItemV@@@boost@@Unull_type@tuples@4@U564@U564@U564@U564@@tuples@boost@@V?$allocator@V?$tuple@V?$basic_string@_WU?$char_traits@_W@std@@V?$allocator@_W@2@@std@@V12@_NV12@V?$shared_ptr@VRefItemV@@@boost@@Unull_type@tuples@4@U564@U564@U564@U564@@tuples@boost@@@std@@@std@@QBEIXZ 00412200 f i CheckDoc.obj
 0001:00011220       ?size@?$vector@V?$tuple@V?$basic_string@_WU?$char_traits@_W@std@@V?$allocator@_W@2@@std@@V12@_NV12@V?$shared_ptr@VRefItemV@@@boost@@Unull_type@tuples@4@U564@U564@U564@U564@@tuples@boost@@V?$allocator@V?$tuple@V?$basic_string@_WU?$char_traits@_W@std@@V?$allocator@_W@2@@std@@V12@_NV12@V?$shared_ptr@VRefItemV@@@boost@@Unull_type@tuples@4@U564@U564@U564@U564@@tuples@boost@@@std@@@std@@QBEIXZ 00412220 f i CheckDoc.obj
 0001:00011240       ?clear@?$vector@V?$tuple@V?$basic_string@_WU?$char_traits@_W@std@@V?$allocator@_W@2@@std@@V12@_NV12@V?$shared_ptr@VRefItemV@@@boost@@Unull_type@tuples@4@U564@U564@U564@U564@@tuples@boost@@V?$allocator@V?$tuple@V?$basic_string@_WU?$char_traits@_W@std@@V?$allocator@_W@2@@std@@V12@_NV12@V?$shared_ptr@VRefItemV@@@boost@@Unull_type@tuples@4@U564@U564@U564@U564@@tuples@boost@@@std@@@std@@QAEXXZ 00412240 f i CheckDoc.obj
 0001:00011290       ?_Buy@?$vector@V?$tuple@V?$basic_string@_WU?$char_traits@_W@std@@V?$allocator@_W@2@@std@@V12@_NV12@V?$shared_ptr@VRefItemV@@@boost@@Unull_type@tuples@4@U564@U564@U564@U564@@tuples@boost@@V?$allocator@V?$tuple@V?$basic_string@_WU?$char_traits@_W@std@@V?$allocator@_W@2@@std@@V12@_NV12@V?$shared_ptr@VRefItemV@@@boost@@Unull_type@tuples@4@U564@U564@U564@U564@@tuples@boost@@@std@@@std@@IAE_NI@Z 00412290 f i CheckDoc.obj
 0001:00011310       ?_Destroy@?$vector@V?$tuple@V?$basic_string@_WU?$char_traits@_W@std@@V?$allocator@_W@2@@std@@V12@_NV12@V?$shared_ptr@VRefItemV@@@boost@@Unull_type@tuples@4@U564@U564@U564@U564@@tuples@boost@@V?$allocator@V?$tuple@V?$basic_string@_WU?$char_traits@_W@std@@V?$allocator@_W@2@@std@@V12@_NV12@V?$shared_ptr@VRefItemV@@@boost@@Unull_type@tuples@4@U564@U564@U564@U564@@tuples@boost@@@std@@@std@@IAEXPAV?$tuple@V?$basic_string@_WU?$char_traits@_W@std@@V?$allocator@_W@2@@std@@V12@_NV12@V?$shared_ptr@VRefItemV@@@boost@@Unull_type@tuples@4@U564@U564@U564@U564@@tuples@boost@@0@Z 00412310 f i CheckDoc.obj
 0001:00011340       ?_Tidy@?$vector@V?$tuple@V?$basic_string@_WU?$char_traits@_W@std@@V?$allocator@_W@2@@std@@V12@_NV12@V?$shared_ptr@VRefItemV@@@boost@@Unull_type@tuples@4@U564@U564@U564@U564@@tuples@boost@@V?$allocator@V?$tuple@V?$basic_string@_WU?$char_traits@_W@std@@V?$allocator@_W@2@@std@@V12@_NV12@V?$shared_ptr@VRefItemV@@@boost@@Unull_type@tuples@4@U564@U564@U564@U564@@tuples@boost@@@std@@@std@@IAEXXZ 00412340 f i CheckDoc.obj
 0001:000113c0       ??8?$_Vector_const_iterator@V?$_Vector_val@DV?$allocator@D@std@@@std@@@std@@QBE_NABV01@@Z 004123c0 f i DlgSetQuantity.obj
 0001:000113c0       ??8?$_Vector_const_iterator@V?$_Vector_val@V?$tuple@V?$basic_string@_WU?$char_traits@_W@std@@V?$allocator@_W@2@@std@@V12@V12@V?$shared_ptr@VRefItemV@@@boost@@Unull_type@tuples@4@U564@U564@U564@U564@U564@@tuples@boost@@V?$allocator@V?$tuple@V?$basic_string@_WU?$char_traits@_W@std@@V?$allocator@_W@2@@std@@V12@V12@V?$shared_ptr@VRefItemV@@@boost@@Unull_type@tuples@4@U564@U564@U564@U564@U564@@tuples@boost@@@std@@@std@@@std@@QBE_NABV01@@Z 004123c0 f i CheckDoc.obj
 0001:000113c0       ??8?$_Vector_const_iterator@V?$_Vector_val@V?$tuple@HV?$basic_string@_WU?$char_traits@_W@std@@V?$allocator@_W@2@@std@@V12@V12@Unull_type@tuples@boost@@U345@U345@U345@U345@U345@@tuples@boost@@V?$allocator@V?$tuple@HV?$basic_string@_WU?$char_traits@_W@std@@V?$allocator@_W@2@@std@@V12@V12@Unull_type@tuples@boost@@U345@U345@U345@U345@U345@@tuples@boost@@@std@@@std@@@std@@QBE_NABV01@@Z 004123c0 f i DlgSelectGood.obj
 0001:000113c0       ??8?$_Vector_const_iterator@V?$_Vector_val@V?$tuple@V?$basic_string@_WU?$char_traits@_W@std@@V?$allocator@_W@2@@std@@V12@V12@Unull_type@tuples@boost@@U345@U345@U345@U345@U345@U345@@tuples@boost@@V?$allocator@V?$tuple@V?$basic_string@_WU?$char_traits@_W@std@@V?$allocator@_W@2@@std@@V12@V12@Unull_type@tuples@boost@@U345@U345@U345@U345@U345@U345@@tuples@boost@@@std@@@std@@@std@@QBE_NABV01@@Z 004123c0 f i DlgFindAll.obj
 0001:000113c0       ??8?$_String_const_iterator@_WU?$char_traits@_W@std@@V?$allocator@_W@2@@std@@QBE_NABV01@@Z 004123c0 f i CheckDoc.obj
 0001:000113c0       ??8?$_Vector_const_iterator@V?$_Vector_val@V?$shared_ptr@VRefItemV@@@boost@@V?$allocator@V?$shared_ptr@VRefItemV@@@boost@@@std@@@std@@@std@@QBE_NABV01@@Z 004123c0 f i CheckDoc.obj
 0001:000113c0       ??8?$_Vector_const_iterator@V?$_Vector_val@V?$tuple@V?$basic_string@_WU?$char_traits@_W@std@@V?$allocator@_W@2@@std@@V12@V12@V12@Unull_type@tuples@boost@@U345@U345@U345@U345@U345@@tuples@boost@@V?$allocator@V?$tuple@V?$basic_string@_WU?$char_traits@_W@std@@V?$allocator@_W@2@@std@@V12@V12@V12@Unull_type@tuples@boost@@U345@U345@U345@U345@U345@@tuples@boost@@@std@@@std@@@std@@QBE_NABV01@@Z 004123c0 f i DlgInsert.obj
 0001:000113c0       ??8?$_Vector_const_iterator@V?$_Vector_val@V?$tuple@V?$basic_string@_WU?$char_traits@_W@std@@V?$allocator@_W@2@@std@@V12@_NV12@V?$shared_ptr@VRefItemV@@@boost@@Unull_type@tuples@4@U564@U564@U564@U564@@tuples@boost@@V?$allocator@V?$tuple@V?$basic_string@_WU?$char_traits@_W@std@@V?$allocator@_W@2@@std@@V12@_NV12@V?$shared_ptr@VRefItemV@@@boost@@Unull_type@tuples@4@U564@U564@U564@U564@@tuples@boost@@@std@@@std@@@std@@QBE_NABV01@@Z 004123c0 f i CheckDoc.obj
 0001:000113f0       ?_Init@?$basic_stringbuf@_WU?$char_traits@_W@std@@V?$allocator@_W@2@@std@@IAEXPB_WIH@Z 004123f0 f i CheckDoc.obj
 0001:00011500       ?_Getstate@?$basic_stringbuf@_WU?$char_traits@_W@std@@V?$allocator@_W@2@@std@@AAEHH@Z 00412500 f i CheckDoc.obj
 0001:00011560       ??0?$SQLSearchStrategy@UProducts@@V?$RefCreator@UProducts@@$00@@@@QAE@XZ 00412560 f i CheckDoc.obj
 0001:000115d0       ??0?$SQLSearchStrategy@UUnits@@V?$RefCreator@UUnits@@$00@@@@QAE@XZ 004125d0 f i CheckDoc.obj
 0001:00011640       ??0?$SQLSearchStrategy@UPrices@@V?$RefCreator@UPrices@@$00@@@@QAE@XZ 00412640 f i CheckDoc.obj
 0001:000116b0       ?_Incsize@?$list@USalesItemLine@CCheckDoc@@V?$allocator@USalesItemLine@CCheckDoc@@@std@@@std@@QAEXI@Z 004126b0 f i CheckDoc.obj
 0001:000116f0       ?_Buynode@?$_List_val@USalesItemLine@CCheckDoc@@V?$allocator@USalesItemLine@CCheckDoc@@@std@@@std@@QAEPAU_Node@?$_List_nod@USalesItemLine@CCheckDoc@@V?$allocator@USalesItemLine@CCheckDoc@@@std@@@2@PAU342@0ABUSalesItemLine@CCheckDoc@@@Z 004126f0 f i CheckDoc.obj
 0001:000117e0       ??0?$_List_nod@USalesItemLine@CCheckDoc@@V?$allocator@USalesItemLine@CCheckDoc@@@std@@@std@@QAE@V?$allocator@USalesItemLine@CCheckDoc@@@1@@Z 004127e0 f i CheckDoc.obj
 0001:00011810       ?allocate@?$allocator@U_Node@?$_List_nod@USalesItemLine@CCheckDoc@@V?$allocator@USalesItemLine@CCheckDoc@@@std@@@std@@@std@@QAEPAU_Node@?$_List_nod@USalesItemLine@CCheckDoc@@V?$allocator@USalesItemLine@CCheckDoc@@@std@@@2@I@Z 00412810 f i CheckDoc.obj
 0001:00011830       ?_Destroy@?$vector@DV?$allocator@D@std@@@std@@IAEXPAD0@Z 00412830 f i CheckDoc.obj
 0001:00011860       ?LoadDataInReference@?$RefCreator@UTypePrice@@$00@@SAHV?$shared_ptr@VDbContext@@@boost@@V?$basic_string@_WU?$char_traits@_W@std@@V?$allocator@_W@2@@std@@AAV?$DataHolder@UTypePrice@@$00@@@Z 00412860 f i CheckDoc.obj
 0001:000121b0       ??0RefItemV@@QAE@V?$basic_string@_WU?$char_traits@_W@std@@V?$allocator@_W@2@@std@@0@Z 004131b0 f i CheckDoc.obj
 0001:00012250       ?Execute@DbContext@@QBE?AV?$shared_ptr@U_Recordset@@@boost@@ABV?$basic_string@_WU?$char_traits@_W@std@@V?$allocator@_W@2@@std@@@Z 00413250 f i CheckDoc.obj
 0001:00012490       ?TESTHR@@YAXJ@Z            00413490 f i 1CHelper.obj
 0001:00012490       ?CheckError@_com_util@@YAXJ@Z 00413490 f i 1CHelper.obj
 0001:00012490       ?TESTHR@DbContext@@SAXJ@Z  00413490 f i CheckDoc.obj
 0001:000124b0       ??0DbContextError@DbContext@@QAE@PBDPAV?$basic_ostream@DU?$char_traits@D@std@@@std@@@Z 004134b0 f i CheckDoc.obj
 0001:000124f0       ??0RecordsetDeleter@DbContext@@QAE@XZ 004134f0 f i CheckDoc.obj
 0001:00012520       ??1RefItemError@?$RefItemT@UVariantType@@V?$RefItemTraits@UVariantType@@@@@@UAE@XZ 00413520 f i CheckDoc.obj
 0001:00012520       ??1DbContextError@DbContext@@UAE@XZ 00413520 f i CheckDoc.obj
 0001:00012520       ??1CTableValueError@CTableValue@@UAE@XZ 00413520 f i TableValue1.obj
 0001:00012520       ??1SQLSearchStrategyError@?$SQLSearchStrategy@UEmployees@@V?$RefCreator@UEmployees@@$00@@@@UAE@XZ 00413520 f i DlgLogin.obj
 0001:00012540       ??0DbContextError@DbContext@@QAE@ABV01@@Z 00413540 f i CheckDoc.obj
 0001:00012580       ?CreateInstance@?$_com_ptr_t@V?$_com_IIID@U_Recordset@@$1?_GUID_00000556_0000_0010_8000_00aa006d2ea4@@3U__s_GUID@@B@@@@QAEJABU_GUID@@PAUIUnknown@@K@Z 00413580 f i CheckDoc.obj
 0001:00012640       ??0?$RefItemT@UVariantType@@V?$RefItemTraits@UVariantType@@@@@@QAE@V?$basic_string@_WU?$char_traits@_W@std@@V?$allocator@_W@2@@std@@0@Z 00413640 f i CheckDoc.obj
 0001:000126d0       ?CreateInstance@?$_com_ptr_t@V?$_com_IIID@U_Command@@$1?_GUID_b08400bd_f9d1_4d02_b856_71d5dba123e9@@3U__s_GUID@@B@@@@QAEJABU_GUID@@PAUIUnknown@@K@Z 004136d0 f i CheckDoc.obj
 0001:00012790       ?GetIID@?$_com_ptr_t@V?$_com_IIID@U_Recordset@@$1?_GUID_00000556_0000_0010_8000_00aa006d2ea4@@3U__s_GUID@@B@@@@SAABU_GUID@@XZ 00413790 f i CheckDoc.obj
 0001:000127a0       ??0?$map@$$CBV?$basic_string@_WU?$char_traits@_W@std@@V?$allocator@_W@2@@std@@V_variant_t@@U?$less@$$CBV?$basic_string@_WU?$char_traits@_W@std@@V?$allocator@_W@2@@std@@@2@V?$allocator@U?$pair@$$CBV?$basic_string@_WU?$char_traits@_W@std@@V?$allocator@_W@2@@std@@V_variant_t@@@std@@@2@@std@@QAE@XZ 004137a0 f i CheckDoc.obj
 0001:000127d0       ?GetIID@?$_com_ptr_t@V?$_com_IIID@U_Command@@$1?_GUID_b08400bd_f9d1_4d02_b856_71d5dba123e9@@3U__s_GUID@@B@@@@SAABU_GUID@@XZ 004137d0 f i CheckDoc.obj
 0001:000127e0       ?GetIID@?$_com_IIID@U_Recordset@@$1?_GUID_00000556_0000_0010_8000_00aa006d2ea4@@3U__s_GUID@@B@@SAABU_GUID@@XZ 004137e0 f i CheckDoc.obj
 0001:000127f0       ??0?$_Tree@V?$_Tmap_traits@$$CBV?$basic_string@_WU?$char_traits@_W@std@@V?$allocator@_W@2@@std@@V_variant_t@@U?$less@$$CBV?$basic_string@_WU?$char_traits@_W@std@@V?$allocator@_W@2@@std@@@2@V?$allocator@U?$pair@$$CBV?$basic_string@_WU?$char_traits@_W@std@@V?$allocator@_W@2@@std@@V_variant_t@@@std@@@2@$0A@@std@@@std@@QAE@ABU?$less@$$CBV?$basic_string@_WU?$char_traits@_W@std@@V?$allocator@_W@2@@std@@@1@ABV?$allocator@U?$pair@$$CBV?$basic_string@_WU?$char_traits@_W@std@@V?$allocator@_W@2@@std@@V_variant_t@@@std@@@1@@Z 004137f0 f i CheckDoc.obj
 0001:00012820       ?GetIID@?$_com_IIID@U_Command@@$1?_GUID_b08400bd_f9d1_4d02_b856_71d5dba123e9@@3U__s_GUID@@B@@SAABU_GUID@@XZ 00413820 f i CheckDoc.obj
 0001:00012830       ?FindFromCodeStmt@?$EntityMapper@UTypePrice@@V?$Mapper@UTypePrice@@@@@@QAE?BV?$basic_string@_WU?$char_traits@_W@std@@V?$allocator@_W@2@@std@@V23@@Z 00413830 f i CheckDoc.obj
 0001:000129e0       ??D?$_Tree_unchecked_const_iterator@V?$_Tree_val@V?$_Tmap_traits@$$CBV?$basic_string@_WU?$char_traits@_W@std@@V?$allocator@_W@2@@std@@V_variant_t@@U?$less@$$CBV?$basic_string@_WU?$char_traits@_W@std@@V?$allocator@_W@2@@std@@@2@V?$allocator@U?$pair@$$CBV?$basic_string@_WU?$char_traits@_W@std@@V?$allocator@_W@2@@std@@V_variant_t@@@std@@@2@$0A@@std@@@std@@U_Iterator_base0@2@@std@@QBEABU?$pair@$$CBV?$basic_string@_WU?$char_traits@_W@std@@V?$allocator@_W@2@@std@@V_variant_t@@@1@XZ 004139e0 f i CheckDoc.obj
 0001:00012a00       ?setAttribute@?$RefItemT@UVariantType@@V?$RefItemTraits@UVariantType@@@@@@QAEXV?$basic_string@_WU?$char_traits@_W@std@@V?$allocator@_W@2@@std@@V_variant_t@@@Z 00413a00 f i CheckDoc.obj
 0001:00012ad0       ?_Lbound@?$_Tree@V?$_Tmap_traits@$$CBV?$basic_string@_WU?$char_traits@_W@std@@V?$allocator@_W@2@@std@@V_variant_t@@U?$less@$$CBV?$basic_string@_WU?$char_traits@_W@std@@V?$allocator@_W@2@@std@@@2@V?$allocator@U?$pair@$$CBV?$basic_string@_WU?$char_traits@_W@std@@V?$allocator@_W@2@@std@@V_variant_t@@@std@@@2@$0A@@std@@@std@@IAEPAU_Node@?$_Tree_nod@V?$_Tmap_traits@$$CBV?$basic_string@_WU?$char_traits@_W@std@@V?$allocator@_W@2@@std@@V_variant_t@@U?$less@$$CBV?$basic_string@_WU?$char_traits@_W@std@@V?$allocator@_W@2@@std@@@2@V?$allocator@U?$pair@$$CBV?$basic_string@_WU?$char_traits@_W@std@@V?$allocator@_W@2@@std@@V_variant_t@@@std@@@2@$0A@@std@@@2@ABV?$basic_string@_WU?$char_traits@_W@std@@V?$allocator@_W@2@@2@@Z 00413ad0 f i CheckDoc.obj
 0001:00012b60       ??0?$_Tree_val@V?$_Tmap_traits@$$CBV?$basic_string@_WU?$char_traits@_W@std@@V?$allocator@_W@2@@std@@V_variant_t@@U?$less@$$CBV?$basic_string@_WU?$char_traits@_W@std@@V?$allocator@_W@2@@std@@@2@V?$allocator@U?$pair@$$CBV?$basic_string@_WU?$char_traits@_W@std@@V?$allocator@_W@2@@std@@V_variant_t@@@std@@@2@$0A@@std@@@std@@QAE@ABU?$less@$$CBV?$basic_string@_WU?$char_traits@_W@std@@V?$allocator@_W@2@@std@@@1@V?$allocator@U?$pair@$$CBV?$basic_string@_WU?$char_traits@_W@std@@V?$allocator@_W@2@@std@@V_variant_t@@@std@@@1@@Z 00413b60 f i CheckDoc.obj
 0001:00012c10       ?_Myval@?$_Tree_val@V?$_Tmap_traits@$$CBV?$basic_string@_WU?$char_traits@_W@std@@V?$allocator@_W@2@@std@@V_variant_t@@U?$less@$$CBV?$basic_string@_WU?$char_traits@_W@std@@V?$allocator@_W@2@@std@@@2@V?$allocator@U?$pair@$$CBV?$basic_string@_WU?$char_traits@_W@std@@V?$allocator@_W@2@@std@@V_variant_t@@@std@@@2@$0A@@std@@@std@@SAAAU?$pair@$$CBV?$basic_string@_WU?$char_traits@_W@std@@V?$allocator@_W@2@@std@@V_variant_t@@@2@PAU_Node@?$_Tree_nod@V?$_Tmap_traits@$$CBV?$basic_string@_WU?$char_traits@_W@std@@V?$allocator@_W@2@@std@@V_variant_t@@U?$less@$$CBV?$basic_string@_WU?$char_traits@_W@std@@V?$allocator@_W@2@@std@@@2@V?$allocator@U?$pair@$$CBV?$basic_string@_WU?$char_traits@_W@std@@V?$allocator@_W@2@@std@@V_variant_t@@@std@@@2@$0A@@std@@@2@@Z 00413c10 f i CheckDoc.obj
 0001:00012c20       ??0?$map@V?$basic_string@_WU?$char_traits@_W@std@@V?$allocator@_W@2@@std@@V12@U?$less@V?$basic_string@_WU?$char_traits@_W@std@@V?$allocator@_W@2@@std@@@2@V?$allocator@U?$pair@$$CBV?$basic_string@_WU?$char_traits@_W@std@@V?$allocator@_W@2@@std@@V12@@std@@@2@@std@@QAE@ABV01@@Z 00413c20 f i CheckDoc.obj
 0001:00012c40       ??A?$map@V?$basic_string@_WU?$char_traits@_W@std@@V?$allocator@_W@2@@std@@V12@U?$less@V?$basic_string@_WU?$char_traits@_W@std@@V?$allocator@_W@2@@std@@@2@V?$allocator@U?$pair@$$CBV?$basic_string@_WU?$char_traits@_W@std@@V?$allocator@_W@2@@std@@V12@@std@@@2@@std@@QAEAAV?$basic_string@_WU?$char_traits@_W@std@@V?$allocator@_W@2@@1@ABV21@@Z 00413c40 f i CheckDoc.obj
 0001:00012d60       ?erase@?$_Tree@V?$_Tmap_traits@V?$basic_string@_WU?$char_traits@_W@std@@V?$allocator@_W@2@@std@@V12@U?$less@V?$basic_string@_WU?$char_traits@_W@std@@V?$allocator@_W@2@@std@@@2@V?$allocator@U?$pair@$$CBV?$basic_string@_WU?$char_traits@_W@std@@V?$allocator@_W@2@@std@@V12@@std@@@2@$0A@@std@@@std@@QAE?AV?$_Tree_iterator@V?$_Tree_val@V?$_Tmap_traits@V?$basic_string@_WU?$char_traits@_W@std@@V?$allocator@_W@2@@std@@V12@U?$less@V?$basic_string@_WU?$char_traits@_W@std@@V?$allocator@_W@2@@std@@@2@V?$allocator@U?$pair@$$CBV?$basic_string@_WU?$char_traits@_W@std@@V?$allocator@_W@2@@std@@V12@@std@@@2@$0A@@std@@@std@@@2@V?$_Tree_const_iterator@V?$_Tree_val@V?$_Tmap_traits@V?$basic_string@_WU?$char_traits@_W@std@@V?$allocator@_W@2@@std@@V12@U?$less@V?$basic_string@_WU?$char_traits@_W@std@@V?$allocator@_W@2@@std@@@2@V?$allocator@U?$pair@$$CBV?$basic_string@_WU?$char_traits@_W@std@@V?$allocator@_W@2@@std@@V12@@std@@@2@$0A@@std@@@std@@@2@0@Z 00413d60 f i CheckDoc.obj
 0001:00012e10       ?max_size@?$vector@V?$shared_ptr@VRefItemV@@@boost@@V?$allocator@V?$shared_ptr@VRefItemV@@@boost@@@std@@@std@@QBEIXZ 00413e10 f i CheckDoc.obj
 0001:00012e30       ?erase@?$vector@V?$shared_ptr@VRefItemV@@@boost@@V?$allocator@V?$shared_ptr@VRefItemV@@@boost@@@std@@@std@@QAE?AV?$_Vector_iterator@V?$_Vector_val@V?$shared_ptr@VRefItemV@@@boost@@V?$allocator@V?$shared_ptr@VRefItemV@@@boost@@@std@@@std@@@2@V?$_Vector_const_iterator@V?$_Vector_val@V?$shared_ptr@VRefItemV@@@boost@@V?$allocator@V?$shared_ptr@VRefItemV@@@boost@@@std@@@std@@@2@0@Z 00413e30 f i CheckDoc.obj
 0001:00012ec0       ?_Reserve@?$vector@V?$shared_ptr@VRefItemV@@@boost@@V?$allocator@V?$shared_ptr@VRefItemV@@@boost@@@std@@@std@@IAEXI@Z 00413ec0 f i CheckDoc.obj
 0001:00012f30       ?allocate@?$allocator@V?$shared_ptr@VRefItemV@@@boost@@@std@@QAEPAV?$shared_ptr@VRefItemV@@@boost@@I@Z 00413f30 f i CheckDoc.obj
 0001:00012f50       ?max_size@?$vector@V?$tuple@V?$basic_string@_WU?$char_traits@_W@std@@V?$allocator@_W@2@@std@@V12@V12@V?$shared_ptr@VRefItemV@@@boost@@Unull_type@tuples@4@U564@U564@U564@U564@U564@@tuples@boost@@V?$allocator@V?$tuple@V?$basic_string@_WU?$char_traits@_W@std@@V?$allocator@_W@2@@std@@V12@V12@V?$shared_ptr@VRefItemV@@@boost@@Unull_type@tuples@4@U564@U564@U564@U564@U564@@tuples@boost@@@std@@@std@@QBEIXZ 00413f50 f i CheckDoc.obj
 0001:00012f70       ?erase@?$vector@V?$tuple@V?$basic_string@_WU?$char_traits@_W@std@@V?$allocator@_W@2@@std@@V12@V12@V?$shared_ptr@VRefItemV@@@boost@@Unull_type@tuples@4@U564@U564@U564@U564@U564@@tuples@boost@@V?$allocator@V?$tuple@V?$basic_string@_WU?$char_traits@_W@std@@V?$allocator@_W@2@@std@@V12@V12@V?$shared_ptr@VRefItemV@@@boost@@Unull_type@tuples@4@U564@U564@U564@U564@U564@@tuples@boost@@@std@@@std@@QAE?AV?$_Vector_iterator@V?$_Vector_val@V?$tuple@V?$basic_string@_WU?$char_traits@_W@std@@V?$allocator@_W@2@@std@@V12@V12@V?$shared_ptr@VRefItemV@@@boost@@Unull_type@tuples@4@U564@U564@U564@U564@U564@@tuples@boost@@V?$allocator@V?$tuple@V?$basic_string@_WU?$char_traits@_W@std@@V?$allocator@_W@2@@std@@V12@V12@V?$shared_ptr@VRefItemV@@@boost@@Unull_type@tuples@4@U564@U564@U564@U564@U564@@tuples@boost@@@std@@@std@@@2@V?$_Vector_const_iterator@V?$_Vector_val@V?$tuple@V?$basic_string@_WU?$char_traits@_W@std@@V?$allocator@_W@2@@std@@V12@V12@V?$shared_ptr@VRefItemV@@@boost@@Unull_type@tuples@4@U564@U564@U564@U564@U564@@tuples@boost@@V?$allocator@V?$tuple@V?$basic_string@_WU?$char_traits@_W@std@@V?$allocator@_W@2@@std@@V12@V12@V?$shared_ptr@VRefItemV@@@boost@@Unull_type@tuples@4@U564@U564@U564@U564@U564@@tuples@boost@@@std@@@std@@@2@0@Z 00413f70 f i CheckDoc.obj
 0001:00013000       ?_Xlen@?$vector@V?$tuple@V?$basic_string@_WU?$char_traits@_W@std@@V?$allocator@_W@2@@std@@V12@_NV12@V?$shared_ptr@VRefItemV@@@boost@@Unull_type@tuples@4@U564@U564@U564@U564@@tuples@boost@@V?$allocator@V?$tuple@V?$basic_string@_WU?$char_traits@_W@std@@V?$allocator@_W@2@@std@@V12@_NV12@V?$shared_ptr@VRefItemV@@@boost@@Unull_type@tuples@4@U564@U564@U564@U564@@tuples@boost@@@std@@@std@@IBEXXZ 00414000 f i CheckDoc.obj
 0001:00013000       ?_Xlen@?$vector@DV?$allocator@D@std@@@std@@IBEXXZ 00414000 f i DlgSetQuantity.obj
 0001:00013000       ?_Xlen@?$vector@V?$tuple@V?$basic_string@_WU?$char_traits@_W@std@@V?$allocator@_W@2@@std@@V12@V12@Unull_type@tuples@boost@@U345@U345@U345@U345@U345@U345@@tuples@boost@@V?$allocator@V?$tuple@V?$basic_string@_WU?$char_traits@_W@std@@V?$allocator@_W@2@@std@@V12@V12@Unull_type@tuples@boost@@U345@U345@U345@U345@U345@U345@@tuples@boost@@@std@@@std@@IBEXXZ 00414000 f i DlgFindAll.obj
 0001:00013000       ?_Xlen@?$vector@V?$tuple@V?$basic_string@_WU?$char_traits@_W@std@@V?$allocator@_W@2@@std@@V12@V12@V?$shared_ptr@VRefItemV@@@boost@@Unull_type@tuples@4@U564@U564@U564@U564@U564@@tuples@boost@@V?$allocator@V?$tuple@V?$basic_string@_WU?$char_traits@_W@std@@V?$allocator@_W@2@@std@@V12@V12@V?$shared_ptr@VRefItemV@@@boost@@Unull_type@tuples@4@U564@U564@U564@U564@U564@@tuples@boost@@@std@@@std@@IBEXXZ 00414000 f i CheckDoc.obj
 0001:00013000       ?_Xlen@?$vector@V?$tuple@V?$basic_string@_WU?$char_traits@_W@std@@V?$allocator@_W@2@@std@@V12@V12@V12@Unull_type@tuples@boost@@U345@U345@U345@U345@U345@@tuples@boost@@V?$allocator@V?$tuple@V?$basic_string@_WU?$char_traits@_W@std@@V?$allocator@_W@2@@std@@V12@V12@V12@Unull_type@tuples@boost@@U345@U345@U345@U345@U345@@tuples@boost@@@std@@@std@@IBEXXZ 00414000 f i DlgInsert.obj
 0001:00013000       ?_Xlen@?$vector@V?$shared_ptr@VRefItemV@@@boost@@V?$allocator@V?$shared_ptr@VRefItemV@@@boost@@@std@@@std@@IBEXXZ 00414000 f i CheckDoc.obj
 0001:00013000       ?_Xlen@?$vector@V?$tuple@HV?$basic_string@_WU?$char_traits@_W@std@@V?$allocator@_W@2@@std@@V12@V12@Unull_type@tuples@boost@@U345@U345@U345@U345@U345@@tuples@boost@@V?$allocator@V?$tuple@HV?$basic_string@_WU?$char_traits@_W@std@@V?$allocator@_W@2@@std@@V12@V12@Unull_type@tuples@boost@@U345@U345@U345@U345@U345@@tuples@boost@@@std@@@std@@IBEXXZ 00414000 f i DlgSelectGood.obj
 0001:00013020       ?allocate@?$allocator@V?$tuple@V?$basic_string@_WU?$char_traits@_W@std@@V?$allocator@_W@2@@std@@V12@V12@V?$shared_ptr@VRefItemV@@@boost@@Unull_type@tuples@4@U564@U564@U564@U564@U564@@tuples@boost@@@std@@QAEPAV?$tuple@V?$basic_string@_WU?$char_traits@_W@std@@V?$allocator@_W@2@@std@@V12@V12@V?$shared_ptr@VRefItemV@@@boost@@Unull_type@tuples@4@U564@U564@U564@U564@U564@@tuples@boost@@I@Z 00414020 f i CheckDoc.obj
 0001:00013040       ?max_size@?$vector@V?$tuple@V?$basic_string@_WU?$char_traits@_W@std@@V?$allocator@_W@2@@std@@V12@_NV12@V?$shared_ptr@VRefItemV@@@boost@@Unull_type@tuples@4@U564@U564@U564@U564@@tuples@boost@@V?$allocator@V?$tuple@V?$basic_string@_WU?$char_traits@_W@std@@V?$allocator@_W@2@@std@@V12@_NV12@V?$shared_ptr@VRefItemV@@@boost@@Unull_type@tuples@4@U564@U564@U564@U564@@tuples@boost@@@std@@@std@@QBEIXZ 00414040 f i CheckDoc.obj
 0001:00013060       ?erase@?$vector@V?$tuple@V?$basic_string@_WU?$char_traits@_W@std@@V?$allocator@_W@2@@std@@V12@_NV12@V?$shared_ptr@VRefItemV@@@boost@@Unull_type@tuples@4@U564@U564@U564@U564@@tuples@boost@@V?$allocator@V?$tuple@V?$basic_string@_WU?$char_traits@_W@std@@V?$allocator@_W@2@@std@@V12@_NV12@V?$shared_ptr@VRefItemV@@@boost@@Unull_type@tuples@4@U564@U564@U564@U564@@tuples@boost@@@std@@@std@@QAE?AV?$_Vector_iterator@V?$_Vector_val@V?$tuple@V?$basic_string@_WU?$char_traits@_W@std@@V?$allocator@_W@2@@std@@V12@_NV12@V?$shared_ptr@VRefItemV@@@boost@@Unull_type@tuples@4@U564@U564@U564@U564@@tuples@boost@@V?$allocator@V?$tuple@V?$basic_string@_WU?$char_traits@_W@std@@V?$allocator@_W@2@@std@@V12@_NV12@V?$shared_ptr@VRefItemV@@@boost@@Unull_type@tuples@4@U564@U564@U564@U564@@tuples@boost@@@std@@@std@@@2@V?$_Vector_const_iterator@V?$_Vector_val@V?$tuple@V?$basic_string@_WU?$char_traits@_W@std@@V?$allocator@_W@2@@std@@V12@_NV12@V?$shared_ptr@VRefItemV@@@boost@@Unull_type@tuples@4@U564@U564@U564@U564@@tuples@boost@@V?$allocator@V?$tuple@V?$basic_string@_WU?$char_traits@_W@std@@V?$allocator@_W@2@@std@@V12@_NV12@V?$shared_ptr@VRefItemV@@@boost@@Unull_type@tuples@4@U564@U564@U564@U564@@tuples@boost@@@std@@@std@@@2@0@Z 00414060 f i CheckDoc.obj
 0001:000130f0       ?allocate@?$allocator@V?$tuple@V?$basic_string@_WU?$char_traits@_W@std@@V?$allocator@_W@2@@std@@V12@_NV12@V?$shared_ptr@VRefItemV@@@boost@@Unull_type@tuples@4@U564@U564@U564@U564@@tuples@boost@@@std@@QAEPAV?$tuple@V?$basic_string@_WU?$char_traits@_W@std@@V?$allocator@_W@2@@std@@V12@_NV12@V?$shared_ptr@VRefItemV@@@boost@@Unull_type@tuples@4@U564@U564@U564@U564@@tuples@boost@@I@Z 004140f0 f i CheckDoc.obj
 0001:00013110       ??0?$EntityMapper@UProducts@@V?$Mapper@UProducts@@@@@@QAE@XZ 00414110 f i CheckDoc.obj
 0001:00013200       ??0?$EntityMapper@UUnits@@V?$Mapper@UUnits@@@@@@QAE@XZ 00414200 f i CheckDoc.obj
 0001:000132f0       ??0?$EntityMapper@UPrices@@V?$Mapper@UPrices@@@@@@QAE@XZ 004142f0 f i CheckDoc.obj
 0001:000133e0       ?max_size@?$list@USalesItemLine@CCheckDoc@@V?$allocator@USalesItemLine@CCheckDoc@@@std@@@std@@QBEIXZ 004143e0 f i CheckDoc.obj
 0001:00013400       ?Parent@ListOfAttr@IHReference@@SA?BV?$basic_string@_WU?$char_traits@_W@std@@V?$allocator@_W@2@@std@@XZ 00414400 f i CheckDoc.obj
 0001:00013430       ??4?$basic_string@_WU?$char_traits@_W@std@@V?$allocator@_W@2@@std@@QAEAAV01@$$QAV01@@Z 00414430 f i CheckDoc.obj
 0001:00013460       ?getFieldMap@?$Mapper@UTypePrice@@@@SA?AV?$map@V?$basic_string@_WU?$char_traits@_W@std@@V?$allocator@_W@2@@std@@V12@U?$less@V?$basic_string@_WU?$char_traits@_W@std@@V?$allocator@_W@2@@std@@@2@V?$allocator@U?$pair@$$CBV?$basic_string@_WU?$char_traits@_W@std@@V?$allocator@_W@2@@std@@V12@@std@@@2@@std@@XZ 00414460 f i CheckDoc.obj
 0001:00013540       ?getFieldMap@TypePrice@@SAPBU_MapRef@@XZ 00414540 f i CheckDoc.obj
 0001:00013620       ?Code@ListOfAttr@IReference@@SA?BV?$basic_string@_WU?$char_traits@_W@std@@V?$allocator@_W@2@@std@@XZ 00414620 f i CheckDoc.obj
 0001:00013650       ??C?$_Tree_iterator@V?$_Tree_val@V?$_Tmap_traits@V?$CStringT@DV?$StrTraitMFC_DLL@DV?$ChTraitsCRT@D@ATL@@@@@ATL@@V?$shared_ptr@VCFont@@@tr1@std@@U?$less@V?$CStringT@DV?$StrTraitMFC_DLL@DV?$ChTraitsCRT@D@ATL@@@@@ATL@@@5@V?$allocator@U?$pair@$$CBV?$CStringT@DV?$StrTraitMFC_DLL@DV?$ChTraitsCRT@D@ATL@@@@@ATL@@V?$shared_ptr@VCFont@@@tr1@std@@@std@@@5@$0A@@std@@@std@@@std@@QBEPAU?$pair@$$CBV?$CStringT@DV?$StrTraitMFC_DLL@DV?$ChTraitsCRT@D@ATL@@@@@ATL@@V?$shared_ptr@VCFont@@@tr1@std@@@1@XZ 00414650 f i FontDlgPage.obj
 0001:00013650       ??C?$_Tree_iterator@V?$_Tree_val@V?$_Tmap_traits@V?$basic_string@_WU?$char_traits@_W@std@@V?$allocator@_W@2@@std@@V?$tuple@V?$basic_string@_WU?$char_traits@_W@std@@V?$allocator@_W@2@@std@@V12@Unull_type@tuples@boost@@U345@U345@U345@U345@U345@U345@U345@@tuples@boost@@U?$less@V?$basic_string@_WU?$char_traits@_W@std@@V?$allocator@_W@2@@std@@@2@V?$allocator@U?$pair@$$CBV?$basic_string@_WU?$char_traits@_W@std@@V?$allocator@_W@2@@std@@V?$tuple@V?$basic_string@_WU?$char_traits@_W@std@@V?$allocator@_W@2@@std@@V12@Unull_type@tuples@boost@@U345@U345@U345@U345@U345@U345@U345@@tuples@boost@@@std@@@2@$00@std@@@std@@@std@@QBEPAU?$pair@$$CBV?$basic_string@_WU?$char_traits@_W@std@@V?$allocator@_W@2@@std@@V?$tuple@V?$basic_string@_WU?$char_traits@_W@std@@V?$allocator@_W@2@@std@@V12@Unull_type@tuples@boost@@U345@U345@U345@U345@U345@U345@U345@@tuples@boost@@@1@XZ 00414650 f i SuperTree.obj
 0001:00013650       ??C?$_Tree_iterator@V?$_Tree_val@V?$_Tmap_traits@V?$basic_string@_WU?$char_traits@_W@std@@V?$allocator@_W@2@@std@@V12@U?$less@V?$basic_string@_WU?$char_traits@_W@std@@V?$allocator@_W@2@@std@@@2@V?$allocator@U?$pair@$$CBV?$basic_string@_WU?$char_traits@_W@std@@V?$allocator@_W@2@@std@@V12@@std@@@2@$0A@@std@@@std@@@std@@QBEPAU?$pair@$$CBV?$basic_string@_WU?$char_traits@_W@std@@V?$allocator@_W@2@@std@@V12@@1@XZ 00414650 f i CheckDoc.obj
 0001:00013670       ??E?$_Tree_iterator@V?$_Tree_val@V?$_Tmap_traits@V?$basic_string@_WU?$char_traits@_W@std@@V?$allocator@_W@2@@std@@V12@U?$less@V?$basic_string@_WU?$char_traits@_W@std@@V?$allocator@_W@2@@std@@@2@V?$allocator@U?$pair@$$CBV?$basic_string@_WU?$char_traits@_W@std@@V?$allocator@_W@2@@std@@V12@@std@@@2@$0A@@std@@@std@@@std@@QAE?AV01@H@Z 00414670 f i CheckDoc.obj
 0001:000136a0       ??1?$pair@V?$basic_string@_WU?$char_traits@_W@std@@V?$allocator@_W@2@@std@@V_variant_t@@@std@@QAE@XZ 004146a0 f i CheckDoc.obj
 0001:000136a0       ??1?$pair@$$CBV?$basic_string@_WU?$char_traits@_W@std@@V?$allocator@_W@2@@std@@V_variant_t@@@std@@QAE@XZ 004146a0 f i CheckDoc.obj
 0001:000136c0       ??1?$pair@V?$basic_string@_WU?$char_traits@_W@std@@V?$allocator@_W@2@@std@@V12@@std@@QAE@XZ 004146c0 f i CheckDoc.obj
 0001:000136c0       ??1?$pair@$$CBV?$basic_string@_WU?$char_traits@_W@std@@V?$allocator@_W@2@@std@@V12@@std@@QAE@XZ 004146c0 f i CheckDoc.obj
 0001:000136e0       ??1?$_Pair_base@$$CBV?$basic_string@_WU?$char_traits@_W@std@@V?$allocator@_W@2@@std@@V_variant_t@@@std@@QAE@XZ 004146e0 f i CheckDoc.obj
 0001:000136e0       ??1?$_Pair_base@V?$basic_string@_WU?$char_traits@_W@std@@V?$allocator@_W@2@@std@@V_variant_t@@@std@@QAE@XZ 004146e0 f i CheckDoc.obj
 0001:00013700       ??1?$_Pair_base@$$CBV?$basic_string@_WU?$char_traits@_W@std@@V?$allocator@_W@2@@std@@V12@@std@@QAE@XZ 00414700 f i CheckDoc.obj
 0001:00013700       ??1<lambda3>@?A0xa417b150@@QAE@XZ 00414700 f i DlgFindAll.obj
 0001:00013700       ??1<lambda3>@?A0xede8a68f@@QAE@XZ 00414700 f i DlgInsert.obj
 0001:00013700       ??1_MapRef@@QAE@XZ         00414700 f i CheckDoc.obj
 0001:00013700       ??1?$_Pair_base@V?$basic_string@_WU?$char_traits@_W@std@@V?$allocator@_W@2@@std@@V12@@std@@QAE@XZ 00414700 f i CheckDoc.obj
 0001:00013760       ?empty@?$basic_string@_WU?$char_traits@_W@std@@V?$allocator@_W@2@@std@@QBE_NXZ 00414760 f i CheckDoc.obj
 0001:00013780       ?insert@?$_Tree@V?$_Tmap_traits@$$CBV?$basic_string@_WU?$char_traits@_W@std@@V?$allocator@_W@2@@std@@V_variant_t@@U?$less@$$CBV?$basic_string@_WU?$char_traits@_W@std@@V?$allocator@_W@2@@std@@@2@V?$allocator@U?$pair@$$CBV?$basic_string@_WU?$char_traits@_W@std@@V?$allocator@_W@2@@std@@V_variant_t@@@std@@@2@$0A@@std@@@std@@QAE?AU?$pair@V?$_Tree_iterator@V?$_Tree_val@V?$_Tmap_traits@$$CBV?$basic_string@_WU?$char_traits@_W@std@@V?$allocator@_W@2@@std@@V_variant_t@@U?$less@$$CBV?$basic_string@_WU?$char_traits@_W@std@@V?$allocator@_W@2@@std@@@2@V?$allocator@U?$pair@$$CBV?$basic_string@_WU?$char_traits@_W@std@@V?$allocator@_W@2@@std@@V_variant_t@@@std@@@2@$0A@@std@@@std@@@std@@_N@2@ABU?$pair@$$CBV?$basic_string@_WU?$char_traits@_W@std@@V?$allocator@_W@2@@std@@V_variant_t@@@2@@Z 00414780 f i CheckDoc.obj
 0001:000137b0       ?_Color@?$_Tree_val@V?$_Tmap_traits@$$CBV?$basic_string@_WU?$char_traits@_W@std@@V?$allocator@_W@2@@std@@V_variant_t@@U?$less@$$CBV?$basic_string@_WU?$char_traits@_W@std@@V?$allocator@_W@2@@std@@@2@V?$allocator@U?$pair@$$CBV?$basic_string@_WU?$char_traits@_W@std@@V?$allocator@_W@2@@std@@V_variant_t@@@std@@@2@$0A@@std@@@std@@SAAADPAU_Node@?$_Tree_nod@V?$_Tmap_traits@$$CBV?$basic_string@_WU?$char_traits@_W@std@@V?$allocator@_W@2@@std@@V_variant_t@@U?$less@$$CBV?$basic_string@_WU?$char_traits@_W@std@@V?$allocator@_W@2@@std@@@2@V?$allocator@U?$pair@$$CBV?$basic_string@_WU?$char_traits@_W@std@@V?$allocator@_W@2@@std@@V_variant_t@@@std@@@2@$0A@@std@@@2@@Z 004147b0 f i CheckDoc.obj
 0001:000137c0       ?_Isnil@?$_Tree_val@V?$_Tmap_traits@$$CBV?$basic_string@_WU?$char_traits@_W@std@@V?$allocator@_W@2@@std@@V_variant_t@@U?$less@$$CBV?$basic_string@_WU?$char_traits@_W@std@@V?$allocator@_W@2@@std@@@2@V?$allocator@U?$pair@$$CBV?$basic_string@_WU?$char_traits@_W@std@@V?$allocator@_W@2@@std@@V_variant_t@@@std@@@2@$0A@@std@@@std@@SAAADPAU_Node@?$_Tree_nod@V?$_Tmap_traits@$$CBV?$basic_string@_WU?$char_traits@_W@std@@V?$allocator@_W@2@@std@@V_variant_t@@U?$less@$$CBV?$basic_string@_WU?$char_traits@_W@std@@V?$allocator@_W@2@@std@@@2@V?$allocator@U?$pair@$$CBV?$basic_string@_WU?$char_traits@_W@std@@V?$allocator@_W@2@@std@@V_variant_t@@@std@@@2@$0A@@std@@@2@@Z 004147c0 f i CheckDoc.obj
 0001:000137d0       ??0?$map@V?$basic_string@_WU?$char_traits@_W@std@@V?$allocator@_W@2@@std@@V12@U?$less@V?$basic_string@_WU?$char_traits@_W@std@@V?$allocator@_W@2@@std@@@2@V?$allocator@U?$pair@$$CBV?$basic_string@_WU?$char_traits@_W@std@@V?$allocator@_W@2@@std@@V12@@std@@@2@@std@@QAE@XZ 004147d0 f i CheckDoc.obj
 0001:00013800       ??0?$map@V?$basic_string@_WU?$char_traits@_W@std@@V?$allocator@_W@2@@std@@V12@U?$less@V?$basic_string@_WU?$char_traits@_W@std@@V?$allocator@_W@2@@std@@@2@V?$allocator@U?$pair@$$CBV?$basic_string@_WU?$char_traits@_W@std@@V?$allocator@_W@2@@std@@V12@@std@@@2@@std@@QAE@$$QAV01@@Z 00414800 f i CheckDoc.obj
 0001:00013830       ??4?$map@V?$basic_string@_WU?$char_traits@_W@std@@V?$allocator@_W@2@@std@@V12@U?$less@V?$basic_string@_WU?$char_traits@_W@std@@V?$allocator@_W@2@@std@@@2@V?$allocator@U?$pair@$$CBV?$basic_string@_WU?$char_traits@_W@std@@V?$allocator@_W@2@@std@@V12@@std@@@2@@std@@QAEAAV01@$$QAV01@@Z 00414830 f i CheckDoc.obj
 0001:00013860       ??0?$_Tree@V?$_Tmap_traits@V?$basic_string@_WU?$char_traits@_W@std@@V?$allocator@_W@2@@std@@V12@U?$less@V?$basic_string@_WU?$char_traits@_W@std@@V?$allocator@_W@2@@std@@@2@V?$allocator@U?$pair@$$CBV?$basic_string@_WU?$char_traits@_W@std@@V?$allocator@_W@2@@std@@V12@@std@@@2@$0A@@std@@@std@@QAE@ABV01@@Z 00414860 f i CheckDoc.obj
 0001:00013920       ?erase@?$_Tree@V?$_Tmap_traits@V?$basic_string@_WU?$char_traits@_W@std@@V?$allocator@_W@2@@std@@V12@U?$less@V?$basic_string@_WU?$char_traits@_W@std@@V?$allocator@_W@2@@std@@@2@V?$allocator@U?$pair@$$CBV?$basic_string@_WU?$char_traits@_W@std@@V?$allocator@_W@2@@std@@V12@@std@@@2@$0A@@std@@@std@@QAE?AV?$_Tree_iterator@V?$_Tree_val@V?$_Tmap_traits@V?$basic_string@_WU?$char_traits@_W@std@@V?$allocator@_W@2@@std@@V12@U?$less@V?$basic_string@_WU?$char_traits@_W@std@@V?$allocator@_W@2@@std@@@2@V?$allocator@U?$pair@$$CBV?$basic_string@_WU?$char_traits@_W@std@@V?$allocator@_W@2@@std@@V12@@std@@@2@$0A@@std@@@std@@@2@V?$_Tree_const_iterator@V?$_Tree_val@V?$_Tmap_traits@V?$basic_string@_WU?$char_traits@_W@std@@V?$allocator@_W@2@@std@@V12@U?$less@V?$basic_string@_WU?$char_traits@_W@std@@V?$allocator@_W@2@@std@@@2@V?$allocator@U?$pair@$$CBV?$basic_string@_WU?$char_traits@_W@std@@V?$allocator@_W@2@@std@@V12@@std@@@2@$0A@@std@@@std@@@2@@Z 00414920 f i CheckDoc.obj
 0001:000140b0       ?clear@?$_Tree@V?$_Tmap_traits@V?$basic_string@_WU?$char_traits@_W@std@@V?$allocator@_W@2@@std@@V12@U?$less@V?$basic_string@_WU?$char_traits@_W@std@@V?$allocator@_W@2@@std@@@2@V?$allocator@U?$pair@$$CBV?$basic_string@_WU?$char_traits@_W@std@@V?$allocator@_W@2@@std@@V12@@std@@@2@$0A@@std@@@std@@QAEXXZ 004150b0 f i CheckDoc.obj
 0001:00014110       ?lower_bound@?$_Tree@V?$_Tmap_traits@V?$basic_string@_WU?$char_traits@_W@std@@V?$allocator@_W@2@@std@@V12@U?$less@V?$basic_string@_WU?$char_traits@_W@std@@V?$allocator@_W@2@@std@@@2@V?$allocator@U?$pair@$$CBV?$basic_string@_WU?$char_traits@_W@std@@V?$allocator@_W@2@@std@@V12@@std@@@2@$0A@@std@@@std@@QAE?AV?$_Tree_iterator@V?$_Tree_val@V?$_Tmap_traits@V?$basic_string@_WU?$char_traits@_W@std@@V?$allocator@_W@2@@std@@V12@U?$less@V?$basic_string@_WU?$char_traits@_W@std@@V?$allocator@_W@2@@std@@@2@V?$allocator@U?$pair@$$CBV?$basic_string@_WU?$char_traits@_W@std@@V?$allocator@_W@2@@std@@V12@@std@@@2@$0A@@std@@@std@@@2@ABV?$basic_string@_WU?$char_traits@_W@std@@V?$allocator@_W@2@@2@@Z 00415110 f i CheckDoc.obj
 0001:00014140       ?_Key@?$_Tree_val@V?$_Tmap_traits@V?$CStringT@DV?$StrTraitMFC_DLL@DV?$ChTraitsCRT@D@ATL@@@@@ATL@@V?$CAdapt@V?$CComPtr@UIDispatch@@@ATL@@@2@U?$less@V?$CStringT@DV?$StrTraitMFC_DLL@DV?$ChTraitsCRT@D@ATL@@@@@ATL@@@std@@V?$allocator@U?$pair@$$CBV?$CStringT@DV?$StrTraitMFC_DLL@DV?$ChTraitsCRT@D@ATL@@@@@ATL@@V?$CAdapt@V?$CComPtr@UIDispatch@@@ATL@@@2@@std@@@5@$0A@@std@@@std@@SAAAV?$CStringT@DV?$StrTraitMFC_DLL@DV?$ChTraitsCRT@D@ATL@@@@@ATL@@PAU_Node@?$_Tree_nod@V?$_Tmap_traits@V?$CStringT@DV?$StrTraitMFC_DLL@DV?$ChTraitsCRT@D@ATL@@@@@ATL@@V?$CAdapt@V?$CComPtr@UIDispatch@@@ATL@@@2@U?$less@V?$CStringT@DV?$StrTraitMFC_DLL@DV?$ChTraitsCRT@D@ATL@@@@@ATL@@@std@@V?$allocator@U?$pair@$$CBV?$CStringT@DV?$StrTraitMFC_DLL@DV?$ChTraitsCRT@D@ATL@@@@@ATL@@V?$CAdapt@V?$CComPtr@UIDispatch@@@ATL@@@2@@std@@@5@$0A@@std@@@2@@Z 00415140 f i DlgSelectGood.obj
 0001:00014140       ?_Key@?$_Tree_val@V?$_Tmap_traits@V?$basic_string@_WU?$char_traits@_W@std@@V?$allocator@_W@2@@std@@V?$tuple@V?$basic_string@_WU?$char_traits@_W@std@@V?$allocator@_W@2@@std@@V12@Unull_type@tuples@boost@@U345@U345@U345@U345@U345@U345@U345@@tuples@boost@@U?$less@V?$basic_string@_WU?$char_traits@_W@std@@V?$allocator@_W@2@@std@@@2@V?$allocator@U?$pair@$$CBV?$basic_string@_WU?$char_traits@_W@std@@V?$allocator@_W@2@@std@@V?$tuple@V?$basic_string@_WU?$char_traits@_W@std@@V?$allocator@_W@2@@std@@V12@Unull_type@tuples@boost@@U345@U345@U345@U345@U345@U345@U345@@tuples@boost@@@std@@@2@$00@std@@@std@@SAAAV?$basic_string@_WU?$char_traits@_W@std@@V?$allocator@_W@2@@2@PAU_Node@?$_Tree_nod@V?$_Tmap_traits@V?$basic_string@_WU?$char_traits@_W@std@@V?$allocator@_W@2@@std@@V?$tuple@V?$basic_string@_WU?$char_traits@_W@std@@V?$allocator@_W@2@@std@@V12@Unull_type@tuples@boost@@U345@U345@U345@U345@U345@U345@U345@@tuples@boost@@U?$less@V?$basic_string@_WU?$char_traits@_W@std@@V?$allocator@_W@2@@std@@@2@V?$allocator@U?$pair@$$CBV?$basic_string@_WU?$char_traits@_W@std@@V?$allocator@_W@2@@std@@V?$tuple@V?$basic_string@_WU?$char_traits@_W@std@@V?$allocator@_W@2@@std@@V12@Unull_type@tuples@boost@@U345@U345@U345@U345@U345@U345@U345@@tuples@boost@@@std@@@2@$00@std@@@2@@Z 00415140 f i SuperTree.obj
 0001:00014140       ?_Key@?$_Tree_val@V?$_Tmap_traits@V?$basic_string@_WU?$char_traits@_W@std@@V?$allocator@_W@2@@std@@PAU_TREEITEM@@U?$less@V?$basic_string@_WU?$char_traits@_W@std@@V?$allocator@_W@2@@std@@@2@V?$allocator@U?$pair@$$CBV?$basic_string@_WU?$char_traits@_W@std@@V?$allocator@_W@2@@std@@PAU_TREEITEM@@@std@@@2@$0A@@std@@@std@@SAAAV?$basic_string@_WU?$char_traits@_W@std@@V?$allocator@_W@2@@2@PAU_Node@?$_Tree_nod@V?$_Tmap_traits@V?$basic_string@_WU?$char_traits@_W@std@@V?$allocator@_W@2@@std@@PAU_TREEITEM@@U?$less@V?$basic_string@_WU?$char_traits@_W@std@@V?$allocator@_W@2@@std@@@2@V?$allocator@U?$pair@$$CBV?$basic_string@_WU?$char_traits@_W@std@@V?$allocator@_W@2@@std@@PAU_TREEITEM@@@std@@@2@$0A@@std@@@2@@Z 00415140 f i SuperTree.obj
 0001:00014140       ?_Key@?$_Tree_val@V?$_Tmap_traits@V?$basic_string@_WU?$char_traits@_W@std@@V?$allocator@_W@2@@std@@V12@U?$less@V?$basic_string@_WU?$char_traits@_W@std@@V?$allocator@_W@2@@std@@@2@V?$allocator@U?$pair@$$CBV?$basic_string@_WU?$char_traits@_W@std@@V?$allocator@_W@2@@std@@V12@@std@@@2@$0A@@std@@@std@@SAAAV?$basic_string@_WU?$char_traits@_W@std@@V?$allocator@_W@2@@2@PAU_Node@?$_Tree_nod@V?$_Tmap_traits@V?$basic_string@_WU?$char_traits@_W@std@@V?$allocator@_W@2@@std@@V12@U?$less@V?$basic_string@_WU?$char_traits@_W@std@@V?$allocator@_W@2@@std@@@2@V?$allocator@U?$pair@$$CBV?$basic_string@_WU?$char_traits@_W@std@@V?$allocator@_W@2@@std@@V12@@std@@@2@$0A@@std@@@2@@Z 00415140 f i CheckDoc.obj
 0001:00014140       ?_Key@?$_Tree_val@V?$_Tmap_traits@V?$CStringT@DV?$StrTraitMFC_DLL@DV?$ChTraitsCRT@D@ATL@@@@@ATL@@V?$shared_ptr@VCFont@@@tr1@std@@U?$less@V?$CStringT@DV?$StrTraitMFC_DLL@DV?$ChTraitsCRT@D@ATL@@@@@ATL@@@5@V?$allocator@U?$pair@$$CBV?$CStringT@DV?$StrTraitMFC_DLL@DV?$ChTraitsCRT@D@ATL@@@@@ATL@@V?$shared_ptr@VCFont@@@tr1@std@@@std@@@5@$0A@@std@@@std@@SAAAV?$CStringT@DV?$StrTraitMFC_DLL@DV?$ChTraitsCRT@D@ATL@@@@@ATL@@PAU_Node@?$_Tree_nod@V?$_Tmap_traits@V?$CStringT@DV?$StrTraitMFC_DLL@DV?$ChTraitsCRT@D@ATL@@@@@ATL@@V?$shared_ptr@VCFont@@@tr1@std@@U?$less@V?$CStringT@DV?$StrTraitMFC_DLL@DV?$ChTraitsCRT@D@ATL@@@@@ATL@@@5@V?$allocator@U?$pair@$$CBV?$CStringT@DV?$StrTraitMFC_DLL@DV?$ChTraitsCRT@D@ATL@@@@@ATL@@V?$shared_ptr@VCFont@@@tr1@std@@@std@@@5@$0A@@std@@@2@@Z 00415140 f i DlgEnterCash.obj
 0001:00014140       ?_Key@?$_Tree_val@V?$_Tmap_traits@PAVCWnd@@IU?$less@PAVCWnd@@@std@@V?$allocator@U?$pair@QAVCWnd@@I@std@@@3@$0A@@std@@@std@@SAAAPAVCWnd@@PAU_Node@?$_Tree_nod@V?$_Tmap_traits@PAVCWnd@@IU?$less@PAVCWnd@@@std@@V?$allocator@U?$pair@QAVCWnd@@I@std@@@3@$0A@@std@@@2@@Z 00415140 f i MultiSplitterView.obj
 0001:00014160       ??R?$less@V?$basic_string@_WU?$char_traits@_W@std@@V?$allocator@_W@2@@std@@@std@@QBE_NABV?$basic_string@_WU?$char_traits@_W@std@@V?$allocator@_W@2@@1@0@Z 00415160 f i CheckDoc.obj
 0001:00014160       ??R?$less@$$CBV?$basic_string@_WU?$char_traits@_W@std@@V?$allocator@_W@2@@std@@@std@@QBE_NABV?$basic_string@_WU?$char_traits@_W@std@@V?$allocator@_W@2@@1@0@Z 00415160 f i CheckDoc.obj
 0001:00014180       ?reserve@?$vector@V?$shared_ptr@VRefItemV@@@boost@@V?$allocator@V?$shared_ptr@VRefItemV@@@boost@@@std@@@std@@QAEXI@Z 00415180 f i CheckDoc.obj
 0001:000142d0       ?_Make_iter@?$vector@V?$tuple@HV?$basic_string@_WU?$char_traits@_W@std@@V?$allocator@_W@2@@std@@V12@V12@Unull_type@tuples@boost@@U345@U345@U345@U345@U345@@tuples@boost@@V?$allocator@V?$tuple@HV?$basic_string@_WU?$char_traits@_W@std@@V?$allocator@_W@2@@std@@V12@V12@Unull_type@tuples@boost@@U345@U345@U345@U345@U345@@tuples@boost@@@std@@@std@@QBE?AV?$_Vector_iterator@V?$_Vector_val@V?$tuple@HV?$basic_string@_WU?$char_traits@_W@std@@V?$allocator@_W@2@@std@@V12@V12@Unull_type@tuples@boost@@U345@U345@U345@U345@U345@@tuples@boost@@V?$allocator@V?$tuple@HV?$basic_string@_WU?$char_traits@_W@std@@V?$allocator@_W@2@@std@@V12@V12@Unull_type@tuples@boost@@U345@U345@U345@U345@U345@@tuples@boost@@@std@@@std@@@2@V?$_Vector_const_iterator@V?$_Vector_val@V?$tuple@HV?$basic_string@_WU?$char_traits@_W@std@@V?$allocator@_W@2@@std@@V12@V12@Unull_type@tuples@boost@@U345@U345@U345@U345@U345@@tuples@boost@@V?$allocator@V?$tuple@HV?$basic_string@_WU?$char_traits@_W@std@@V?$allocator@_W@2@@std@@V12@V12@Unull_type@tuples@boost@@U345@U345@U345@U345@U345@@tuples@boost@@@std@@@std@@@2@@Z 004152d0 f i DlgSelectGood.obj
 0001:000142d0       ?_Make_iter@?$vector@DV?$allocator@D@std@@@std@@QBE?AV?$_Vector_iterator@V?$_Vector_val@DV?$allocator@D@std@@@std@@@2@V?$_Vector_const_iterator@V?$_Vector_val@DV?$allocator@D@std@@@std@@@2@@Z 004152d0 f i DlgSetQuantity.obj
 0001:000142d0       ?_Make_iter@?$vector@V?$tuple@V?$basic_string@_WU?$char_traits@_W@std@@V?$allocator@_W@2@@std@@V12@_NV12@V?$shared_ptr@VRefItemV@@@boost@@Unull_type@tuples@4@U564@U564@U564@U564@@tuples@boost@@V?$allocator@V?$tuple@V?$basic_string@_WU?$char_traits@_W@std@@V?$allocator@_W@2@@std@@V12@_NV12@V?$shared_ptr@VRefItemV@@@boost@@Unull_type@tuples@4@U564@U564@U564@U564@@tuples@boost@@@std@@@std@@QBE?AV?$_Vector_iterator@V?$_Vector_val@V?$tuple@V?$basic_string@_WU?$char_traits@_W@std@@V?$allocator@_W@2@@std@@V12@_NV12@V?$shared_ptr@VRefItemV@@@boost@@Unull_type@tuples@4@U564@U564@U564@U564@@tuples@boost@@V?$allocator@V?$tuple@V?$basic_string@_WU?$char_traits@_W@std@@V?$allocator@_W@2@@std@@V12@_NV12@V?$shared_ptr@VRefItemV@@@boost@@Unull_type@tuples@4@U564@U564@U564@U564@@tuples@boost@@@std@@@std@@@2@V?$_Vector_const_iterator@V?$_Vector_val@V?$tuple@V?$basic_string@_WU?$char_traits@_W@std@@V?$allocator@_W@2@@std@@V12@_NV12@V?$shared_ptr@VRefItemV@@@boost@@Unull_type@tuples@4@U564@U564@U564@U564@@tuples@boost@@V?$allocator@V?$tuple@V?$basic_string@_WU?$char_traits@_W@std@@V?$allocator@_W@2@@std@@V12@_NV12@V?$shared_ptr@VRefItemV@@@boost@@Unull_type@tuples@4@U564@U564@U564@U564@@tuples@boost@@@std@@@std@@@2@@Z 004152d0 f i CheckDoc.obj
 0001:000142d0       ?_Make_iter@?$vector@V?$tuple@V?$basic_string@_WU?$char_traits@_W@std@@V?$allocator@_W@2@@std@@V12@V12@V12@Unull_type@tuples@boost@@U345@U345@U345@U345@U345@@tuples@boost@@V?$allocator@V?$tuple@V?$basic_string@_WU?$char_traits@_W@std@@V?$allocator@_W@2@@std@@V12@V12@V12@Unull_type@tuples@boost@@U345@U345@U345@U345@U345@@tuples@boost@@@std@@@std@@QBE?AV?$_Vector_iterator@V?$_Vector_val@V?$tuple@V?$basic_string@_WU?$char_traits@_W@std@@V?$allocator@_W@2@@std@@V12@V12@V12@Unull_type@tuples@boost@@U345@U345@U345@U345@U345@@tuples@boost@@V?$allocator@V?$tuple@V?$basic_string@_WU?$char_traits@_W@std@@V?$allocator@_W@2@@std@@V12@V12@V12@Unull_type@tuples@boost@@U345@U345@U345@U345@U345@@tuples@boost@@@std@@@std@@@2@V?$_Vector_const_iterator@V?$_Vector_val@V?$tuple@V?$basic_string@_WU?$char_traits@_W@std@@V?$allocator@_W@2@@std@@V12@V12@V12@Unull_type@tuples@boost@@U345@U345@U345@U345@U345@@tuples@boost@@V?$allocator@V?$tuple@V?$basic_string@_WU?$char_traits@_W@std@@V?$allocator@_W@2@@std@@V12@V12@V12@Unull_type@tuples@boost@@U345@U345@U345@U345@U345@@tuples@boost@@@std@@@std@@@2@@Z 004152d0 f i DlgInsert.obj
 0001:000142d0       ?_Make_iter@?$vector@V?$tuple@V?$basic_string@_WU?$char_traits@_W@std@@V?$allocator@_W@2@@std@@V12@V12@V?$shared_ptr@VRefItemV@@@boost@@Unull_type@tuples@4@U564@U564@U564@U564@U564@@tuples@boost@@V?$allocator@V?$tuple@V?$basic_string@_WU?$char_traits@_W@std@@V?$allocator@_W@2@@std@@V12@V12@V?$shared_ptr@VRefItemV@@@boost@@Unull_type@tuples@4@U564@U564@U564@U564@U564@@tuples@boost@@@std@@@std@@QBE?AV?$_Vector_iterator@V?$_Vector_val@V?$tuple@V?$basic_string@_WU?$char_traits@_W@std@@V?$allocator@_W@2@@std@@V12@V12@V?$shared_ptr@VRefItemV@@@boost@@Unull_type@tuples@4@U564@U564@U564@U564@U564@@tuples@boost@@V?$allocator@V?$tuple@V?$basic_string@_WU?$char_traits@_W@std@@V?$allocator@_W@2@@std@@V12@V12@V?$shared_ptr@VRefItemV@@@boost@@Unull_type@tuples@4@U564@U564@U564@U564@U564@@tuples@boost@@@std@@@std@@@2@V?$_Vector_const_iterator@V?$_Vector_val@V?$tuple@V?$basic_string@_WU?$char_traits@_W@std@@V?$allocator@_W@2@@std@@V12@V12@V?$shared_ptr@VRefItemV@@@boost@@Unull_type@tuples@4@U564@U564@U564@U564@U564@@tuples@boost@@V?$allocator@V?$tuple@V?$basic_string@_WU?$char_traits@_W@std@@V?$allocator@_W@2@@std@@V12@V12@V?$shared_ptr@VRefItemV@@@boost@@Unull_type@tuples@4@U564@U564@U564@U564@U564@@tuples@boost@@@std@@@std@@@2@@Z 004152d0 f i CheckDoc.obj
 0001:000142d0       ?_Make_iter@?$vector@V?$shared_ptr@VRefItemV@@@boost@@V?$allocator@V?$shared_ptr@VRefItemV@@@boost@@@std@@@std@@QBE?AV?$_Vector_iterator@V?$_Vector_val@V?$shared_ptr@VRefItemV@@@boost@@V?$allocator@V?$shared_ptr@VRefItemV@@@boost@@@std@@@std@@@2@V?$_Vector_const_iterator@V?$_Vector_val@V?$shared_ptr@VRefItemV@@@boost@@V?$allocator@V?$shared_ptr@VRefItemV@@@boost@@@std@@@std@@@2@@Z 004152d0 f i CheckDoc.obj
 0001:000142d0       ?_Make_iter@?$vector@V?$tuple@V?$basic_string@_WU?$char_traits@_W@std@@V?$allocator@_W@2@@std@@V12@V12@Unull_type@tuples@boost@@U345@U345@U345@U345@U345@U345@@tuples@boost@@V?$allocator@V?$tuple@V?$basic_string@_WU?$char_traits@_W@std@@V?$allocator@_W@2@@std@@V12@V12@Unull_type@tuples@boost@@U345@U345@U345@U345@U345@U345@@tuples@boost@@@std@@@std@@QBE?AV?$_Vector_iterator@V?$_Vector_val@V?$tuple@V?$basic_string@_WU?$char_traits@_W@std@@V?$allocator@_W@2@@std@@V12@V12@Unull_type@tuples@boost@@U345@U345@U345@U345@U345@U345@@tuples@boost@@V?$allocator@V?$tuple@V?$basic_string@_WU?$char_traits@_W@std@@V?$allocator@_W@2@@std@@V12@V12@Unull_type@tuples@boost@@U345@U345@U345@U345@U345@U345@@tuples@boost@@@std@@@std@@@2@V?$_Vector_const_iterator@V?$_Vector_val@V?$tuple@V?$basic_string@_WU?$char_traits@_W@std@@V?$allocator@_W@2@@std@@V12@V12@Unull_type@tuples@boost@@U345@U345@U345@U345@U345@U345@@tuples@boost@@V?$allocator@V?$tuple@V?$basic_string@_WU?$char_traits@_W@std@@V?$allocator@_W@2@@std@@V12@V12@Unull_type@tuples@boost@@U345@U345@U345@U345@U345@U345@@tuples@boost@@@std@@@std@@@2@@Z 004152d0 f i DlgFindAll.obj
 0001:000142f0       ?_Grow_to@?$vector@V?$shared_ptr@VRefItemV@@@boost@@V?$allocator@V?$shared_ptr@VRefItemV@@@boost@@@std@@@std@@IBEII@Z 004152f0 f i CheckDoc.obj
 0001:00014350       ?max_size@?$allocator@V?$tuple@V?$basic_string@_WU?$char_traits@_W@std@@V?$allocator@_W@2@@std@@V12@V12@V?$shared_ptr@VRefItemV@@@boost@@Unull_type@tuples@4@U564@U564@U564@U564@U564@@tuples@boost@@@std@@QBEIXZ 00415350 f i CheckDoc.obj
 0001:00014380       ?max_size@?$allocator@V?$tuple@V?$basic_string@_WU?$char_traits@_W@std@@V?$allocator@_W@2@@std@@V12@_NV12@V?$shared_ptr@VRefItemV@@@boost@@Unull_type@tuples@4@U564@U564@U564@U564@@tuples@boost@@@std@@QBEIXZ 00415380 f i CheckDoc.obj
 0001:000143b0       ?getTableName@?$Mapper@UProducts@@@@SA?BV?$basic_string@_WU?$char_traits@_W@std@@V?$allocator@_W@2@@std@@XZ 004153b0 f i CheckDoc.obj
 0001:000143e0       ?getTableName@Products@@SA?BV?$basic_string@_WU?$char_traits@_W@std@@V?$allocator@_W@2@@std@@XZ 004153e0 f i CheckDoc.obj
 0001:00014410       ?getFieldMap@?$Mapper@UProducts@@@@SA?AV?$map@V?$basic_string@_WU?$char_traits@_W@std@@V?$allocator@_W@2@@std@@V12@U?$less@V?$basic_string@_WU?$char_traits@_W@std@@V?$allocator@_W@2@@std@@@2@V?$allocator@U?$pair@$$CBV?$basic_string@_WU?$char_traits@_W@std@@V?$allocator@_W@2@@std@@V12@@std@@@2@@std@@XZ 00415410 f i CheckDoc.obj
 0001:000144f0       ?getFieldMap@Products@@SAPBU_MapRef@@XZ 004154f0 f i CheckDoc.obj
 0001:00014650       ?getTableName@?$Mapper@UUnits@@@@SA?BV?$basic_string@_WU?$char_traits@_W@std@@V?$allocator@_W@2@@std@@XZ 00415650 f i CheckDoc.obj
 0001:00014680       ?getTableName@Units@@SA?BV?$basic_string@_WU?$char_traits@_W@std@@V?$allocator@_W@2@@std@@XZ 00415680 f i CheckDoc.obj
 0001:000146b0       ?getFieldMap@?$Mapper@UUnits@@@@SA?AV?$map@V?$basic_string@_WU?$char_traits@_W@std@@V?$allocator@_W@2@@std@@V12@U?$less@V?$basic_string@_WU?$char_traits@_W@std@@V?$allocator@_W@2@@std@@@2@V?$allocator@U?$pair@$$CBV?$basic_string@_WU?$char_traits@_W@std@@V?$allocator@_W@2@@std@@V12@@std@@@2@@std@@XZ 004156b0 f i CheckDoc.obj
 0001:00014790       ?getFieldMap@Units@@SAPBU_MapRef@@XZ 00415790 f i CheckDoc.obj
 0001:000148c0       ?getTableName@?$Mapper@UPrices@@@@SA?BV?$basic_string@_WU?$char_traits@_W@std@@V?$allocator@_W@2@@std@@XZ 004158c0 f i CheckDoc.obj
 0001:000148f0       ?getTableName@Prices@@SA?BV?$basic_string@_WU?$char_traits@_W@std@@V?$allocator@_W@2@@std@@XZ 004158f0 f i CheckDoc.obj
 0001:00014920       ?getFieldMap@?$Mapper@UPrices@@@@SA?AV?$map@V?$basic_string@_WU?$char_traits@_W@std@@V?$allocator@_W@2@@std@@V12@U?$less@V?$basic_string@_WU?$char_traits@_W@std@@V?$allocator@_W@2@@std@@@2@V?$allocator@U?$pair@$$CBV?$basic_string@_WU?$char_traits@_W@std@@V?$allocator@_W@2@@std@@V12@@std@@@2@@std@@XZ 00415920 f i CheckDoc.obj
 0001:00014a00       ?getFieldMap@Prices@@SAPBU_MapRef@@XZ 00415a00 f i CheckDoc.obj
 0001:00014b60       ?max_size@?$allocator@USalesItemLine@CCheckDoc@@@std@@QBEIXZ 00415b60 f i CheckDoc.obj
 0001:00014b90       ??D?$_Tree_iterator@V?$_Tree_val@V?$_Tmap_traits@V?$basic_string@_WU?$char_traits@_W@std@@V?$allocator@_W@2@@std@@V12@U?$less@V?$basic_string@_WU?$char_traits@_W@std@@V?$allocator@_W@2@@std@@@2@V?$allocator@U?$pair@$$CBV?$basic_string@_WU?$char_traits@_W@std@@V?$allocator@_W@2@@std@@V12@@std@@@2@$0A@@std@@@std@@@std@@QBEAAU?$pair@$$CBV?$basic_string@_WU?$char_traits@_W@std@@V?$allocator@_W@2@@std@@V12@@1@XZ 00415b90 f i CheckDoc.obj
 0001:00014b90       ??D?$_Tree_iterator@V?$_Tree_val@V?$_Tmap_traits@V?$CStringT@DV?$StrTraitMFC_DLL@DV?$ChTraitsCRT@D@ATL@@@@@ATL@@V?$shared_ptr@VCFont@@@tr1@std@@U?$less@V?$CStringT@DV?$StrTraitMFC_DLL@DV?$ChTraitsCRT@D@ATL@@@@@ATL@@@5@V?$allocator@U?$pair@$$CBV?$CStringT@DV?$StrTraitMFC_DLL@DV?$ChTraitsCRT@D@ATL@@@@@ATL@@V?$shared_ptr@VCFont@@@tr1@std@@@std@@@5@$0A@@std@@@std@@@std@@QBEAAU?$pair@$$CBV?$CStringT@DV?$StrTraitMFC_DLL@DV?$ChTraitsCRT@D@ATL@@@@@ATL@@V?$shared_ptr@VCFont@@@tr1@std@@@1@XZ 00415b90 f i DlgEnterCash.obj
 0001:00014b90       ??D?$_Tree_iterator@V?$_Tree_val@V?$_Tmap_traits@V?$basic_string@_WU?$char_traits@_W@std@@V?$allocator@_W@2@@std@@V?$tuple@V?$basic_string@_WU?$char_traits@_W@std@@V?$allocator@_W@2@@std@@V12@Unull_type@tuples@boost@@U345@U345@U345@U345@U345@U345@U345@@tuples@boost@@U?$less@V?$basic_string@_WU?$char_traits@_W@std@@V?$allocator@_W@2@@std@@@2@V?$allocator@U?$pair@$$CBV?$basic_string@_WU?$char_traits@_W@std@@V?$allocator@_W@2@@std@@V?$tuple@V?$basic_string@_WU?$char_traits@_W@std@@V?$allocator@_W@2@@std@@V12@Unull_type@tuples@boost@@U345@U345@U345@U345@U345@U345@U345@@tuples@boost@@@std@@@2@$00@std@@@std@@@std@@QBEAAU?$pair@$$CBV?$basic_string@_WU?$char_traits@_W@std@@V?$allocator@_W@2@@std@@V?$tuple@V?$basic_string@_WU?$char_traits@_W@std@@V?$allocator@_W@2@@std@@V12@Unull_type@tuples@boost@@U345@U345@U345@U345@U345@U345@U345@@tuples@boost@@@1@XZ 00415b90 f i SuperTree.obj
 0001:00014b90       ??D?$_Tree_iterator@V?$_Tree_val@V?$_Tmap_traits@PAVCWnd@@IU?$less@PAVCWnd@@@std@@V?$allocator@U?$pair@QAVCWnd@@I@std@@@3@$0A@@std@@@std@@@std@@QBEAAU?$pair@QAVCWnd@@I@1@XZ 00415b90 f i MultiSplitterView.obj
 0001:00014b90       ??D?$_Tree_iterator@V?$_Tree_val@V?$_Tmap_traits@V?$CStringT@DV?$StrTraitMFC_DLL@DV?$ChTraitsCRT@D@ATL@@@@@ATL@@V?$CAdapt@V?$CComPtr@UIDispatch@@@ATL@@@2@U?$less@V?$CStringT@DV?$StrTraitMFC_DLL@DV?$ChTraitsCRT@D@ATL@@@@@ATL@@@std@@V?$allocator@U?$pair@$$CBV?$CStringT@DV?$StrTraitMFC_DLL@DV?$ChTraitsCRT@D@ATL@@@@@ATL@@V?$CAdapt@V?$CComPtr@UIDispatch@@@ATL@@@2@@std@@@5@$0A@@std@@@std@@@std@@QBEAAU?$pair@$$CBV?$CStringT@DV?$StrTraitMFC_DLL@DV?$ChTraitsCRT@D@ATL@@@@@ATL@@V?$CAdapt@V?$CComPtr@UIDispatch@@@ATL@@@2@@1@XZ 00415b90 f i DlgSelectGood.obj
 0001:00014b90       ??D?$_Tree_unchecked_iterator@V?$_Tree_val@V?$_Tmap_traits@V?$CStringT@DV?$StrTraitMFC_DLL@DV?$ChTraitsCRT@D@ATL@@@@@ATL@@V?$shared_ptr@VCFont@@@tr1@std@@U?$less@V?$CStringT@DV?$StrTraitMFC_DLL@DV?$ChTraitsCRT@D@ATL@@@@@ATL@@@5@V?$allocator@U?$pair@$$CBV?$CStringT@DV?$StrTraitMFC_DLL@DV?$ChTraitsCRT@D@ATL@@@@@ATL@@V?$shared_ptr@VCFont@@@tr1@std@@@std@@@5@$0A@@std@@@std@@@std@@QBEAAU?$pair@$$CBV?$CStringT@DV?$StrTraitMFC_DLL@DV?$ChTraitsCRT@D@ATL@@@@@ATL@@V?$shared_ptr@VCFont@@@tr1@std@@@1@XZ 00415b90 f i FontDlgPage.obj
 0001:00014bb0       ??E?$_Tree_iterator@V?$_Tree_val@V?$_Tmap_traits@V?$basic_string@_WU?$char_traits@_W@std@@V?$allocator@_W@2@@std@@V12@U?$less@V?$basic_string@_WU?$char_traits@_W@std@@V?$allocator@_W@2@@std@@@2@V?$allocator@U?$pair@$$CBV?$basic_string@_WU?$char_traits@_W@std@@V?$allocator@_W@2@@std@@V12@@std@@@2@$0A@@std@@@std@@@std@@QAEAAV01@XZ 00415bb0 f i CheckDoc.obj
 0001:00014bd0       ??E?$_Tree_const_iterator@V?$_Tree_val@V?$_Tmap_traits@V?$basic_string@_WU?$char_traits@_W@std@@V?$allocator@_W@2@@std@@V12@U?$less@V?$basic_string@_WU?$char_traits@_W@std@@V?$allocator@_W@2@@std@@@2@V?$allocator@U?$pair@$$CBV?$basic_string@_WU?$char_traits@_W@std@@V?$allocator@_W@2@@std@@V12@@std@@@2@$0A@@std@@@std@@@std@@QAE?AV01@H@Z 00415bd0 f i CheckDoc.obj
 0001:00014c00       ?_Unchecked@?$_Vector_iterator@V?$_Vector_val@V?$tuple@V?$basic_string@_WU?$char_traits@_W@std@@V?$allocator@_W@2@@std@@V12@V12@V?$shared_ptr@VRefItemV@@@boost@@Unull_type@tuples@4@U564@U564@U564@U564@U564@@tuples@boost@@V?$allocator@V?$tuple@V?$basic_string@_WU?$char_traits@_W@std@@V?$allocator@_W@2@@std@@V12@V12@V?$shared_ptr@VRefItemV@@@boost@@Unull_type@tuples@4@U564@U564@U564@U564@U564@@tuples@boost@@@std@@@std@@@std@@QBEPAV?$tuple@V?$basic_string@_WU?$char_traits@_W@std@@V?$allocator@_W@2@@std@@V12@V12@V?$shared_ptr@VRefItemV@@@boost@@Unull_type@tuples@4@U564@U564@U564@U564@U564@@tuples@boost@@XZ 00415c00 f i DlgInsert.obj
 0001:00014c00       ??B?$_com_ptr_t@V?$_com_IIID@U_Parameter@@$1?_GUID_0000050c_0000_0010_8000_00aa006d2ea4@@3U__s_GUID@@B@@@@QBEPAU_Parameter@@XZ 00415c00 f i ReturnDoc.obj
 0001:00014c00       ??C?$shared_ptr@V?$HierarchyReference@UProducts@@@@@boost@@QBEPAV?$HierarchyReference@UProducts@@@@XZ 00415c00 f i CheckDoc.obj
 0001:00014c00       ??C?$shared_ptr@V?$SlaveReference@UPrices@@UProducts@@@@@boost@@QBEPAV?$SlaveReference@UPrices@@UProducts@@@@XZ 00415c00 f i CheckDoc.obj
 0001:00014c00       ??B?$CComPtrBase@UIErrorInfo@@@ATL@@QBEPAUIErrorInfo@@XZ 00415c00 f i CheckDoc.obj
 0001:00014c00       ?_Mynode@?$_Tree_unchecked_const_iterator@V?$_Tree_val@V?$_Tmap_traits@V?$CStringT@DV?$StrTraitMFC_DLL@DV?$ChTraitsCRT@D@ATL@@@@@ATL@@V?$shared_ptr@VCFont@@@tr1@std@@U?$less@V?$CStringT@DV?$StrTraitMFC_DLL@DV?$ChTraitsCRT@D@ATL@@@@@ATL@@@5@V?$allocator@U?$pair@$$CBV?$CStringT@DV?$StrTraitMFC_DLL@DV?$ChTraitsCRT@D@ATL@@@@@ATL@@V?$shared_ptr@VCFont@@@tr1@std@@@std@@@5@$0A@@std@@@std@@U_Iterator_base0@2@@std@@QBEPAU_Node@?$_Tree_nod@V?$_Tmap_traits@V?$CStringT@DV?$StrTraitMFC_DLL@DV?$ChTraitsCRT@D@ATL@@@@@ATL@@V?$shared_ptr@VCFont@@@tr1@std@@U?$less@V?$CStringT@DV?$StrTraitMFC_DLL@DV?$ChTraitsCRT@D@ATL@@@@@ATL@@@5@V?$allocator@U?$pair@$$CBV?$CStringT@DV?$StrTraitMFC_DLL@DV?$ChTraitsCRT@D@ATL@@@@@ATL@@V?$shared_ptr@VCFont@@@tr1@std@@@std@@@5@$0A@@std@@@2@XZ 00415c00 f i DlgEnterCash.obj
 0001:00014c00       ?get@?$shared_ptr@V?$SlaveReference@UPrices@@UProducts@@@@@boost@@QBEPAV?$SlaveReference@UPrices@@UProducts@@@@XZ 00415c00 f i CheckDoc.obj
 0001:00014c00       ??BImageList_GetImageInfo_Type@CComCtlWrapper@@QAEP6GHPAU_IMAGELIST@@HPAU_IMAGEINFO@@@ZXZ 00415c00 f i MyTabCtrl.obj
 0001:00014c00       ?_Mynode@?$_List_unchecked_const_iterator@V?$_List_val@USalesItemLine@CCheckDoc@@V?$allocator@USalesItemLine@CCheckDoc@@@std@@@std@@U_Iterator_base0@2@@std@@QBEPAU_Node@?$_List_nod@USalesItemLine@CCheckDoc@@V?$allocator@USalesItemLine@CCheckDoc@@@std@@@2@XZ 00415c00 f i CheckDoc.obj
 0001:00014c00       ?get@?$shared_ptr@V?$SlaveReference@UUnits@@UProducts@@@@@boost@@QBEPAV?$SlaveReference@UUnits@@UProducts@@@@XZ 00415c00 f i CheckDoc.obj
 0001:00014c00       ??C?$CComPtrBase@UITable@DOC@@@ATL@@QBEPAV?$_NoAddRefReleaseOnCComPtr@UITable@DOC@@@1@XZ 00415c00 f i CheckDoc.obj
 0001:00014c00       ??BImageList_GetIcon_Type@CComCtlWrapper@@QAEP6GPAUHICON__@@PAU_IMAGELIST@@HI@ZXZ 00415c00 f i PopupMenu.obj
 0001:00014c00       ?get@?$shared_ptr@VDbContext@@@boost@@QBEPAVDbContext@@XZ 00415c00 f i Repository.obj
 0001:00014c00       ??BImageList_AddMasked_Type@CComCtlWrapper@@QAEP6GHPAU_IMAGELIST@@PAUHBITMAP__@@K@ZXZ 00415c00 f i PopupMenu.obj
 0001:00014c00       ?_Unchecked@?$_Vector_iterator@V?$_Vector_val@V?$CStringT@DV?$StrTraitMFC_DLL@DV?$ChTraitsCRT@D@ATL@@@@@ATL@@V?$allocator@V?$CStringT@DV?$StrTraitMFC_DLL@DV?$ChTraitsCRT@D@ATL@@@@@ATL@@@std@@@std@@@std@@QBEPAV?$CStringT@DV?$StrTraitMFC_DLL@DV?$ChTraitsCRT@D@ATL@@@@@ATL@@XZ 00415c00 f i OutputWnd.obj
 0001:00014c00       ??C?$shared_ptr@VDbContext@@@boost@@QBEPAVDbContext@@XZ 00415c00 f i CheckDoc.obj
 0001:00014c00       ??C?$shared_ptr@VRefItemV@@@boost@@QBEPAVRefItemV@@XZ 00415c00 f i CheckDoc.obj
 0001:00014c00       ?_Get@?$_Ptr_base@VCFont@@@tr1@std@@QBEPAVCFont@@XZ 00415c00 f i DlgEnterCash.obj
 0001:00014c00       ??C?$shared_ptr@V?$Reference@UPoints@@V?$SQLSearchStrategy@UPoints@@V?$RefCreator@UPoints@@$00@@@@@@@boost@@QBEPAV?$Reference@UPoints@@V?$SQLSearchStrategy@UPoints@@V?$RefCreator@UPoints@@$00@@@@@@XZ 00415c00 f i DlgLogin.obj
 0001:00014c00       ?_Mynode@?$_Tree_unchecked_const_iterator@V?$_Tree_val@V?$_Tmap_traits@$$CBV?$basic_string@_WU?$char_traits@_W@std@@V?$allocator@_W@2@@std@@V_variant_t@@U?$less@$$CBV?$basic_string@_WU?$char_traits@_W@std@@V?$allocator@_W@2@@std@@@2@V?$allocator@U?$pair@$$CBV?$basic_string@_WU?$char_traits@_W@std@@V?$allocator@_W@2@@std@@V_variant_t@@@std@@@2@$0A@@std@@@std@@U_Iterator_base0@2@@std@@QBEPAU_Node@?$_Tree_nod@V?$_Tmap_traits@$$CBV?$basic_string@_WU?$char_traits@_W@std@@V?$allocator@_W@2@@std@@V_variant_t@@U?$less@$$CBV?$basic_string@_WU?$char_traits@_W@std@@V?$allocator@_W@2@@std@@@2@V?$allocator@U?$pair@$$CBV?$basic_string@_WU?$char_traits@_W@std@@V?$allocator@_W@2@@std@@V_variant_t@@@std@@@2@$0A@@std@@@2@XZ 00415c00 f i CheckDoc.obj
 0001:00014c00       ?_Mynode@?$_Tree_unchecked_const_iterator@V?$_Tree_val@V?$_Tmap_traits@V?$basic_string@_WU?$char_traits@_W@std@@V?$allocator@_W@2@@std@@V12@U?$less@V?$basic_string@_WU?$char_traits@_W@std@@V?$allocator@_W@2@@std@@@2@V?$allocator@U?$pair@$$CBV?$basic_string@_WU?$char_traits@_W@std@@V?$allocator@_W@2@@std@@V12@@std@@@2@$0A@@std@@@std@@U_Iterator_base0@2@@std@@QBEPAU_Node@?$_Tree_nod@V?$_Tmap_traits@V?$basic_string@_WU?$char_traits@_W@std@@V?$allocator@_W@2@@std@@V12@U?$less@V?$basic_string@_WU?$char_traits@_W@std@@V?$allocator@_W@2@@std@@@2@V?$allocator@U?$pair@$$CBV?$basic_string@_WU?$char_traits@_W@std@@V?$allocator@_W@2@@std@@V12@@std@@@2@$0A@@std@@@2@XZ 00415c00 f i CheckDoc.obj
 0001:00014c00       ??BImageList_Draw_Type@CComCtlWrapper@@QAEP6GHPAU_IMAGELIST@@HPAUHDC__@@HHI@ZXZ 00415c00 f i MyTabCtrl.obj
 0001:00014c00       ??C?$CComPtrBase@UIHead@DOC@@@ATL@@QBEPAV?$_NoAddRefReleaseOnCComPtr@UIHead@DOC@@@1@XZ 00415c00 f i CheckDoc.obj
 0001:00014c00       ??C?$CComPtrBase@UICreateErrorInfo@@@ATL@@QBEPAV?$_NoAddRefReleaseOnCComPtr@UICreateErrorInfo@@@1@XZ 00415c00 f i CheckDoc.obj
 0001:00014c00       ?_Mynode@?$_Tree_unchecked_const_iterator@V?$_Tree_val@V?$_Tmap_traits@V?$basic_string@_WU?$char_traits@_W@std@@V?$allocator@_W@2@@std@@PAU_TREEITEM@@U?$less@V?$basic_string@_WU?$char_traits@_W@std@@V?$allocator@_W@2@@std@@@2@V?$allocator@U?$pair@$$CBV?$basic_string@_WU?$char_traits@_W@std@@V?$allocator@_W@2@@std@@PAU_TREEITEM@@@std@@@2@$0A@@std@@@std@@U_Iterator_base0@2@@std@@QBEPAU_Node@?$_Tree_nod@V?$_Tmap_traits@V?$basic_string@_WU?$char_traits@_W@std@@V?$allocator@_W@2@@std@@PAU_TREEITEM@@U?$less@V?$basic_string@_WU?$char_traits@_W@std@@V?$allocator@_W@2@@std@@@2@V?$allocator@U?$pair@$$CBV?$basic_string@_WU?$char_traits@_W@std@@V?$allocator@_W@2@@std@@PAU_TREEITEM@@@std@@@2@$0A@@std@@@2@XZ 00415c00 f i SuperTree.obj
 0001:00014c00       ??C?$shared_ptr@U_Recordset@@@boost@@QBEPAU_Recordset@@XZ 00415c00 f i CheckDoc.obj
 0001:00014c00       ??C?$CComPtrBase@UIDocOneC@DOC@@@ATL@@QBEPAV?$_NoAddRefReleaseOnCComPtr@UIDocOneC@DOC@@@1@XZ 00415c00 f i CheckDoc.obj
 0001:00014c00       ??BImageList_ReplaceIcon_Type@CComCtlWrapper@@QAEP6GHPAU_IMAGELIST@@HPAUHICON__@@@ZXZ 00415c00 f i DictGoodsFrame.obj
 0001:00014c00       ?_Unchecked@?$_Vector_const_iterator@V?$_Vector_val@V?$tuple@V?$basic_string@_WU?$char_traits@_W@std@@V?$allocator@_W@2@@std@@V12@_NV12@V?$shared_ptr@VRefItemV@@@boost@@Unull_type@tuples@4@U564@U564@U564@U564@@tuples@boost@@V?$allocator@V?$tuple@V?$basic_string@_WU?$char_traits@_W@std@@V?$allocator@_W@2@@std@@V12@_NV12@V?$shared_ptr@VRefItemV@@@boost@@Unull_type@tuples@4@U564@U564@U564@U564@@tuples@boost@@@std@@@std@@@std@@QBEPBV?$tuple@V?$basic_string@_WU?$char_traits@_W@std@@V?$allocator@_W@2@@std@@V12@_NV12@V?$shared_ptr@VRefItemV@@@boost@@Unull_type@tuples@4@U564@U564@U564@U564@@tuples@boost@@XZ 00415c00 f i CheckDoc.obj
 0001:00014c00       ?_Unchecked@?$_Vector_iterator@V?$_Vector_val@V?$tuple@HV?$basic_string@_WU?$char_traits@_W@std@@V?$allocator@_W@2@@std@@V12@V12@Unull_type@tuples@boost@@U345@U345@U345@U345@U345@@tuples@boost@@V?$allocator@V?$tuple@HV?$basic_string@_WU?$char_traits@_W@std@@V?$allocator@_W@2@@std@@V12@V12@Unull_type@tuples@boost@@U345@U345@U345@U345@U345@@tuples@boost@@@std@@@std@@@std@@QBEPAV?$tuple@HV?$basic_string@_WU?$char_traits@_W@std@@V?$allocator@_W@2@@std@@V12@V12@Unull_type@tuples@boost@@U345@U345@U345@U345@U345@@tuples@boost@@XZ 00415c00 f i DlgSelectGood.obj
 0001:00014c00       ?_Mynode@?$_Tree_unchecked_const_iterator@V?$_Tree_val@V?$_Tmap_traits@V?$CStringT@DV?$StrTraitMFC_DLL@DV?$ChTraitsCRT@D@ATL@@@@@ATL@@V?$CAdapt@V?$CComPtr@UIDispatch@@@ATL@@@2@U?$less@V?$CStringT@DV?$StrTraitMFC_DLL@DV?$ChTraitsCRT@D@ATL@@@@@ATL@@@std@@V?$allocator@U?$pair@$$CBV?$CStringT@DV?$StrTraitMFC_DLL@DV?$ChTraitsCRT@D@ATL@@@@@ATL@@V?$CAdapt@V?$CComPtr@UIDispatch@@@ATL@@@2@@std@@@5@$0A@@std@@@std@@U_Iterator_base0@2@@std@@QBEPAU_Node@?$_Tree_nod@V?$_Tmap_traits@V?$CStringT@DV?$StrTraitMFC_DLL@DV?$ChTraitsCRT@D@ATL@@@@@ATL@@V?$CAdapt@V?$CComPtr@UIDispatch@@@ATL@@@2@U?$less@V?$CStringT@DV?$StrTraitMFC_DLL@DV?$ChTraitsCRT@D@ATL@@@@@ATL@@@std@@V?$allocator@U?$pair@$$CBV?$CStringT@DV?$StrTraitMFC_DLL@DV?$ChTraitsCRT@D@ATL@@@@@ATL@@V?$CAdapt@V?$CComPtr@UIDispatch@@@ATL@@@2@@std@@@5@$0A@@std@@@2@XZ 00415c00 f i DlgSelectGood.obj
 0001:00014c00       ??C?$shared_ptr@V?$Reference@UTypePrice@@V?$SQLSearchStrategy@UTypePrice@@V?$RefCreator@UTypePrice@@$00@@@@@@@boost@@QBEPAV?$Reference@UTypePrice@@V?$SQLSearchStrategy@UTypePrice@@V?$RefCreator@UTypePrice@@$00@@@@@@XZ 00415c00 f i CheckDoc.obj
 0001:00014c00       ?_Unchecked@?$_Vector_iterator@V?$_Vector_val@V?$tuple@V?$basic_string@_WU?$char_traits@_W@std@@V?$allocator@_W@2@@std@@V12@V12@V12@Unull_type@tuples@boost@@U345@U345@U345@U345@U345@@tuples@boost@@V?$allocator@V?$tuple@V?$basic_string@_WU?$char_traits@_W@std@@V?$allocator@_W@2@@std@@V12@V12@V12@Unull_type@tuples@boost@@U345@U345@U345@U345@U345@@tuples@boost@@@std@@@std@@@std@@QBEPAV?$tuple@V?$basic_string@_WU?$char_traits@_W@std@@V?$allocator@_W@2@@std@@V12@V12@V12@Unull_type@tuples@boost@@U345@U345@U345@U345@U345@@tuples@boost@@XZ 00415c00 f i DlgInsert.obj
 0001:00014c00       ??B?$_com_ptr_t@V?$_com_IIID@U_Connection@@$1?_GUID_00000550_0000_0010_8000_00aa006d2ea4@@3U__s_GUID@@B@@@@QBEPAU_Connection@@XZ 00415c00 f i DBDoc.obj
 0001:00014c00       ??C?$shared_ptr@V?$SlaveReference@UUnits@@UProducts@@@@@boost@@QBEPAV?$SlaveReference@UUnits@@UProducts@@@@XZ 00415c00 f i CheckDoc.obj
 0001:00014c00       ??C?$shared_ptr@V?$RestRegistry@UProductsRestRegs@@VSQLStrategy@@@@@boost@@QBEPAV?$RestRegistry@UProductsRestRegs@@VSQLStrategy@@@@XZ 00415c00 f i DlgFindAll.obj
 0001:00014c00       ?get@?$shared_ptr@V?$HierarchyReference@UProducts@@@@@boost@@QBEPAV?$HierarchyReference@UProducts@@@@XZ 00415c00 f i CheckDoc.obj
 0001:00014c00       ?_Unchecked@?$_String_const_iterator@_WU?$char_traits@_W@std@@V?$allocator@_W@2@@std@@QBEPB_WXZ 00415c00 f i CheckDoc.obj
 0001:00014c00       ?_Unchecked@?$_Vector_const_iterator@V?$_Vector_val@V?$tuple@V?$basic_string@_WU?$char_traits@_W@std@@V?$allocator@_W@2@@std@@V12@V12@V?$shared_ptr@VRefItemV@@@boost@@Unull_type@tuples@4@U564@U564@U564@U564@U564@@tuples@boost@@V?$allocator@V?$tuple@V?$basic_string@_WU?$char_traits@_W@std@@V?$allocator@_W@2@@std@@V12@V12@V?$shared_ptr@VRefItemV@@@boost@@Unull_type@tuples@4@U564@U564@U564@U564@U564@@tuples@boost@@@std@@@std@@@std@@QBEPBV?$tuple@V?$basic_string@_WU?$char_traits@_W@std@@V?$allocator@_W@2@@std@@V12@V12@V?$shared_ptr@VRefItemV@@@boost@@Unull_type@tuples@4@U564@U564@U564@U564@U564@@tuples@boost@@XZ 00415c00 f i CheckDoc.obj
 0001:00014c00       ??C?$shared_ptr@V?$Reference@UEmployees@@V?$SQLSearchStrategy@UEmployees@@V?$RefCreator@UEmployees@@$00@@@@@@@boost@@QBEPAV?$Reference@UEmployees@@V?$SQLSearchStrategy@UEmployees@@V?$RefCreator@UEmployees@@$00@@@@@@XZ 00415c00 f i DlgLogin.obj
 0001:00014c00       ?_Unchecked@?$_Vector_iterator@V?$_Vector_val@V?$tuple@V?$basic_string@_WU?$char_traits@_W@std@@V?$allocator@_W@2@@std@@V12@V12@Unull_type@tuples@boost@@U345@U345@U345@U345@U345@U345@@tuples@boost@@V?$allocator@V?$tuple@V?$basic_string@_WU?$char_traits@_W@std@@V?$allocator@_W@2@@std@@V12@V12@Unull_type@tuples@boost@@U345@U345@U345@U345@U345@U345@@tuples@boost@@@std@@@std@@@std@@QBEPAV?$tuple@V?$basic_string@_WU?$char_traits@_W@std@@V?$allocator@_W@2@@std@@V12@V12@Unull_type@tuples@boost@@U345@U345@U345@U345@U345@U345@@tuples@boost@@XZ 00415c00 f i DlgFindAll.obj
 0001:00014c00       ?get@?$shared_ptr@U_Connection@@@boost@@QBEPAU_Connection@@XZ 00415c00 f i CheckDoc.obj
 0001:00014c00       ??B?$CComPtrBase@UIDocOneC@DOC@@@ATL@@QBEPAUIDocOneC@DOC@@XZ 00415c00 f i CheckDoc.obj
 0001:00014c00       ??B?$CComPtrBase@UIValue@DOC@@@ATL@@QBEPAUIValue@DOC@@XZ 00415c00 f i MainDocument.obj
 0001:00014c00       ??B?$_com_ptr_t@V?$_com_IIID@UIMSMQQueue@MSMQ@@$1?_GUID_d7d6e076_dccd_11d0_aa4b_0060970debae@@3U__s_GUID@@B@@@@QBEPAUIMSMQQueue@MSMQ@@XZ 00415c00 f i MainDocument.obj
 0001:00014c00       ??B?$_com_ptr_t@V?$_com_IIID@U_Recordset@@$1?_GUID_00000556_0000_0010_8000_00aa006d2ea4@@3U__s_GUID@@B@@@@QBEPAU_Recordset@@XZ 00415c00 f i DialogView.obj
 0001:00014c00       ?GetString@?$CSimpleStringT@D$0A@@ATL@@QBEPBDXZ 00415c00 f i DlgSelectGood.obj
 0001:00014c00       ?_Unchecked@?$_Vector_iterator@V?$_Vector_val@V?$tuple@V?$basic_string@_WU?$char_traits@_W@std@@V?$allocator@_W@2@@std@@V12@_NV12@V?$shared_ptr@VRefItemV@@@boost@@Unull_type@tuples@4@U564@U564@U564@U564@@tuples@boost@@V?$allocator@V?$tuple@V?$basic_string@_WU?$char_traits@_W@std@@V?$allocator@_W@2@@std@@V12@_NV12@V?$shared_ptr@VRefItemV@@@boost@@Unull_type@tuples@4@U564@U564@U564@U564@@tuples@boost@@@std@@@std@@@std@@QBEPAV?$tuple@V?$basic_string@_WU?$char_traits@_W@std@@V?$allocator@_W@2@@std@@V12@_NV12@V?$shared_ptr@VRefItemV@@@boost@@Unull_type@tuples@4@U564@U564@U564@U564@@tuples@boost@@XZ 00415c00 f i DlgFindAll.obj
 0001:00014c00       ?_Mynode@?$_Tree_unchecked_const_iterator@V?$_Tree_val@V?$_Tmap_traits@V?$basic_string@_WU?$char_traits@_W@std@@V?$allocator@_W@2@@std@@V?$tuple@V?$basic_string@_WU?$char_traits@_W@std@@V?$allocator@_W@2@@std@@V12@Unull_type@tuples@boost@@U345@U345@U345@U345@U345@U345@U345@@tuples@boost@@U?$less@V?$basic_string@_WU?$char_traits@_W@std@@V?$allocator@_W@2@@std@@@2@V?$allocator@U?$pair@$$CBV?$basic_string@_WU?$char_traits@_W@std@@V?$allocator@_W@2@@std@@V?$tuple@V?$basic_string@_WU?$char_traits@_W@std@@V?$allocator@_W@2@@std@@V12@Unull_type@tuples@boost@@U345@U345@U345@U345@U345@U345@U345@@tuples@boost@@@std@@@2@$00@std@@@std@@U_Iterator_base0@2@@std@@QBEPAU_Node@?$_Tree_nod@V?$_Tmap_traits@V?$basic_string@_WU?$char_traits@_W@std@@V?$allocator@_W@2@@std@@V?$tuple@V?$basic_string@_WU?$char_traits@_W@std@@V?$allocator@_W@2@@std@@V12@Unull_type@tuples@boost@@U345@U345@U345@U345@U345@U345@U345@@tuples@boost@@U?$less@V?$basic_string@_WU?$char_traits@_W@std@@V?$allocator@_W@2@@std@@@2@V?$allocator@U?$pair@$$CBV?$basic_string@_WU?$char_traits@_W@std@@V?$allocator@_W@2@@std@@V?$tuple@V?$basic_string@_WU?$char_traits@_W@std@@V?$allocator@_W@2@@std@@V12@Unull_type@tuples@boost@@U345@U345@U345@U345@U345@U345@U345@@tuples@boost@@@std@@@2@$00@std@@@2@XZ 00415c00 f i SuperTree.obj
 0001:00014c00       ?get@?$shared_ptr@VRefItemV@@@boost@@QBEPAVRefItemV@@XZ 00415c00 f i CheckDoc.obj
 0001:00014c00       ?_Unchecked@?$_String_iterator@_WU?$char_traits@_W@std@@V?$allocator@_W@2@@std@@QBEPA_WXZ 00415c00 f i DlgFindAll.obj
 0001:00014c00       ??BImageList_SetBkColor_Type@CComCtlWrapper@@QAEP6GKPAU_IMAGELIST@@K@ZXZ 00415c00 f i DictGoodsFrame.obj
 0001:00014c00       ?_Mynode@?$_Tree_unchecked_const_iterator@V?$_Tree_val@V?$_Tmap_traits@PAVCWnd@@IU?$less@PAVCWnd@@@std@@V?$allocator@U?$pair@QAVCWnd@@I@std@@@3@$0A@@std@@@std@@U_Iterator_base0@2@@std@@QBEPAU_Node@?$_Tree_nod@V?$_Tmap_traits@PAVCWnd@@IU?$less@PAVCWnd@@@std@@V?$allocator@U?$pair@QAVCWnd@@I@std@@@3@$0A@@std@@@2@XZ 00415c00 f i MultiSplitterView.obj
 0001:00014c00       ??BCComBSTR@ATL@@QBEPA_WXZ 00415c00 f i 1CHelper.obj
 0001:00014c00       ??C?$CComPtrBase@UIValue@DOC@@@ATL@@QBEPAV?$_NoAddRefReleaseOnCComPtr@UIValue@DOC@@@1@XZ 00415c00 f i CheckDoc.obj
 0001:00014c00       ??B?$CComPtrBase@UICreateErrorInfo@@@ATL@@QBEPAUICreateErrorInfo@@XZ 00415c00 f i CheckDoc.obj
 0001:00014c00       ??B?$CComPtrBase@UIDispatch@@@ATL@@QBEPAUIDispatch@@XZ 00415c00 f i CheckDoc.obj
 0001:00014c00       ??C?$shared_ptr@V?$Reference@UContragents@@V?$SQLSearchStrategy@UContragents@@V?$RefCreator@UContragents@@$00@@@@@@@boost@@QBEPAV?$Reference@UContragents@@V?$SQLSearchStrategy@UContragents@@V?$RefCreator@UContragents@@$00@@@@@@XZ 00415c00 f i MainDocument.obj
 0001:00014c10       ??0?$pair@$$CBV?$basic_string@_WU?$char_traits@_W@std@@V?$allocator@_W@2@@std@@V12@@std@@QAE@ABV?$basic_string@_WU?$char_traits@_W@std@@V?$allocator@_W@2@@1@$$QAV21@@Z 00415c10 f i CheckDoc.obj
 0001:00014c40       ?insert@?$_Tree@V?$_Tmap_traits@$$CBV?$basic_string@_WU?$char_traits@_W@std@@V?$allocator@_W@2@@std@@V_variant_t@@U?$less@$$CBV?$basic_string@_WU?$char_traits@_W@std@@V?$allocator@_W@2@@std@@@2@V?$allocator@U?$pair@$$CBV?$basic_string@_WU?$char_traits@_W@std@@V?$allocator@_W@2@@std@@V_variant_t@@@std@@@2@$0A@@std@@@std@@QAE?AU?$pair@V?$_Tree_iterator@V?$_Tree_val@V?$_Tmap_traits@$$CBV?$basic_string@_WU?$char_traits@_W@std@@V?$allocator@_W@2@@std@@V_variant_t@@U?$less@$$CBV?$basic_string@_WU?$char_traits@_W@std@@V?$allocator@_W@2@@std@@@2@V?$allocator@U?$pair@$$CBV?$basic_string@_WU?$char_traits@_W@std@@V?$allocator@_W@2@@std@@V_variant_t@@@std@@@2@$0A@@std@@@std@@@std@@_N@2@ABU?$pair@$$CBV?$basic_string@_WU?$char_traits@_W@std@@V?$allocator@_W@2@@std@@V_variant_t@@@2@_N@Z 00415c40 f i CheckDoc.obj
 0001:00014e40       ??0?$_Tree@V?$_Tmap_traits@V?$basic_string@_WU?$char_traits@_W@std@@V?$allocator@_W@2@@std@@V12@U?$less@V?$basic_string@_WU?$char_traits@_W@std@@V?$allocator@_W@2@@std@@@2@V?$allocator@U?$pair@$$CBV?$basic_string@_WU?$char_traits@_W@std@@V?$allocator@_W@2@@std@@V12@@std@@@2@$0A@@std@@@std@@QAE@ABU?$less@V?$basic_string@_WU?$char_traits@_W@std@@V?$allocator@_W@2@@std@@@1@ABV?$allocator@U?$pair@$$CBV?$basic_string@_WU?$char_traits@_W@std@@V?$allocator@_W@2@@std@@V12@@std@@@1@@Z 00415e40 f i CheckDoc.obj
 0001:00014e70       ??0?$_Tree@V?$_Tmap_traits@V?$basic_string@_WU?$char_traits@_W@std@@V?$allocator@_W@2@@std@@V12@U?$less@V?$basic_string@_WU?$char_traits@_W@std@@V?$allocator@_W@2@@std@@@2@V?$allocator@U?$pair@$$CBV?$basic_string@_WU?$char_traits@_W@std@@V?$allocator@_W@2@@std@@V12@@std@@@2@$0A@@std@@@std@@QAE@$$QAV01@@Z 00415e70 f i CheckDoc.obj
 0001:00014f00       ??4?$_Tree@V?$_Tmap_traits@V?$basic_string@_WU?$char_traits@_W@std@@V?$allocator@_W@2@@std@@V12@U?$less@V?$basic_string@_WU?$char_traits@_W@std@@V?$allocator@_W@2@@std@@@2@V?$allocator@U?$pair@$$CBV?$basic_string@_WU?$char_traits@_W@std@@V?$allocator@_W@2@@std@@V12@@std@@@2@$0A@@std@@@std@@QAEAAV01@$$QAV01@@Z 00415f00 f i CheckDoc.obj
 0001:00014f30       ?key_comp@?$_Tree@V?$_Tmap_traits@V?$basic_string@_WU?$char_traits@_W@std@@V?$allocator@_W@2@@std@@V12@U?$less@V?$basic_string@_WU?$char_traits@_W@std@@V?$allocator@_W@2@@std@@@2@V?$allocator@U?$pair@$$CBV?$basic_string@_WU?$char_traits@_W@std@@V?$allocator@_W@2@@std@@V12@@std@@@2@$0A@@std@@@std@@QBE?AU?$less@V?$basic_string@_WU?$char_traits@_W@std@@V?$allocator@_W@2@@std@@@2@XZ 00415f30 f i CheckDoc.obj
 0001:00014f40       ?_Copy@?$_Tree@V?$_Tmap_traits@V?$basic_string@_WU?$char_traits@_W@std@@V?$allocator@_W@2@@std@@V12@U?$less@V?$basic_string@_WU?$char_traits@_W@std@@V?$allocator@_W@2@@std@@@2@V?$allocator@U?$pair@$$CBV?$basic_string@_WU?$char_traits@_W@std@@V?$allocator@_W@2@@std@@V12@@std@@@2@$0A@@std@@@std@@IAEXABV12@@Z 00415f40 f i CheckDoc.obj
 0001:00015000       ?_Erase@?$_Tree@V?$_Tmap_traits@V?$basic_string@_WU?$char_traits@_W@std@@V?$allocator@_W@2@@std@@V12@U?$less@V?$basic_string@_WU?$char_traits@_W@std@@V?$allocator@_W@2@@std@@@2@V?$allocator@U?$pair@$$CBV?$basic_string@_WU?$char_traits@_W@std@@V?$allocator@_W@2@@std@@V12@@std@@@2@$0A@@std@@@std@@IAEXPAU_Node@?$_Tree_nod@V?$_Tmap_traits@V?$basic_string@_WU?$char_traits@_W@std@@V?$allocator@_W@2@@std@@V12@U?$less@V?$basic_string@_WU?$char_traits@_W@std@@V?$allocator@_W@2@@std@@@2@V?$allocator@U?$pair@$$CBV?$basic_string@_WU?$char_traits@_W@std@@V?$allocator@_W@2@@std@@V12@@std@@@2@$0A@@std@@@2@@Z 00416000 f i CheckDoc.obj
 0001:00015090       ?_Lbound@?$_Tree@V?$_Tmap_traits@V?$basic_string@_WU?$char_traits@_W@std@@V?$allocator@_W@2@@std@@V12@U?$less@V?$basic_string@_WU?$char_traits@_W@std@@V?$allocator@_W@2@@std@@@2@V?$allocator@U?$pair@$$CBV?$basic_string@_WU?$char_traits@_W@std@@V?$allocator@_W@2@@std@@V12@@std@@@2@$0A@@std@@@std@@IAEPAU_Node@?$_Tree_nod@V?$_Tmap_traits@V?$basic_string@_WU?$char_traits@_W@std@@V?$allocator@_W@2@@std@@V12@U?$less@V?$basic_string@_WU?$char_traits@_W@std@@V?$allocator@_W@2@@std@@@2@V?$allocator@U?$pair@$$CBV?$basic_string@_WU?$char_traits@_W@std@@V?$allocator@_W@2@@std@@V12@@std@@@2@$0A@@std@@@2@ABV?$basic_string@_WU?$char_traits@_W@std@@V?$allocator@_W@2@@2@@Z 00416090 f i CheckDoc.obj
 0001:00015120       ?_Lrotate@?$_Tree@V?$_Tmap_traits@V?$basic_string@_WU?$char_traits@_W@std@@V?$allocator@_W@2@@std@@V12@U?$less@V?$basic_string@_WU?$char_traits@_W@std@@V?$allocator@_W@2@@std@@@2@V?$allocator@U?$pair@$$CBV?$basic_string@_WU?$char_traits@_W@std@@V?$allocator@_W@2@@std@@V12@@std@@@2@$0A@@std@@@std@@IAEXPAU_Node@?$_Tree_nod@V?$_Tmap_traits@V?$basic_string@_WU?$char_traits@_W@std@@V?$allocator@_W@2@@std@@V12@U?$less@V?$basic_string@_WU?$char_traits@_W@std@@V?$allocator@_W@2@@std@@@2@V?$allocator@U?$pair@$$CBV?$basic_string@_WU?$char_traits@_W@std@@V?$allocator@_W@2@@std@@V12@@std@@@2@$0A@@std@@@2@@Z 00416120 f i CheckDoc.obj
 0001:00015250       ?_Rrotate@?$_Tree@V?$_Tmap_traits@V?$basic_string@_WU?$char_traits@_W@std@@V?$allocator@_W@2@@std@@V12@U?$less@V?$basic_string@_WU?$char_traits@_W@std@@V?$allocator@_W@2@@std@@@2@V?$allocator@U?$pair@$$CBV?$basic_string@_WU?$char_traits@_W@std@@V?$allocator@_W@2@@std@@V12@@std@@@2@$0A@@std@@@std@@IAEXPAU_Node@?$_Tree_nod@V?$_Tmap_traits@V?$basic_string@_WU?$char_traits@_W@std@@V?$allocator@_W@2@@std@@V12@U?$less@V?$basic_string@_WU?$char_traits@_W@std@@V?$allocator@_W@2@@std@@@2@V?$allocator@U?$pair@$$CBV?$basic_string@_WU?$char_traits@_W@std@@V?$allocator@_W@2@@std@@V12@@std@@@2@$0A@@std@@@2@@Z 00416250 f i CheckDoc.obj
 0001:00015380       ??0?$_Tree_val@V?$_Tmap_traits@V?$basic_string@_WU?$char_traits@_W@std@@V?$allocator@_W@2@@std@@V12@U?$less@V?$basic_string@_WU?$char_traits@_W@std@@V?$allocator@_W@2@@std@@@2@V?$allocator@U?$pair@$$CBV?$basic_string@_WU?$char_traits@_W@std@@V?$allocator@_W@2@@std@@V12@@std@@@2@$0A@@std@@@std@@QAE@ABU?$less@V?$basic_string@_WU?$char_traits@_W@std@@V?$allocator@_W@2@@std@@@1@V?$allocator@U?$pair@$$CBV?$basic_string@_WU?$char_traits@_W@std@@V?$allocator@_W@2@@std@@V12@@std@@@1@@Z 00416380 f i CheckDoc.obj
 0001:00015430       ?_Color@?$_Tree_val@V?$_Tmap_traits@V?$basic_string@_WU?$char_traits@_W@std@@V?$allocator@_W@2@@std@@V12@U?$less@V?$basic_string@_WU?$char_traits@_W@std@@V?$allocator@_W@2@@std@@@2@V?$allocator@U?$pair@$$CBV?$basic_string@_WU?$char_traits@_W@std@@V?$allocator@_W@2@@std@@V12@@std@@@2@$0A@@std@@@std@@SAAADPAU_Node@?$_Tree_nod@V?$_Tmap_traits@V?$basic_string@_WU?$char_traits@_W@std@@V?$allocator@_W@2@@std@@V12@U?$less@V?$basic_string@_WU?$char_traits@_W@std@@V?$allocator@_W@2@@std@@@2@V?$allocator@U?$pair@$$CBV?$basic_string@_WU?$char_traits@_W@std@@V?$allocator@_W@2@@std@@V12@@std@@@2@$0A@@std@@@2@@Z 00416430 f i CheckDoc.obj
 0001:00015440       ?_Isnil@?$_Tree_val@V?$_Tmap_traits@V?$basic_string@_WU?$char_traits@_W@std@@V?$allocator@_W@2@@std@@V12@U?$less@V?$basic_string@_WU?$char_traits@_W@std@@V?$allocator@_W@2@@std@@@2@V?$allocator@U?$pair@$$CBV?$basic_string@_WU?$char_traits@_W@std@@V?$allocator@_W@2@@std@@V12@@std@@@2@$0A@@std@@@std@@SAAADPAU_Node@?$_Tree_nod@V?$_Tmap_traits@V?$basic_string@_WU?$char_traits@_W@std@@V?$allocator@_W@2@@std@@V12@U?$less@V?$basic_string@_WU?$char_traits@_W@std@@V?$allocator@_W@2@@std@@@2@V?$allocator@U?$pair@$$CBV?$basic_string@_WU?$char_traits@_W@std@@V?$allocator@_W@2@@std@@V12@@std@@@2@$0A@@std@@@2@@Z 00416440 f i CheckDoc.obj
 0001:00015450       ?_Myval@?$_Tree_val@V?$_Tmap_traits@V?$basic_string@_WU?$char_traits@_W@std@@V?$allocator@_W@2@@std@@V12@U?$less@V?$basic_string@_WU?$char_traits@_W@std@@V?$allocator@_W@2@@std@@@2@V?$allocator@U?$pair@$$CBV?$basic_string@_WU?$char_traits@_W@std@@V?$allocator@_W@2@@std@@V12@@std@@@2@$0A@@std@@@std@@SAAAU?$pair@$$CBV?$basic_string@_WU?$char_traits@_W@std@@V?$allocator@_W@2@@std@@V12@@2@PAU_Node@?$_Tree_nod@V?$_Tmap_traits@V?$basic_string@_WU?$char_traits@_W@std@@V?$allocator@_W@2@@std@@V12@U?$less@V?$basic_string@_WU?$char_traits@_W@std@@V?$allocator@_W@2@@std@@@2@V?$allocator@U?$pair@$$CBV?$basic_string@_WU?$char_traits@_W@std@@V?$allocator@_W@2@@std@@V12@@std@@@2@$0A@@std@@@2@@Z 00416450 f i CheckDoc.obj
 0001:00015450       ?_Myval@?$_Tree_val@V?$_Tmap_traits@V?$basic_string@_WU?$char_traits@_W@std@@V?$allocator@_W@2@@std@@PAU_TREEITEM@@U?$less@V?$basic_string@_WU?$char_traits@_W@std@@V?$allocator@_W@2@@std@@@2@V?$allocator@U?$pair@$$CBV?$basic_string@_WU?$char_traits@_W@std@@V?$allocator@_W@2@@std@@PAU_TREEITEM@@@std@@@2@$0A@@std@@@std@@SAAAU?$pair@$$CBV?$basic_string@_WU?$char_traits@_W@std@@V?$allocator@_W@2@@std@@PAU_TREEITEM@@@2@PAU_Node@?$_Tree_nod@V?$_Tmap_traits@V?$basic_string@_WU?$char_traits@_W@std@@V?$allocator@_W@2@@std@@PAU_TREEITEM@@U?$less@V?$basic_string@_WU?$char_traits@_W@std@@V?$allocator@_W@2@@std@@@2@V?$allocator@U?$pair@$$CBV?$basic_string@_WU?$char_traits@_W@std@@V?$allocator@_W@2@@std@@PAU_TREEITEM@@@std@@@2@$0A@@std@@@2@@Z 00416450 f i SuperTree.obj
 0001:00015450       ?_Myval@?$_Tree_val@V?$_Tmap_traits@V?$basic_string@_WU?$char_traits@_W@std@@V?$allocator@_W@2@@std@@V?$tuple@V?$basic_string@_WU?$char_traits@_W@std@@V?$allocator@_W@2@@std@@V12@Unull_type@tuples@boost@@U345@U345@U345@U345@U345@U345@U345@@tuples@boost@@U?$less@V?$basic_string@_WU?$char_traits@_W@std@@V?$allocator@_W@2@@std@@@2@V?$allocator@U?$pair@$$CBV?$basic_string@_WU?$char_traits@_W@std@@V?$allocator@_W@2@@std@@V?$tuple@V?$basic_string@_WU?$char_traits@_W@std@@V?$allocator@_W@2@@std@@V12@Unull_type@tuples@boost@@U345@U345@U345@U345@U345@U345@U345@@tuples@boost@@@std@@@2@$00@std@@@std@@SAAAU?$pair@$$CBV?$basic_string@_WU?$char_traits@_W@std@@V?$allocator@_W@2@@std@@V?$tuple@V?$basic_string@_WU?$char_traits@_W@std@@V?$allocator@_W@2@@std@@V12@Unull_type@tuples@boost@@U345@U345@U345@U345@U345@U345@U345@@tuples@boost@@@2@PAU_Node@?$_Tree_nod@V?$_Tmap_traits@V?$basic_string@_WU?$char_traits@_W@std@@V?$allocator@_W@2@@std@@V?$tuple@V?$basic_string@_WU?$char_traits@_W@std@@V?$allocator@_W@2@@std@@V12@Unull_type@tuples@boost@@U345@U345@U345@U345@U345@U345@U345@@tuples@boost@@U?$less@V?$basic_string@_WU?$char_traits@_W@std@@V?$allocator@_W@2@@std@@@2@V?$allocator@U?$pair@$$CBV?$basic_string@_WU?$char_traits@_W@std@@V?$allocator@_W@2@@std@@V?$tuple@V?$basic_string@_WU?$char_traits@_W@std@@V?$allocator@_W@2@@std@@V12@Unull_type@tuples@boost@@U345@U345@U345@U345@U345@U345@U345@@tuples@boost@@@std@@@2@$00@std@@@2@@Z 00416450 f i SuperTree.obj
 0001:00015450       ?_Myval@?$_Tree_val@V?$_Tmap_traits@V?$CStringT@DV?$StrTraitMFC_DLL@DV?$ChTraitsCRT@D@ATL@@@@@ATL@@V?$CAdapt@V?$CComPtr@UIDispatch@@@ATL@@@2@U?$less@V?$CStringT@DV?$StrTraitMFC_DLL@DV?$ChTraitsCRT@D@ATL@@@@@ATL@@@std@@V?$allocator@U?$pair@$$CBV?$CStringT@DV?$StrTraitMFC_DLL@DV?$ChTraitsCRT@D@ATL@@@@@ATL@@V?$CAdapt@V?$CComPtr@UIDispatch@@@ATL@@@2@@std@@@5@$0A@@std@@@std@@SAAAU?$pair@$$CBV?$CStringT@DV?$StrTraitMFC_DLL@DV?$ChTraitsCRT@D@ATL@@@@@ATL@@V?$CAdapt@V?$CComPtr@UIDispatch@@@ATL@@@2@@2@PAU_Node@?$_Tree_nod@V?$_Tmap_traits@V?$CStringT@DV?$StrTraitMFC_DLL@DV?$ChTraitsCRT@D@ATL@@@@@ATL@@V?$CAdapt@V?$CComPtr@UIDispatch@@@ATL@@@2@U?$less@V?$CStringT@DV?$StrTraitMFC_DLL@DV?$ChTraitsCRT@D@ATL@@@@@ATL@@@std@@V?$allocator@U?$pair@$$CBV?$CStringT@DV?$StrTraitMFC_DLL@DV?$ChTraitsCRT@D@ATL@@@@@ATL@@V?$CAdapt@V?$CComPtr@UIDispatch@@@ATL@@@2@@std@@@5@$0A@@std@@@2@@Z 00416450 f i DlgSelectGood.obj
 0001:00015450       ?_Myval@?$_Tree_val@V?$_Tmap_traits@PAVCWnd@@IU?$less@PAVCWnd@@@std@@V?$allocator@U?$pair@QAVCWnd@@I@std@@@3@$0A@@std@@@std@@SAAAU?$pair@QAVCWnd@@I@2@PAU_Node@?$_Tree_nod@V?$_Tmap_traits@PAVCWnd@@IU?$less@PAVCWnd@@@std@@V?$allocator@U?$pair@QAVCWnd@@I@std@@@3@$0A@@std@@@2@@Z 00416450 f i MultiSplitterView.obj
 0001:00015450       ?_Myval@?$_Tree_val@V?$_Tmap_traits@V?$CStringT@DV?$StrTraitMFC_DLL@DV?$ChTraitsCRT@D@ATL@@@@@ATL@@V?$shared_ptr@VCFont@@@tr1@std@@U?$less@V?$CStringT@DV?$StrTraitMFC_DLL@DV?$ChTraitsCRT@D@ATL@@@@@ATL@@@5@V?$allocator@U?$pair@$$CBV?$CStringT@DV?$StrTraitMFC_DLL@DV?$ChTraitsCRT@D@ATL@@@@@ATL@@V?$shared_ptr@VCFont@@@tr1@std@@@std@@@5@$0A@@std@@@std@@SAAAU?$pair@$$CBV?$CStringT@DV?$StrTraitMFC_DLL@DV?$ChTraitsCRT@D@ATL@@@@@ATL@@V?$shared_ptr@VCFont@@@tr1@std@@@2@PAU_Node@?$_Tree_nod@V?$_Tmap_traits@V?$CStringT@DV?$StrTraitMFC_DLL@DV?$ChTraitsCRT@D@ATL@@@@@ATL@@V?$shared_ptr@VCFont@@@tr1@std@@U?$less@V?$CStringT@DV?$StrTraitMFC_DLL@DV?$ChTraitsCRT@D@ATL@@@@@ATL@@@5@V?$allocator@U?$pair@$$CBV?$CStringT@DV?$StrTraitMFC_DLL@DV?$ChTraitsCRT@D@ATL@@@@@ATL@@V?$shared_ptr@VCFont@@@tr1@std@@@std@@@5@$0A@@std@@@2@@Z 00416450 f i DlgEnterCash.obj
 0001:00015460       ?_Max@?$_Tree_val@V?$_Tmap_traits@V?$basic_string@_WU?$char_traits@_W@std@@V?$allocator@_W@2@@std@@V12@U?$less@V?$basic_string@_WU?$char_traits@_W@std@@V?$allocator@_W@2@@std@@@2@V?$allocator@U?$pair@$$CBV?$basic_string@_WU?$char_traits@_W@std@@V?$allocator@_W@2@@std@@V12@@std@@@2@$0A@@std@@@std@@SAPAU_Node@?$_Tree_nod@V?$_Tmap_traits@V?$basic_string@_WU?$char_traits@_W@std@@V?$allocator@_W@2@@std@@V12@U?$less@V?$basic_string@_WU?$char_traits@_W@std@@V?$allocator@_W@2@@std@@@2@V?$allocator@U?$pair@$$CBV?$basic_string@_WU?$char_traits@_W@std@@V?$allocator@_W@2@@std@@V12@@std@@@2@$0A@@std@@@2@PAU342@@Z 00416460 f i CheckDoc.obj
 0001:000154a0       ?_Min@?$_Tree_val@V?$_Tmap_traits@V?$basic_string@_WU?$char_traits@_W@std@@V?$allocator@_W@2@@std@@V12@U?$less@V?$basic_string@_WU?$char_traits@_W@std@@V?$allocator@_W@2@@std@@@2@V?$allocator@U?$pair@$$CBV?$basic_string@_WU?$char_traits@_W@std@@V?$allocator@_W@2@@std@@V12@@std@@@2@$0A@@std@@@std@@SAPAU_Node@?$_Tree_nod@V?$_Tmap_traits@V?$basic_string@_WU?$char_traits@_W@std@@V?$allocator@_W@2@@std@@V12@U?$less@V?$basic_string@_WU?$char_traits@_W@std@@V?$allocator@_W@2@@std@@@2@V?$allocator@U?$pair@$$CBV?$basic_string@_WU?$char_traits@_W@std@@V?$allocator@_W@2@@std@@V12@@std@@@2@$0A@@std@@@2@PAU342@@Z 004164a0 f i CheckDoc.obj
 0001:000154e0       ??D?$_Tree_unchecked_const_iterator@V?$_Tree_val@V?$_Tmap_traits@V?$basic_string@_WU?$char_traits@_W@std@@V?$allocator@_W@2@@std@@PAU_TREEITEM@@U?$less@V?$basic_string@_WU?$char_traits@_W@std@@V?$allocator@_W@2@@std@@@2@V?$allocator@U?$pair@$$CBV?$basic_string@_WU?$char_traits@_W@std@@V?$allocator@_W@2@@std@@PAU_TREEITEM@@@std@@@2@$0A@@std@@@std@@U_Iterator_base0@2@@std@@QBEABU?$pair@$$CBV?$basic_string@_WU?$char_traits@_W@std@@V?$allocator@_W@2@@std@@PAU_TREEITEM@@@1@XZ 004164e0 f i SuperTree.obj
 0001:000154e0       ??D?$_Tree_const_iterator@V?$_Tree_val@V?$_Tmap_traits@V?$CStringT@DV?$StrTraitMFC_DLL@DV?$ChTraitsCRT@D@ATL@@@@@ATL@@V?$shared_ptr@VCFont@@@tr1@std@@U?$less@V?$CStringT@DV?$StrTraitMFC_DLL@DV?$ChTraitsCRT@D@ATL@@@@@ATL@@@5@V?$allocator@U?$pair@$$CBV?$CStringT@DV?$StrTraitMFC_DLL@DV?$ChTraitsCRT@D@ATL@@@@@ATL@@V?$shared_ptr@VCFont@@@tr1@std@@@std@@@5@$0A@@std@@@std@@@std@@QBEABU?$pair@$$CBV?$CStringT@DV?$StrTraitMFC_DLL@DV?$ChTraitsCRT@D@ATL@@@@@ATL@@V?$shared_ptr@VCFont@@@tr1@std@@@1@XZ 004164e0 f i DlgEnterCash.obj
 0001:000154e0       ??D?$_Tree_const_iterator@V?$_Tree_val@V?$_Tmap_traits@PAVCWnd@@IU?$less@PAVCWnd@@@std@@V?$allocator@U?$pair@QAVCWnd@@I@std@@@3@$0A@@std@@@std@@@std@@QBEABU?$pair@QAVCWnd@@I@1@XZ 004164e0 f i MultiSplitterView.obj
 0001:000154e0       ??D?$_Tree_unchecked_const_iterator@V?$_Tree_val@V?$_Tmap_traits@V?$CStringT@DV?$StrTraitMFC_DLL@DV?$ChTraitsCRT@D@ATL@@@@@ATL@@V?$shared_ptr@VCFont@@@tr1@std@@U?$less@V?$CStringT@DV?$StrTraitMFC_DLL@DV?$ChTraitsCRT@D@ATL@@@@@ATL@@@5@V?$allocator@U?$pair@$$CBV?$CStringT@DV?$StrTraitMFC_DLL@DV?$ChTraitsCRT@D@ATL@@@@@ATL@@V?$shared_ptr@VCFont@@@tr1@std@@@std@@@5@$0A@@std@@@std@@U_Iterator_base0@2@@std@@QBEABU?$pair@$$CBV?$CStringT@DV?$StrTraitMFC_DLL@DV?$ChTraitsCRT@D@ATL@@@@@ATL@@V?$shared_ptr@VCFont@@@tr1@std@@@1@XZ 004164e0 f i FontDlgPage.obj
 0001:000154e0       ??D?$_Tree_const_iterator@V?$_Tree_val@V?$_Tmap_traits@V?$CStringT@DV?$StrTraitMFC_DLL@DV?$ChTraitsCRT@D@ATL@@@@@ATL@@V?$CAdapt@V?$CComPtr@UIDispatch@@@ATL@@@2@U?$less@V?$CStringT@DV?$StrTraitMFC_DLL@DV?$ChTraitsCRT@D@ATL@@@@@ATL@@@std@@V?$allocator@U?$pair@$$CBV?$CStringT@DV?$StrTraitMFC_DLL@DV?$ChTraitsCRT@D@ATL@@@@@ATL@@V?$CAdapt@V?$CComPtr@UIDispatch@@@ATL@@@2@@std@@@5@$0A@@std@@@std@@@std@@QBEABU?$pair@$$CBV?$CStringT@DV?$StrTraitMFC_DLL@DV?$ChTraitsCRT@D@ATL@@@@@ATL@@V?$CAdapt@V?$CComPtr@UIDispatch@@@ATL@@@2@@1@XZ 004164e0 f i DlgSelectGood.obj
 0001:000154e0       ??D?$_Tree_const_iterator@V?$_Tree_val@V?$_Tmap_traits@V?$basic_string@_WU?$char_traits@_W@std@@V?$allocator@_W@2@@std@@V?$tuple@V?$basic_string@_WU?$char_traits@_W@std@@V?$allocator@_W@2@@std@@V12@Unull_type@tuples@boost@@U345@U345@U345@U345@U345@U345@U345@@tuples@boost@@U?$less@V?$basic_string@_WU?$char_traits@_W@std@@V?$allocator@_W@2@@std@@@2@V?$allocator@U?$pair@$$CBV?$basic_string@_WU?$char_traits@_W@std@@V?$allocator@_W@2@@std@@V?$tuple@V?$basic_string@_WU?$char_traits@_W@std@@V?$allocator@_W@2@@std@@V12@Unull_type@tuples@boost@@U345@U345@U345@U345@U345@U345@U345@@tuples@boost@@@std@@@2@$00@std@@@std@@@std@@QBEABU?$pair@$$CBV?$basic_string@_WU?$char_traits@_W@std@@V?$allocator@_W@2@@std@@V?$tuple@V?$basic_string@_WU?$char_traits@_W@std@@V?$allocator@_W@2@@std@@V12@Unull_type@tuples@boost@@U345@U345@U345@U345@U345@U345@U345@@tuples@boost@@@1@XZ 004164e0 f i SuperTree.obj
 0001:000154e0       ??D?$_Tree_const_iterator@V?$_Tree_val@V?$_Tmap_traits@V?$basic_string@_WU?$char_traits@_W@std@@V?$allocator@_W@2@@std@@V12@U?$less@V?$basic_string@_WU?$char_traits@_W@std@@V?$allocator@_W@2@@std@@@2@V?$allocator@U?$pair@$$CBV?$basic_string@_WU?$char_traits@_W@std@@V?$allocator@_W@2@@std@@V12@@std@@@2@$0A@@std@@@std@@@std@@QBEABU?$pair@$$CBV?$basic_string@_WU?$char_traits@_W@std@@V?$allocator@_W@2@@std@@V12@@1@XZ 004164e0 f i CheckDoc.obj
 0001:00015500       ??E?$_Tree_const_iterator@V?$_Tree_val@V?$_Tmap_traits@V?$basic_string@_WU?$char_traits@_W@std@@V?$allocator@_W@2@@std@@V12@U?$less@V?$basic_string@_WU?$char_traits@_W@std@@V?$allocator@_W@2@@std@@@2@V?$allocator@U?$pair@$$CBV?$basic_string@_WU?$char_traits@_W@std@@V?$allocator@_W@2@@std@@V12@@std@@@2@$0A@@std@@@std@@@std@@QAEAAV01@XZ 00416500 f i CheckDoc.obj
 0001:00015520       ??0?$_Pair_base@$$CBV?$basic_string@_WU?$char_traits@_W@std@@V?$allocator@_W@2@@std@@V12@@std@@QAE@ABV?$basic_string@_WU?$char_traits@_W@std@@V?$allocator@_W@2@@1@$$QAV21@@Z 00416520 f i CheckDoc.obj
 0001:00015590       ?_Insert@?$_Tree@V?$_Tmap_traits@$$CBV?$basic_string@_WU?$char_traits@_W@std@@V?$allocator@_W@2@@std@@V_variant_t@@U?$less@$$CBV?$basic_string@_WU?$char_traits@_W@std@@V?$allocator@_W@2@@std@@@2@V?$allocator@U?$pair@$$CBV?$basic_string@_WU?$char_traits@_W@std@@V?$allocator@_W@2@@std@@V_variant_t@@@std@@@2@$0A@@std@@@std@@IAE?AV?$_Tree_iterator@V?$_Tree_val@V?$_Tmap_traits@$$CBV?$basic_string@_WU?$char_traits@_W@std@@V?$allocator@_W@2@@std@@V_variant_t@@U?$less@$$CBV?$basic_string@_WU?$char_traits@_W@std@@V?$allocator@_W@2@@std@@@2@V?$allocator@U?$pair@$$CBV?$basic_string@_WU?$char_traits@_W@std@@V?$allocator@_W@2@@std@@V_variant_t@@@std@@@2@$0A@@std@@@std@@@2@_NPAU_Node@?$_Tree_nod@V?$_Tmap_traits@$$CBV?$basic_string@_WU?$char_traits@_W@std@@V?$allocator@_W@2@@std@@V_variant_t@@U?$less@$$CBV?$basic_string@_WU?$char_traits@_W@std@@V?$allocator@_W@2@@std@@@2@V?$allocator@U?$pair@$$CBV?$basic_string@_WU?$char_traits@_W@std@@V?$allocator@_W@2@@std@@V_variant_t@@@std@@@2@$0A@@std@@@2@ABU?$pair@$$CBV?$basic_string@_WU?$char_traits@_W@std@@V?$allocator@_W@2@@std@@V_variant_t@@@2@@Z 00416590 f i CheckDoc.obj
 0001:000155d0       ?_Assign_rv@?$_Tree@V?$_Tmap_traits@V?$basic_string@_WU?$char_traits@_W@std@@V?$allocator@_W@2@@std@@V12@U?$less@V?$basic_string@_WU?$char_traits@_W@std@@V?$allocator@_W@2@@std@@@2@V?$allocator@U?$pair@$$CBV?$basic_string@_WU?$char_traits@_W@std@@V?$allocator@_W@2@@std@@V12@@std@@@2@$0A@@std@@@std@@QAEX$$QAV12@@Z 004165d0 f i CheckDoc.obj
 0001:00015680       ?_Copy@?$_Tree@V?$_Tmap_traits@V?$basic_string@_WU?$char_traits@_W@std@@V?$allocator@_W@2@@std@@V12@U?$less@V?$basic_string@_WU?$char_traits@_W@std@@V?$allocator@_W@2@@std@@@2@V?$allocator@U?$pair@$$CBV?$basic_string@_WU?$char_traits@_W@std@@V?$allocator@_W@2@@std@@V12@@std@@@2@$0A@@std@@@std@@IAEPAU_Node@?$_Tree_nod@V?$_Tmap_traits@V?$basic_string@_WU?$char_traits@_W@std@@V?$allocator@_W@2@@std@@V12@U?$less@V?$basic_string@_WU?$char_traits@_W@std@@V?$allocator@_W@2@@std@@@2@V?$allocator@U?$pair@$$CBV?$basic_string@_WU?$char_traits@_W@std@@V?$allocator@_W@2@@std@@V12@@std@@@2@$0A@@std@@@2@PAU342@0@Z 00416680 f i CheckDoc.obj
 0001:000157e0       ?allocate@?$allocator@U_Node@?$_Tree_nod@V?$_Tmap_traits@$$CBV?$basic_string@_WU?$char_traits@_W@std@@V?$allocator@_W@2@@std@@V_variant_t@@U?$less@$$CBV?$basic_string@_WU?$char_traits@_W@std@@V?$allocator@_W@2@@std@@@2@V?$allocator@U?$pair@$$CBV?$basic_string@_WU?$char_traits@_W@std@@V?$allocator@_W@2@@std@@V_variant_t@@@std@@@2@$0A@@std@@@std@@@std@@QAEPAU_Node@?$_Tree_nod@V?$_Tmap_traits@$$CBV?$basic_string@_WU?$char_traits@_W@std@@V?$allocator@_W@2@@std@@V_variant_t@@U?$less@$$CBV?$basic_string@_WU?$char_traits@_W@std@@V?$allocator@_W@2@@std@@@2@V?$allocator@U?$pair@$$CBV?$basic_string@_WU?$char_traits@_W@std@@V?$allocator@_W@2@@std@@V_variant_t@@@std@@@2@$0A@@std@@@2@I@Z 004167e0 f i CheckDoc.obj
 0001:000157e0       ?allocate@?$allocator@U_Node@?$_Tree_nod@V?$_Tmap_traits@V?$basic_string@_WU?$char_traits@_W@std@@V?$allocator@_W@2@@std@@V12@U?$less@V?$basic_string@_WU?$char_traits@_W@std@@V?$allocator@_W@2@@std@@@2@V?$allocator@U?$pair@$$CBV?$basic_string@_WU?$char_traits@_W@std@@V?$allocator@_W@2@@std@@V12@@std@@@2@$0A@@std@@@std@@@std@@QAEPAU_Node@?$_Tree_nod@V?$_Tmap_traits@V?$basic_string@_WU?$char_traits@_W@std@@V?$allocator@_W@2@@std@@V12@U?$less@V?$basic_string@_WU?$char_traits@_W@std@@V?$allocator@_W@2@@std@@@2@V?$allocator@U?$pair@$$CBV?$basic_string@_WU?$char_traits@_W@std@@V?$allocator@_W@2@@std@@V12@@std@@@2@$0A@@std@@@2@I@Z 004167e0 f i CheckDoc.obj
 0001:00015800       ??F?$_Tree_iterator@V?$_Tree_val@V?$_Tmap_traits@$$CBV?$basic_string@_WU?$char_traits@_W@std@@V?$allocator@_W@2@@std@@V_variant_t@@U?$less@$$CBV?$basic_string@_WU?$char_traits@_W@std@@V?$allocator@_W@2@@std@@@2@V?$allocator@U?$pair@$$CBV?$basic_string@_WU?$char_traits@_W@std@@V?$allocator@_W@2@@std@@V_variant_t@@@std@@@2@$0A@@std@@@std@@@std@@QAEAAV01@XZ 00416800 f i CheckDoc.obj
 0001:00015820       ??E?$_Tree_unchecked_const_iterator@V?$_Tree_val@V?$_Tmap_traits@V?$basic_string@_WU?$char_traits@_W@std@@V?$allocator@_W@2@@std@@V12@U?$less@V?$basic_string@_WU?$char_traits@_W@std@@V?$allocator@_W@2@@std@@@2@V?$allocator@U?$pair@$$CBV?$basic_string@_WU?$char_traits@_W@std@@V?$allocator@_W@2@@std@@V12@@std@@@2@$0A@@std@@@std@@U_Iterator_base0@2@@std@@QAEAAV01@XZ 00416820 f i CheckDoc.obj
 0001:000158e0       ?_Insert@?$_Tree@V?$_Tmap_traits@$$CBV?$basic_string@_WU?$char_traits@_W@std@@V?$allocator@_W@2@@std@@V_variant_t@@U?$less@$$CBV?$basic_string@_WU?$char_traits@_W@std@@V?$allocator@_W@2@@std@@@2@V?$allocator@U?$pair@$$CBV?$basic_string@_WU?$char_traits@_W@std@@V?$allocator@_W@2@@std@@V_variant_t@@@std@@@2@$0A@@std@@@std@@IAE?AV?$_Tree_iterator@V?$_Tree_val@V?$_Tmap_traits@$$CBV?$basic_string@_WU?$char_traits@_W@std@@V?$allocator@_W@2@@std@@V_variant_t@@U?$less@$$CBV?$basic_string@_WU?$char_traits@_W@std@@V?$allocator@_W@2@@std@@@2@V?$allocator@U?$pair@$$CBV?$basic_string@_WU?$char_traits@_W@std@@V?$allocator@_W@2@@std@@V_variant_t@@@std@@@2@$0A@@std@@@std@@@2@_NPAU_Node@?$_Tree_nod@V?$_Tmap_traits@$$CBV?$basic_string@_WU?$char_traits@_W@std@@V?$allocator@_W@2@@std@@V_variant_t@@U?$less@$$CBV?$basic_string@_WU?$char_traits@_W@std@@V?$allocator@_W@2@@std@@@2@V?$allocator@U?$pair@$$CBV?$basic_string@_WU?$char_traits@_W@std@@V?$allocator@_W@2@@std@@V_variant_t@@@std@@@2@$0A@@std@@@2@1@Z 004168e0 f i CheckDoc.obj
 0001:00015d20       ?_Lrotate@?$_Tree@V?$_Tmap_traits@$$CBV?$basic_string@_WU?$char_traits@_W@std@@V?$allocator@_W@2@@std@@V_variant_t@@U?$less@$$CBV?$basic_string@_WU?$char_traits@_W@std@@V?$allocator@_W@2@@std@@@2@V?$allocator@U?$pair@$$CBV?$basic_string@_WU?$char_traits@_W@std@@V?$allocator@_W@2@@std@@V_variant_t@@@std@@@2@$0A@@std@@@std@@IAEXPAU_Node@?$_Tree_nod@V?$_Tmap_traits@$$CBV?$basic_string@_WU?$char_traits@_W@std@@V?$allocator@_W@2@@std@@V_variant_t@@U?$less@$$CBV?$basic_string@_WU?$char_traits@_W@std@@V?$allocator@_W@2@@std@@@2@V?$allocator@U?$pair@$$CBV?$basic_string@_WU?$char_traits@_W@std@@V?$allocator@_W@2@@std@@V_variant_t@@@std@@@2@$0A@@std@@@2@@Z 00416d20 f i CheckDoc.obj
 0001:00015e50       ?_Rrotate@?$_Tree@V?$_Tmap_traits@$$CBV?$basic_string@_WU?$char_traits@_W@std@@V?$allocator@_W@2@@std@@V_variant_t@@U?$less@$$CBV?$basic_string@_WU?$char_traits@_W@std@@V?$allocator@_W@2@@std@@@2@V?$allocator@U?$pair@$$CBV?$basic_string@_WU?$char_traits@_W@std@@V?$allocator@_W@2@@std@@V_variant_t@@@std@@@2@$0A@@std@@@std@@IAEXPAU_Node@?$_Tree_nod@V?$_Tmap_traits@$$CBV?$basic_string@_WU?$char_traits@_W@std@@V?$allocator@_W@2@@std@@V_variant_t@@U?$less@$$CBV?$basic_string@_WU?$char_traits@_W@std@@V?$allocator@_W@2@@std@@@2@V?$allocator@U?$pair@$$CBV?$basic_string@_WU?$char_traits@_W@std@@V?$allocator@_W@2@@std@@V_variant_t@@@std@@@2@$0A@@std@@@2@@Z 00416e50 f i CheckDoc.obj
 0001:00015f80       ?_Buynode@?$_Tree_val@V?$_Tmap_traits@$$CBV?$basic_string@_WU?$char_traits@_W@std@@V?$allocator@_W@2@@std@@V_variant_t@@U?$less@$$CBV?$basic_string@_WU?$char_traits@_W@std@@V?$allocator@_W@2@@std@@@2@V?$allocator@U?$pair@$$CBV?$basic_string@_WU?$char_traits@_W@std@@V?$allocator@_W@2@@std@@V_variant_t@@@std@@@2@$0A@@std@@@std@@QAEPAU_Node@?$_Tree_nod@V?$_Tmap_traits@$$CBV?$basic_string@_WU?$char_traits@_W@std@@V?$allocator@_W@2@@std@@V_variant_t@@U?$less@$$CBV?$basic_string@_WU?$char_traits@_W@std@@V?$allocator@_W@2@@std@@@2@V?$allocator@U?$pair@$$CBV?$basic_string@_WU?$char_traits@_W@std@@V?$allocator@_W@2@@std@@V_variant_t@@@std@@@2@$0A@@std@@@2@ABU?$pair@$$CBV?$basic_string@_WU?$char_traits@_W@std@@V?$allocator@_W@2@@std@@V_variant_t@@@2@@Z 00416f80 f i CheckDoc.obj
 0001:00016040       ?get_allocator@?$_Tree@V?$_Tmap_traits@V?$basic_string@_WU?$char_traits@_W@std@@V?$allocator@_W@2@@std@@V12@U?$less@V?$basic_string@_WU?$char_traits@_W@std@@V?$allocator@_W@2@@std@@@2@V?$allocator@U?$pair@$$CBV?$basic_string@_WU?$char_traits@_W@std@@V?$allocator@_W@2@@std@@V12@@std@@@2@$0A@@std@@@std@@QBE?AV?$allocator@U?$pair@$$CBV?$basic_string@_WU?$char_traits@_W@std@@V?$allocator@_W@2@@std@@V12@@std@@@2@XZ 00417040 f i CheckDoc.obj
 0001:00016060       ??F?$_Tree_const_iterator@V?$_Tree_val@V?$_Tmap_traits@$$CBV?$basic_string@_WU?$char_traits@_W@std@@V?$allocator@_W@2@@std@@V_variant_t@@U?$less@$$CBV?$basic_string@_WU?$char_traits@_W@std@@V?$allocator@_W@2@@std@@@2@V?$allocator@U?$pair@$$CBV?$basic_string@_WU?$char_traits@_W@std@@V?$allocator@_W@2@@std@@V_variant_t@@@std@@@2@$0A@@std@@@std@@@std@@QAEAAV01@XZ 00417060 f i CheckDoc.obj
 0001:00016080       ?max_size@?$_Tree@V?$_Tmap_traits@$$CBV?$basic_string@_WU?$char_traits@_W@std@@V?$allocator@_W@2@@std@@V_variant_t@@U?$less@$$CBV?$basic_string@_WU?$char_traits@_W@std@@V?$allocator@_W@2@@std@@@2@V?$allocator@U?$pair@$$CBV?$basic_string@_WU?$char_traits@_W@std@@V?$allocator@_W@2@@std@@V_variant_t@@@std@@@2@$0A@@std@@@std@@QBEIXZ 00417080 f i CheckDoc.obj
 0001:000160a0       ?_Buynode@?$_Tree_val@V?$_Tmap_traits@$$CBV?$basic_string@_WU?$char_traits@_W@std@@V?$allocator@_W@2@@std@@V_variant_t@@U?$less@$$CBV?$basic_string@_WU?$char_traits@_W@std@@V?$allocator@_W@2@@std@@@2@V?$allocator@U?$pair@$$CBV?$basic_string@_WU?$char_traits@_W@std@@V?$allocator@_W@2@@std@@V_variant_t@@@std@@@2@$0A@@std@@@std@@QAEPAU_Node@?$_Tree_nod@V?$_Tmap_traits@$$CBV?$basic_string@_WU?$char_traits@_W@std@@V?$allocator@_W@2@@std@@V_variant_t@@U?$less@$$CBV?$basic_string@_WU?$char_traits@_W@std@@V?$allocator@_W@2@@std@@@2@V?$allocator@U?$pair@$$CBV?$basic_string@_WU?$char_traits@_W@std@@V?$allocator@_W@2@@std@@V_variant_t@@@std@@@2@$0A@@std@@@2@XZ 004170a0 f i CheckDoc.obj
 0001:00016120       ??F?$_Tree_unchecked_const_iterator@V?$_Tree_val@V?$_Tmap_traits@$$CBV?$basic_string@_WU?$char_traits@_W@std@@V?$allocator@_W@2@@std@@V_variant_t@@U?$less@$$CBV?$basic_string@_WU?$char_traits@_W@std@@V?$allocator@_W@2@@std@@@2@V?$allocator@U?$pair@$$CBV?$basic_string@_WU?$char_traits@_W@std@@V?$allocator@_W@2@@std@@V_variant_t@@@std@@@2@$0A@@std@@@std@@U_Iterator_base0@2@@std@@QAEAAV01@XZ 00417120 f i CheckDoc.obj
 0001:00016210       ?_Max@?$_Tree_val@V?$_Tmap_traits@$$CBV?$basic_string@_WU?$char_traits@_W@std@@V?$allocator@_W@2@@std@@V_variant_t@@U?$less@$$CBV?$basic_string@_WU?$char_traits@_W@std@@V?$allocator@_W@2@@std@@@2@V?$allocator@U?$pair@$$CBV?$basic_string@_WU?$char_traits@_W@std@@V?$allocator@_W@2@@std@@V_variant_t@@@std@@@2@$0A@@std@@@std@@SAPAU_Node@?$_Tree_nod@V?$_Tmap_traits@$$CBV?$basic_string@_WU?$char_traits@_W@std@@V?$allocator@_W@2@@std@@V_variant_t@@U?$less@$$CBV?$basic_string@_WU?$char_traits@_W@std@@V?$allocator@_W@2@@std@@@2@V?$allocator@U?$pair@$$CBV?$basic_string@_WU?$char_traits@_W@std@@V?$allocator@_W@2@@std@@V_variant_t@@@std@@@2@$0A@@std@@@2@PAU342@@Z 00417210 f i CheckDoc.obj
 0001:00016250       ?max_size@?$allocator@U?$pair@$$CBV?$basic_string@_WU?$char_traits@_W@std@@V?$allocator@_W@2@@std@@V_variant_t@@@std@@@std@@QBEIXZ 00417250 f i CheckDoc.obj
 0001:00016280       ??$?0U_Recordset@@VRecordsetDeleter@DbContext@@@?$shared_ptr@U_Recordset@@@boost@@QAE@PAU_Recordset@@VRecordsetDeleter@DbContext@@@Z 00417280 f i CheckDoc.obj
 0001:00016320       ??1RecordsetDeleter@DbContext@@QAE@XZ 00417320 f i CheckDoc.obj
 0001:00016340       ??1?$shared_ptr@U_Connection@@@boost@@QAE@XZ 00417340 f i CheckDoc.obj
 0001:00016340       ??1?$shared_ptr@U_Recordset@@@boost@@QAE@XZ 00417340 f i CheckDoc.obj
 0001:00016340       ??1?$shared_ptr@V?$HierarchyReference@UProducts@@@@@boost@@QAE@XZ 00417340 f i CheckDoc.obj
 0001:00016340       ??1?$shared_ptr@V?$SlaveReference@UUnits@@UProducts@@@@@boost@@QAE@XZ 00417340 f i CheckDoc.obj
 0001:00016340       ??1?$shared_ptr@V?$RestRegistry@UProductsRestRegs@@VSQLStrategy@@@@@boost@@QAE@XZ 00417340 f i DlgFindAll.obj
 0001:00016340       ??1?$shared_ptr@VDbContext@@@boost@@QAE@XZ 00417340 f i CheckDoc.obj
 0001:00016340       ??1?$shared_ptr@V?$Reference@UContragents@@V?$SQLSearchStrategy@UContragents@@V?$RefCreator@UContragents@@$00@@@@@@@boost@@QAE@XZ 00417340 f i MainDocument.obj
 0001:00016340       ??1?$shared_ptr@V?$Reference@UPoints@@V?$SQLSearchStrategy@UPoints@@V?$RefCreator@UPoints@@$00@@@@@@@boost@@QAE@XZ 00417340 f i DlgLogin.obj
 0001:00016340       ??1?$shared_ptr@V?$Reference@UEmployees@@V?$SQLSearchStrategy@UEmployees@@V?$RefCreator@UEmployees@@$00@@@@@@@boost@@QAE@XZ 00417340 f i DlgLogin.obj
 0001:00016340       ??1?$shared_ptr@V?$Reference@UTypePrice@@V?$SQLSearchStrategy@UTypePrice@@V?$RefCreator@UTypePrice@@$00@@@@@@@boost@@QAE@XZ 00417340 f i CheckDoc.obj
 0001:00016340       ??1?$shared_ptr@VRefItemV@@@boost@@QAE@XZ 00417340 f i CheckDoc.obj
 0001:00016340       ??1?$shared_ptr@V?$SlaveReference@UPrices@@UProducts@@@@@boost@@QAE@XZ 00417340 f i CheckDoc.obj
 0001:00016360       ??$?6_WU?$char_traits@_W@std@@@std@@YAAAV?$basic_ostream@_WU?$char_traits@_W@std@@@0@AAV10@PBD@Z 00417360 f i CheckDoc.obj
 0001:000167b0       ??$?0V?$HierarchyReference@UProducts@@@@@?$shared_ptr@V?$HierarchyReference@UProducts@@@@@boost@@QAE@PAV?$HierarchyReference@UProducts@@@@@Z 004177b0 f i CheckDoc.obj
 0001:00016830       ??$?0V?$SlaveReference@UUnits@@UProducts@@@@@?$shared_ptr@V?$SlaveReference@UUnits@@UProducts@@@@@boost@@QAE@PAV?$SlaveReference@UUnits@@UProducts@@@@@Z 00417830 f i CheckDoc.obj
 0001:000168b0       ??$?0V?$SlaveReference@UPrices@@UProducts@@@@@?$shared_ptr@V?$SlaveReference@UPrices@@UProducts@@@@@boost@@QAE@PAV?$SlaveReference@UPrices@@UProducts@@@@@Z 004178b0 f i CheckDoc.obj
 0001:00016930       ??$?6_WU?$char_traits@_W@std@@@std@@YAAAV?$basic_ostream@_WU?$char_traits@_W@std@@@0@AAV10@PB_W@Z 00417930 f i CheckDoc.obj
 0001:00016c90       ??$find_if@V?$_List_iterator@V?$_List_val@USalesItemLine@CCheckDoc@@V?$allocator@USalesItemLine@CCheckDoc@@@std@@@std@@@std@@V<lambda1>@?A0x13b243aa@@@std@@YA?AV?$_List_iterator@V?$_List_val@USalesItemLine@CCheckDoc@@V?$allocator@USalesItemLine@CCheckDoc@@@std@@@std@@@0@V10@0V<lambda1>@?A0x13b243aa@@@Z 00417c90 f i CheckDoc.obj
 0001:00016cf0       ??$GetDocument@VRepository@@@CUserThreadsApp@@SAPAVRepository@@XZ 00417cf0 f i CheckDoc.obj
 0001:00016d80       ??$?H_WU?$char_traits@_W@std@@V?$allocator@_W@1@@std@@YA?AV?$basic_string@_WU?$char_traits@_W@std@@V?$allocator@_W@2@@0@ABV10@0@Z 00417d80 f i CheckDoc.obj
 0001:00016e40       ??$trim@V?$basic_string@_WU?$char_traits@_W@std@@V?$allocator@_W@2@@std@@@algorithm@boost@@YAXAAV?$basic_string@_WU?$char_traits@_W@std@@V?$allocator@_W@2@@std@@ABVlocale@3@@Z 00417e40 f i CheckDoc.obj
 0001:00016e70       ?is_space@algorithm@boost@@YA?AUis_classifiedF@detail@12@ABVlocale@std@@@Z 00417e70 f i CheckDoc.obj
 0001:00016ea0       ??0is_classifiedF@detail@algorithm@boost@@QAE@FABVlocale@std@@@Z 00417ea0 f i CheckDoc.obj
 0001:00016ed0       ??$GetDocument@VCCashDoc@@@CUserThreadsApp@@SAPAVCCashDoc@@XZ 00417ed0 f i CheckDoc.obj
 0001:00016f60       ??$?6_WU?$char_traits@_W@std@@V?$allocator@_W@1@@std@@YAAAV?$basic_ostream@_WU?$char_traits@_W@std@@@0@AAV10@ABV?$basic_string@_WU?$char_traits@_W@std@@V?$allocator@_W@2@@0@@Z 00417f60 f i CheckDoc.obj
 0001:00017280       ??$remove_if@V<lambda2>@?A0x13b243aa@@@?$list@USalesItemLine@CCheckDoc@@V?$allocator@USalesItemLine@CCheckDoc@@@std@@@std@@QAEXV<lambda2>@?A0x13b243aa@@@Z 00418280 f i CheckDoc.obj
 0001:00017350       ??$find_if@V?$_Vector_const_iterator@V?$_Vector_val@V?$tuple@V?$basic_string@_WU?$char_traits@_W@std@@V?$allocator@_W@2@@std@@V12@_NV12@V?$shared_ptr@VRefItemV@@@boost@@Unull_type@tuples@4@U564@U564@U564@U564@@tuples@boost@@V?$allocator@V?$tuple@V?$basic_string@_WU?$char_traits@_W@std@@V?$allocator@_W@2@@std@@V12@_NV12@V?$shared_ptr@VRefItemV@@@boost@@Unull_type@tuples@4@U564@U564@U564@U564@@tuples@boost@@@std@@@std@@@std@@V<lambda3>@?A0x13b243aa@@@std@@YA?AV?$_Vector_const_iterator@V?$_Vector_val@V?$tuple@V?$basic_string@_WU?$char_traits@_W@std@@V?$allocator@_W@2@@std@@V12@_NV12@V?$shared_ptr@VRefItemV@@@boost@@Unull_type@tuples@4@U564@U564@U564@U564@@tuples@boost@@V?$allocator@V?$tuple@V?$basic_string@_WU?$char_traits@_W@std@@V?$allocator@_W@2@@std@@V12@_NV12@V?$shared_ptr@VRefItemV@@@boost@@Unull_type@tuples@4@U564@U564@U564@U564@@tuples@boost@@@std@@@std@@@0@V10@0V<lambda3>@?A0x13b243aa@@@Z 00418350 f i CheckDoc.obj
 0001:00017400       ??$get@$03@?$cons@V?$basic_string@_WU?$char_traits@_W@std@@V?$allocator@_W@2@@std@@U?$cons@V?$basic_string@_WU?$char_traits@_W@std@@V?$allocator@_W@2@@std@@U?$cons@_NU?$cons@V?$basic_string@_WU?$char_traits@_W@std@@V?$allocator@_W@2@@std@@U?$cons@V?$shared_ptr@VRefItemV@@@boost@@Unull_type@tuples@2@@tuples@boost@@@tuples@boost@@@tuples@boost@@@tuples@boost@@@tuples@boost@@QAEAAV?$shared_ptr@VRefItemV@@@2@XZ 00418400 f i CheckDoc.obj
 0001:00017400       ??$get@$03@?$cons@V?$basic_string@_WU?$char_traits@_W@std@@V?$allocator@_W@2@@std@@U?$cons@V?$basic_string@_WU?$char_traits@_W@std@@V?$allocator@_W@2@@std@@U?$cons@_NU?$cons@V?$basic_string@_WU?$char_traits@_W@std@@V?$allocator@_W@2@@std@@U?$cons@V?$shared_ptr@VRefItemV@@@boost@@Unull_type@tuples@2@@tuples@boost@@@tuples@boost@@@tuples@boost@@@tuples@boost@@@tuples@boost@@QBEABV?$shared_ptr@VRefItemV@@@2@XZ 00418400 f i DlgFindAll.obj
 0001:00017420       ??$find_if@V?$_Vector_const_iterator@V?$_Vector_val@V?$tuple@V?$basic_string@_WU?$char_traits@_W@std@@V?$allocator@_W@2@@std@@V12@V12@V?$shared_ptr@VRefItemV@@@boost@@Unull_type@tuples@4@U564@U564@U564@U564@U564@@tuples@boost@@V?$allocator@V?$tuple@V?$basic_string@_WU?$char_traits@_W@std@@V?$allocator@_W@2@@std@@V12@V12@V?$shared_ptr@VRefItemV@@@boost@@Unull_type@tuples@4@U564@U564@U564@U564@U564@@tuples@boost@@@std@@@std@@@std@@V<lambda4>@?A0x13b243aa@@@std@@YA?AV?$_Vector_const_iterator@V?$_Vector_val@V?$tuple@V?$basic_string@_WU?$char_traits@_W@std@@V?$allocator@_W@2@@std@@V12@V12@V?$shared_ptr@VRefItemV@@@boost@@Unull_type@tuples@4@U564@U564@U564@U564@U564@@tuples@boost@@V?$allocator@V?$tuple@V?$basic_string@_WU?$char_traits@_W@std@@V?$allocator@_W@2@@std@@V12@V12@V?$shared_ptr@VRefItemV@@@boost@@Unull_type@tuples@4@U564@U564@U564@U564@U564@@tuples@boost@@@std@@@std@@@0@V10@0V<lambda4>@?A0x13b243aa@@@Z 00418420 f i CheckDoc.obj
 0001:00017420       ??$find_if@V?$_Vector_const_iterator@V?$_Vector_val@V?$tuple@V?$basic_string@_WU?$char_traits@_W@std@@V?$allocator@_W@2@@std@@V12@V12@V?$shared_ptr@VRefItemV@@@boost@@Unull_type@tuples@4@U564@U564@U564@U564@U564@@tuples@boost@@V?$allocator@V?$tuple@V?$basic_string@_WU?$char_traits@_W@std@@V?$allocator@_W@2@@std@@V12@V12@V?$shared_ptr@VRefItemV@@@boost@@Unull_type@tuples@4@U564@U564@U564@U564@U564@@tuples@boost@@@std@@@std@@@std@@V<lambda5>@?A0x13b243aa@@@std@@YA?AV?$_Vector_const_iterator@V?$_Vector_val@V?$tuple@V?$basic_string@_WU?$char_traits@_W@std@@V?$allocator@_W@2@@std@@V12@V12@V?$shared_ptr@VRefItemV@@@boost@@Unull_type@tuples@4@U564@U564@U564@U564@U564@@tuples@boost@@V?$allocator@V?$tuple@V?$basic_string@_WU?$char_traits@_W@std@@V?$allocator@_W@2@@std@@V12@V12@V?$shared_ptr@VRefItemV@@@boost@@Unull_type@tuples@4@U564@U564@U564@U564@U564@@tuples@boost@@@std@@@std@@@0@V10@0V<lambda5>@?A0x13b243aa@@@Z 00418420 f i CheckDoc.obj
 0001:000174d0       ??$_Dest_val@V?$allocator@U_Node@?$_List_nod@USalesItemLine@CCheckDoc@@V?$allocator@USalesItemLine@CCheckDoc@@@std@@@std@@@std@@U_Node@?$_List_nod@USalesItemLine@CCheckDoc@@V?$allocator@USalesItemLine@CCheckDoc@@@std@@@2@@std@@YAXAAV?$allocator@U_Node@?$_List_nod@USalesItemLine@CCheckDoc@@V?$allocator@USalesItemLine@CCheckDoc@@@std@@@std@@@0@PAU_Node@?$_List_nod@USalesItemLine@CCheckDoc@@V?$allocator@USalesItemLine@CCheckDoc@@@std@@@0@@Z 004184d0 f i CheckDoc.obj
 0001:000174f0       ??$make_shared@VRefItemV@@@boost@@YA?AV?$shared_ptr@VRefItemV@@@0@XZ 004184f0 f i CheckDoc.obj
 0001:000175e0       ??2@YAPAXIPAX@Z            004185e0 f i CheckDoc.obj
 0001:000175f0       ?operator_fn@?$sp_ms_deleter@VRefItemV@@@detail@boost@@SAXPAVRefItemV@@@Z 004185f0 f i CheckDoc.obj
 0001:000175f0       ?operator_fn@?$sp_ms_deleter@V?$RestRegistry@UProductsRestRegs@@VSQLStrategy@@@@@detail@boost@@SAXPAV?$RestRegistry@UProductsRestRegs@@VSQLStrategy@@@@@Z 004185f0 f i Repository.obj
 0001:000175f0       ??$_Destroy_range@V?$allocator@D@std@@@std@@YAXPAD0AAV?$allocator@D@0@U_Scalar_ptr_iterator_tag@0@@Z 004185f0 f i CheckDoc.obj
 0001:000175f0       ??$_Destroy@U?$pair@QAVCWnd@@I@std@@@std@@YAXPAU?$pair@QAVCWnd@@I@0@@Z 004185f0 f i MultiSplitterView.obj
 0001:000175f0       ?operator_fn@?$sp_ms_deleter@V?$Reference@UPoints@@V?$SQLSearchStrategy@UPoints@@V?$RefCreator@UPoints@@$00@@@@@@@detail@boost@@SAXPAV?$Reference@UPoints@@V?$SQLSearchStrategy@UPoints@@V?$RefCreator@UPoints@@$00@@@@@@@Z 004185f0 f i Repository.obj
 0001:000175f0       ?_Enable_shared@tr1@std@@YAXPDX0@Z 004185f0 f i MainDocument.obj
 0001:000175f0       ??3@YAXPAX0@Z              004185f0 f i CheckDoc.obj
 0001:000175f0       ?operator_fn@?$sp_ms_deleter@V?$Reference@UEmployees@@V?$SQLSearchStrategy@UEmployees@@V?$RefCreator@UEmployees@@$00@@@@@@@detail@boost@@SAXPAV?$Reference@UEmployees@@V?$SQLSearchStrategy@UEmployees@@V?$RefCreator@UEmployees@@$00@@@@@@@Z 004185f0 f i Repository.obj
 0001:000175f0       ??$_Destroy@D@std@@YAXPAD@Z 004185f0 f i DlgSetQuantity.obj
 0001:000175f0       ?operator_fn@?$sp_ms_deleter@V?$Reference@UTypePrice@@V?$SQLSearchStrategy@UTypePrice@@V?$RefCreator@UTypePrice@@$00@@@@@@@detail@boost@@SAXPAV?$Reference@UTypePrice@@V?$SQLSearchStrategy@UTypePrice@@V?$RefCreator@UTypePrice@@$00@@@@@@@Z 004185f0 f i Repository.obj
 0001:000175f0       ?sp_enable_shared_from_this@detail@boost@@YAXZZ 004185f0 f i CheckDoc.obj
 0001:000175f0       ?operator_fn@?$sp_ms_deleter@V?$Reference@UContragents@@V?$SQLSearchStrategy@UContragents@@V?$RefCreator@UContragents@@$00@@@@@@@detail@boost@@SAXPAV?$Reference@UContragents@@V?$SQLSearchStrategy@UContragents@@V?$RefCreator@UContragents@@$00@@@@@@@Z 004185f0 f i Repository.obj
 0001:00017600       ??0RefItemV@@QAE@XZ        00418600 f i CheckDoc.obj
 0001:00017620       ??0?$RefItemT@UVariantType@@V?$RefItemTraits@UVariantType@@@@@@QAE@XZ 00418620 f i CheckDoc.obj
 0001:00017690       ??$_Copy_impl@PAV?$shared_ptr@VRefItemV@@@boost@@PAV12@@std@@YAPAV?$shared_ptr@VRefItemV@@@boost@@PAV12@00@Z 00418690 f i CheckDoc.obj
 0001:000176d0       ??$_Ucopy@PAV?$shared_ptr@VRefItemV@@@boost@@@?$vector@V?$shared_ptr@VRefItemV@@@boost@@V?$allocator@V?$shared_ptr@VRefItemV@@@boost@@@std@@@std@@IAEPAV?$shared_ptr@VRefItemV@@@boost@@PAV23@00@Z 004186d0 f i CheckDoc.obj
 0001:00017700       ??$_Copy_impl@PAV?$tuple@V?$basic_string@_WU?$char_traits@_W@std@@V?$allocator@_W@2@@std@@V12@V12@V?$shared_ptr@VRefItemV@@@boost@@Unull_type@tuples@4@U564@U564@U564@U564@U564@@tuples@boost@@PAV123@@std@@YAPAV?$tuple@V?$basic_string@_WU?$char_traits@_W@std@@V?$allocator@_W@2@@std@@V12@V12@V?$shared_ptr@VRefItemV@@@boost@@Unull_type@tuples@4@U564@U564@U564@U564@U564@@tuples@boost@@PAV123@00@Z 00418700 f i CheckDoc.obj
 0001:00017740       ??$_Ucopy@PAV?$tuple@V?$basic_string@_WU?$char_traits@_W@std@@V?$allocator@_W@2@@std@@V12@V12@V?$shared_ptr@VRefItemV@@@boost@@Unull_type@tuples@4@U564@U564@U564@U564@U564@@tuples@boost@@@?$vector@V?$tuple@V?$basic_string@_WU?$char_traits@_W@std@@V?$allocator@_W@2@@std@@V12@V12@V?$shared_ptr@VRefItemV@@@boost@@Unull_type@tuples@4@U564@U564@U564@U564@U564@@tuples@boost@@V?$allocator@V?$tuple@V?$basic_string@_WU?$char_traits@_W@std@@V?$allocator@_W@2@@std@@V12@V12@V?$shared_ptr@VRefItemV@@@boost@@Unull_type@tuples@4@U564@U564@U564@U564@U564@@tuples@boost@@@std@@@std@@IAEPAV?$tuple@V?$basic_string@_WU?$char_traits@_W@std@@V?$allocator@_W@2@@std@@V12@V12@V?$shared_ptr@VRefItemV@@@boost@@Unull_type@tuples@4@U564@U564@U564@U564@U564@@tuples@boost@@PAV234@00@Z 00418740 f i CheckDoc.obj
 0001:00017770       ??$_Copy_impl@PAV?$tuple@V?$basic_string@_WU?$char_traits@_W@std@@V?$allocator@_W@2@@std@@V12@_NV12@V?$shared_ptr@VRefItemV@@@boost@@Unull_type@tuples@4@U564@U564@U564@U564@@tuples@boost@@PAV123@@std@@YAPAV?$tuple@V?$basic_string@_WU?$char_traits@_W@std@@V?$allocator@_W@2@@std@@V12@_NV12@V?$shared_ptr@VRefItemV@@@boost@@Unull_type@tuples@4@U564@U564@U564@U564@@tuples@boost@@PAV123@00@Z 00418770 f i CheckDoc.obj
 0001:000177b0       ??$_Ucopy@PAV?$tuple@V?$basic_string@_WU?$char_traits@_W@std@@V?$allocator@_W@2@@std@@V12@_NV12@V?$shared_ptr@VRefItemV@@@boost@@Unull_type@tuples@4@U564@U564@U564@U564@@tuples@boost@@@?$vector@V?$tuple@V?$basic_string@_WU?$char_traits@_W@std@@V?$allocator@_W@2@@std@@V12@_NV12@V?$shared_ptr@VRefItemV@@@boost@@Unull_type@tuples@4@U564@U564@U564@U564@@tuples@boost@@V?$allocator@V?$tuple@V?$basic_string@_WU?$char_traits@_W@std@@V?$allocator@_W@2@@std@@V12@_NV12@V?$shared_ptr@VRefItemV@@@boost@@Unull_type@tuples@4@U564@U564@U564@U564@@tuples@boost@@@std@@@std@@IAEPAV?$tuple@V?$basic_string@_WU?$char_traits@_W@std@@V?$allocator@_W@2@@std@@V12@_NV12@V?$shared_ptr@VRefItemV@@@boost@@Unull_type@tuples@4@U564@U564@U564@U564@@tuples@boost@@PAV234@00@Z 004187b0 f i CheckDoc.obj
 0001:000177e0       ??$?M_WU?$char_traits@_W@std@@V?$allocator@_W@1@@std@@YA_NABV?$basic_string@_WU?$char_traits@_W@std@@V?$allocator@_W@2@@0@0@Z 004187e0 f i CheckDoc.obj
 0001:00017800       ??$_Cons_val@V?$allocator@V?$shared_ptr@VRefItemV@@@boost@@@std@@V?$shared_ptr@VRefItemV@@@boost@@AAV34@@std@@YAXAAV?$allocator@V?$shared_ptr@VRefItemV@@@boost@@@0@PAV?$shared_ptr@VRefItemV@@@boost@@AAV23@@Z 00418800 f i CheckDoc.obj
 0001:00017820       ??$_Cons_val@V?$allocator@V?$shared_ptr@VRefItemV@@@boost@@@std@@V?$shared_ptr@VRefItemV@@@boost@@ABV34@@std@@YAXAAV?$allocator@V?$shared_ptr@VRefItemV@@@boost@@@0@PAV?$shared_ptr@VRefItemV@@@boost@@ABV23@@Z 00418820 f i CheckDoc.obj
 0001:00017840       ??$_Destroy_range@V?$allocator@V?$shared_ptr@VRefItemV@@@boost@@@std@@@std@@YAXPAV?$shared_ptr@VRefItemV@@@boost@@0AAV?$allocator@V?$shared_ptr@VRefItemV@@@boost@@@0@@Z 00418840 f i CheckDoc.obj
 0001:00017880       ??$_Destroy_range@V?$allocator@V?$tuple@V?$basic_string@_WU?$char_traits@_W@std@@V?$allocator@_W@2@@std@@V12@V12@V?$shared_ptr@VRefItemV@@@boost@@Unull_type@tuples@4@U564@U564@U564@U564@U564@@tuples@boost@@@std@@@std@@YAXPAV?$tuple@V?$basic_string@_WU?$char_traits@_W@std@@V?$allocator@_W@2@@std@@V12@V12@V?$shared_ptr@VRefItemV@@@boost@@Unull_type@tuples@4@U564@U564@U564@U564@U564@@tuples@boost@@0AAV?$allocator@V?$tuple@V?$basic_string@_WU?$char_traits@_W@std@@V?$allocator@_W@2@@std@@V12@V12@V?$shared_ptr@VRefItemV@@@boost@@Unull_type@tuples@4@U564@U564@U564@U564@U564@@tuples@boost@@@0@@Z 00418880 f i CheckDoc.obj
 0001:000178c0       ??$_Destroy_range@V?$allocator@V?$tuple@V?$basic_string@_WU?$char_traits@_W@std@@V?$allocator@_W@2@@std@@V12@_NV12@V?$shared_ptr@VRefItemV@@@boost@@Unull_type@tuples@4@U564@U564@U564@U564@@tuples@boost@@@std@@@std@@YAXPAV?$tuple@V?$basic_string@_WU?$char_traits@_W@std@@V?$allocator@_W@2@@std@@V12@_NV12@V?$shared_ptr@VRefItemV@@@boost@@Unull_type@tuples@4@U564@U564@U564@U564@@tuples@boost@@0AAV?$allocator@V?$tuple@V?$basic_string@_WU?$char_traits@_W@std@@V?$allocator@_W@2@@std@@V12@_NV12@V?$shared_ptr@VRefItemV@@@boost@@Unull_type@tuples@4@U564@U564@U564@U564@@tuples@boost@@@0@@Z 004188c0 f i CheckDoc.obj
 0001:00017900       ??$_Cons_val@V?$allocator@USalesItemLine@CCheckDoc@@@std@@USalesItemLine@CCheckDoc@@ABU34@@std@@YAXAAV?$allocator@USalesItemLine@CCheckDoc@@@0@PAUSalesItemLine@CCheckDoc@@ABU23@@Z 00418900 f i CheckDoc.obj
 0001:00017920       ??$_Allocate@U_Node@?$_List_nod@USalesItemLine@CCheckDoc@@V?$allocator@USalesItemLine@CCheckDoc@@@std@@@std@@@std@@YAPAU_Node@?$_List_nod@USalesItemLine@CCheckDoc@@V?$allocator@USalesItemLine@CCheckDoc@@@std@@@0@IPAU120@@Z 00418920 f i CheckDoc.obj
 0001:00017980       ??$_Destroy_range@V?$allocator@D@std@@@std@@YAXPAD0AAV?$allocator@D@0@@Z 00418980 f i CheckDoc.obj
 0001:000179c0       ??$?0VRefItemV@@@?$shared_ptr@VRefItemV@@@boost@@QAE@PAVRefItemV@@@Z 004189c0 f i CheckDoc.obj
 0001:00017a40       ??$make_pair@V?$basic_string@_WU?$char_traits@_W@std@@V?$allocator@_W@2@@std@@AAV_variant_t@@@std@@YA?AU?$pair@V?$basic_string@_WU?$char_traits@_W@std@@V?$allocator@_W@2@@std@@V_variant_t@@@0@ABV?$basic_string@_WU?$char_traits@_W@std@@V?$allocator@_W@2@@0@AAV_variant_t@@@Z 00418a40 f i CheckDoc.obj
 0001:00017ae0       ??$?0V?$basic_string@_WU?$char_traits@_W@std@@V?$allocator@_W@2@@std@@V_variant_t@@@?$pair@$$CBV?$basic_string@_WU?$char_traits@_W@std@@V?$allocator@_W@2@@std@@V_variant_t@@@std@@QAE@$$QAU?$pair@V?$basic_string@_WU?$char_traits@_W@std@@V?$allocator@_W@2@@std@@V_variant_t@@@1@@Z 00418ae0 f i CheckDoc.obj
 0001:00017b20       ??$_Dest_val@V?$allocator@U?$pair@$$CBV?$basic_string@_WU?$char_traits@_W@std@@V?$allocator@_W@2@@std@@V_variant_t@@@std@@@std@@U?$pair@$$CBV?$basic_string@_WU?$char_traits@_W@std@@V?$allocator@_W@2@@std@@V_variant_t@@@2@@std@@YAXAAV?$allocator@U?$pair@$$CBV?$basic_string@_WU?$char_traits@_W@std@@V?$allocator@_W@2@@std@@V_variant_t@@@std@@@0@PAU?$pair@$$CBV?$basic_string@_WU?$char_traits@_W@std@@V?$allocator@_W@2@@std@@V_variant_t@@@0@@Z 00418b20 f i CheckDoc.obj
 0001:00017b40       ??$insert@U?$pair@$$CBV?$basic_string@_WU?$char_traits@_W@std@@V?$allocator@_W@2@@std@@V12@@std@@@?$_Tree@V?$_Tmap_traits@V?$basic_string@_WU?$char_traits@_W@std@@V?$allocator@_W@2@@std@@V12@U?$less@V?$basic_string@_WU?$char_traits@_W@std@@V?$allocator@_W@2@@std@@@2@V?$allocator@U?$pair@$$CBV?$basic_string@_WU?$char_traits@_W@std@@V?$allocator@_W@2@@std@@V12@@std@@@2@$0A@@std@@@std@@QAE?AV?$_Tree_iterator@V?$_Tree_val@V?$_Tmap_traits@V?$basic_string@_WU?$char_traits@_W@std@@V?$allocator@_W@2@@std@@V12@U?$less@V?$basic_string@_WU?$char_traits@_W@std@@V?$allocator@_W@2@@std@@@2@V?$allocator@U?$pair@$$CBV?$basic_string@_WU?$char_traits@_W@std@@V?$allocator@_W@2@@std@@V12@@std@@@2@$0A@@std@@@std@@@1@V?$_Tree_const_iterator@V?$_Tree_val@V?$_Tmap_traits@V?$basic_string@_WU?$char_traits@_W@std@@V?$allocator@_W@2@@std@@V12@U?$less@V?$basic_string@_WU?$char_traits@_W@std@@V?$allocator@_W@2@@std@@@2@V?$allocator@U?$pair@$$CBV?$basic_string@_WU?$char_traits@_W@std@@V?$allocator@_W@2@@std@@V12@@std@@@2@$0A@@std@@@std@@@1@$$QAU?$pair@$$CBV?$basic_string@_WU?$char_traits@_W@std@@V?$allocator@_W@2@@std@@V12@@1@@Z 00418b40 f i CheckDoc.obj
 0001:00017b80       ??$_Move@PAV?$shared_ptr@VRefItemV@@@boost@@PAV12@@std@@YAPAV?$shared_ptr@VRefItemV@@@boost@@PAV12@00@Z 00418b80 f i CheckDoc.obj
 0001:00017bc0       ??$_Allocate@V?$shared_ptr@VRefItemV@@@boost@@@std@@YAPAV?$shared_ptr@VRefItemV@@@boost@@IPAV12@@Z 00418bc0 f i CheckDoc.obj
 0001:00017c20       ??$_Move@PAV?$tuple@V?$basic_string@_WU?$char_traits@_W@std@@V?$allocator@_W@2@@std@@V12@V12@V?$shared_ptr@VRefItemV@@@boost@@Unull_type@tuples@4@U564@U564@U564@U564@U564@@tuples@boost@@PAV123@@std@@YAPAV?$tuple@V?$basic_string@_WU?$char_traits@_W@std@@V?$allocator@_W@2@@std@@V12@V12@V?$shared_ptr@VRefItemV@@@boost@@Unull_type@tuples@4@U564@U564@U564@U564@U564@@tuples@boost@@PAV123@00@Z 00418c20 f i CheckDoc.obj
 0001:00017c60       ??$_Allocate@V?$tuple@V?$basic_string@_WU?$char_traits@_W@std@@V?$allocator@_W@2@@std@@V12@V12@V?$shared_ptr@VRefItemV@@@boost@@Unull_type@tuples@4@U564@U564@U564@U564@U564@@tuples@boost@@@std@@YAPAV?$tuple@V?$basic_string@_WU?$char_traits@_W@std@@V?$allocator@_W@2@@std@@V12@V12@V?$shared_ptr@VRefItemV@@@boost@@Unull_type@tuples@4@U564@U564@U564@U564@U564@@tuples@boost@@IPAV123@@Z 00418c60 f i CheckDoc.obj
 0001:00017cc0       ??$_Move@PAV?$tuple@V?$basic_string@_WU?$char_traits@_W@std@@V?$allocator@_W@2@@std@@V12@_NV12@V?$shared_ptr@VRefItemV@@@boost@@Unull_type@tuples@4@U564@U564@U564@U564@@tuples@boost@@PAV123@@std@@YAPAV?$tuple@V?$basic_string@_WU?$char_traits@_W@std@@V?$allocator@_W@2@@std@@V12@_NV12@V?$shared_ptr@VRefItemV@@@boost@@Unull_type@tuples@4@U564@U564@U564@U564@@tuples@boost@@PAV123@00@Z 00418cc0 f i CheckDoc.obj
 0001:00017d00       ??$_Allocate@V?$tuple@V?$basic_string@_WU?$char_traits@_W@std@@V?$allocator@_W@2@@std@@V12@_NV12@V?$shared_ptr@VRefItemV@@@boost@@Unull_type@tuples@4@U564@U564@U564@U564@@tuples@boost@@@std@@YAPAV?$tuple@V?$basic_string@_WU?$char_traits@_W@std@@V?$allocator@_W@2@@std@@V12@_NV12@V?$shared_ptr@VRefItemV@@@boost@@Unull_type@tuples@4@U564@U564@U564@U564@@tuples@boost@@IPAV123@@Z 00418d00 f i CheckDoc.obj
 0001:00017d60       ??$?H_WU?$char_traits@_W@std@@V?$allocator@_W@1@@std@@YA?AV?$basic_string@_WU?$char_traits@_W@std@@V?$allocator@_W@2@@0@PB_WABV10@@Z 00418d60 f i CheckDoc.obj
 0001:00017e20       ??$?H_WU?$char_traits@_W@std@@V?$allocator@_W@1@@std@@YA?AV?$basic_string@_WU?$char_traits@_W@std@@V?$allocator@_W@2@@0@$$QAV10@PB_W@Z 00418e20 f i CheckDoc.obj
 0001:00017e60       ??$?H_WU?$char_traits@_W@std@@V?$allocator@_W@1@@std@@YA?AV?$basic_string@_WU?$char_traits@_W@std@@V?$allocator@_W@2@@0@$$QAV10@ABV10@@Z 00418e60 f i CheckDoc.obj
 0001:00017ea0       ??$is_any_of@V?$basic_string@_WU?$char_traits@_W@std@@V?$allocator@_W@2@@std@@@algorithm@boost@@YA?AU?$is_any_ofF@_W@detail@01@ABV?$basic_string@_WU?$char_traits@_W@std@@V?$allocator@_W@2@@std@@@Z 00418ea0 f i CheckDoc.obj
 0001:00017ee0       ??$trim_right_if@V?$basic_string@_WU?$char_traits@_W@std@@V?$allocator@_W@2@@std@@U?$is_any_ofF@_W@detail@algorithm@boost@@@algorithm@boost@@YAXAAV?$basic_string@_WU?$char_traits@_W@std@@V?$allocator@_W@2@@std@@U?$is_any_ofF@_W@detail@01@@Z 00418ee0 f i CheckDoc.obj
 0001:00017fc0       ??1?$is_any_ofF@_W@detail@algorithm@boost@@QAE@XZ 00418fc0 f i CheckDoc.obj
 0001:00018000       ?use_fixed_storage@?$is_any_ofF@_W@detail@algorithm@boost@@CA_NI@Z 00419000 f i CheckDoc.obj
 0001:00018020       ??$make_pair@V?$basic_string@_WU?$char_traits@_W@std@@V?$allocator@_W@2@@std@@V12@@std@@YA?AU?$pair@V?$basic_string@_WU?$char_traits@_W@std@@V?$allocator@_W@2@@std@@V12@@0@ABV?$basic_string@_WU?$char_traits@_W@std@@V?$allocator@_W@2@@0@0@Z 00419020 f i CheckDoc.obj
 0001:000180e0       ??$insert@U?$pair@V?$basic_string@_WU?$char_traits@_W@std@@V?$allocator@_W@2@@std@@V12@@std@@@?$_Tree@V?$_Tmap_traits@V?$basic_string@_WU?$char_traits@_W@std@@V?$allocator@_W@2@@std@@V12@U?$less@V?$basic_string@_WU?$char_traits@_W@std@@V?$allocator@_W@2@@std@@@2@V?$allocator@U?$pair@$$CBV?$basic_string@_WU?$char_traits@_W@std@@V?$allocator@_W@2@@std@@V12@@std@@@2@$0A@@std@@@std@@QAE?AU?$pair@V?$_Tree_iterator@V?$_Tree_val@V?$_Tmap_traits@V?$basic_string@_WU?$char_traits@_W@std@@V?$allocator@_W@2@@std@@V12@U?$less@V?$basic_string@_WU?$char_traits@_W@std@@V?$allocator@_W@2@@std@@@2@V?$allocator@U?$pair@$$CBV?$basic_string@_WU?$char_traits@_W@std@@V?$allocator@_W@2@@std@@V12@@std@@@2@$0A@@std@@@std@@@std@@_N@1@$$QAU?$pair@V?$basic_string@_WU?$char_traits@_W@std@@V?$allocator@_W@2@@std@@V12@@1@@Z 004190e0 f i CheckDoc.obj
 0001:00018120       ??$_Dest_val@V?$allocator@U?$pair@$$CBV?$basic_string@_WU?$char_traits@_W@std@@V?$allocator@_W@2@@std@@V12@@std@@@std@@U?$pair@$$CBV?$basic_string@_WU?$char_traits@_W@std@@V?$allocator@_W@2@@std@@V12@@2@@std@@YAXAAV?$allocator@U?$pair@$$CBV?$basic_string@_WU?$char_traits@_W@std@@V?$allocator@_W@2@@std@@V12@@std@@@0@PAU?$pair@$$CBV?$basic_string@_WU?$char_traits@_W@std@@V?$allocator@_W@2@@std@@V12@@0@@Z 00419120 f i CheckDoc.obj
 0001:00018140       ??$_Umove@PAV?$shared_ptr@VRefItemV@@@boost@@@?$vector@V?$shared_ptr@VRefItemV@@@boost@@V?$allocator@V?$shared_ptr@VRefItemV@@@boost@@@std@@@std@@IAEPAV?$shared_ptr@VRefItemV@@@boost@@PAV23@00@Z 00419140 f i CheckDoc.obj
 0001:00018170       ??$_Swap_adl@U?$less@V?$basic_string@_WU?$char_traits@_W@std@@V?$allocator@_W@2@@std@@@std@@@std@@YAXAAU?$less@V?$basic_string@_WU?$char_traits@_W@std@@V?$allocator@_W@2@@std@@@0@0@Z 00419170 f i CheckDoc.obj
 0001:00018190       ??$swap@I@std@@YAXAAI0@Z   00419190 f i CheckDoc.obj
 0001:00018190       ??$swap@PAV?$Reference@UTypePrice@@V?$SQLSearchStrategy@UTypePrice@@V?$RefCreator@UTypePrice@@$00@@@@@@@std@@YAXAAPAV?$Reference@UTypePrice@@V?$SQLSearchStrategy@UTypePrice@@V?$RefCreator@UTypePrice@@$00@@@@@@0@Z 00419190 f i Repository.obj
 0001:00018190       ??$swap@PAU_Node@?$_Tree_nod@V?$_Tmap_traits@V?$basic_string@_WU?$char_traits@_W@std@@V?$allocator@_W@2@@std@@V12@U?$less@V?$basic_string@_WU?$char_traits@_W@std@@V?$allocator@_W@2@@std@@@2@V?$allocator@U?$pair@$$CBV?$basic_string@_WU?$char_traits@_W@std@@V?$allocator@_W@2@@std@@V12@@std@@@2@$0A@@std@@@std@@@std@@YAXAAPAU_Node@?$_Tree_nod@V?$_Tmap_traits@V?$basic_string@_WU?$char_traits@_W@std@@V?$allocator@_W@2@@std@@V12@U?$less@V?$basic_string@_WU?$char_traits@_W@std@@V?$allocator@_W@2@@std@@@2@V?$allocator@U?$pair@$$CBV?$basic_string@_WU?$char_traits@_W@std@@V?$allocator@_W@2@@std@@V12@@std@@@2@$0A@@std@@@0@0@Z 00419190 f i CheckDoc.obj
 0001:00018190       ??$swap@PAV?$SlaveReference@UUnits@@UProducts@@@@@std@@YAXAAPAV?$SlaveReference@UUnits@@UProducts@@@@0@Z 00419190 f i Repository.obj
 0001:00018190       ??$swap@PAV?$RestRegistry@UProductsRestRegs@@VSQLStrategy@@@@@std@@YAXAAPAV?$RestRegistry@UProductsRestRegs@@VSQLStrategy@@@@0@Z 00419190 f i Repository.obj
 0001:00018190       ??$swap@PAV?$Reference@UContragents@@V?$SQLSearchStrategy@UContragents@@V?$RefCreator@UContragents@@$00@@@@@@@std@@YAXAAPAV?$Reference@UContragents@@V?$SQLSearchStrategy@UContragents@@V?$RefCreator@UContragents@@$00@@@@@@0@Z 00419190 f i Repository.obj
 0001:00018190       ??$swap@PAVDbContext@@@std@@YAXAAPAVDbContext@@0@Z 00419190 f i CheckDoc.obj
 0001:00018190       ??$swap@H@std@@YAXAAH0@Z   00419190 f i DlgSelectGood.obj
 0001:00018190       ??$swap@PAVCFont@@@std@@YAXAAPAVCFont@@0@Z 00419190 f i DlgEnterCash.obj
 0001:00018190       ??$swap@PAVRefItemV@@@std@@YAXAAPAVRefItemV@@0@Z 00419190 f i CheckDoc.obj
 0001:00018190       ??$swap@PAV?$SlaveReference@UPrices@@UProducts@@@@@std@@YAXAAPAV?$SlaveReference@UPrices@@UProducts@@@@0@Z 00419190 f i Repository.obj
 0001:00018190       ??$swap@PAV?$Reference@UPoints@@V?$SQLSearchStrategy@UPoints@@V?$RefCreator@UPoints@@$00@@@@@@@std@@YAXAAPAV?$Reference@UPoints@@V?$SQLSearchStrategy@UPoints@@V?$RefCreator@UPoints@@$00@@@@@@0@Z 00419190 f i Repository.obj
 0001:00018190       ??$swap@PAV?$HierarchyReference@UProducts@@@@@std@@YAXAAPAV?$HierarchyReference@UProducts@@@@0@Z 00419190 f i Repository.obj
 0001:00018190       ??$swap@PAV?$Reference@UEmployees@@V?$SQLSearchStrategy@UEmployees@@V?$RefCreator@UEmployees@@$00@@@@@@@std@@YAXAAPAV?$Reference@UEmployees@@V?$SQLSearchStrategy@UEmployees@@V?$RefCreator@UEmployees@@$00@@@@@@0@Z 00419190 f i Repository.obj
 0001:00018190       ??$swap@PAV_Ref_count_base@tr1@std@@@std@@YAXAAPAV_Ref_count_base@tr1@0@0@Z 00419190 f i DlgEnterCash.obj
 0001:000181d0       ??$_Buynode@AAU?$pair@$$CBV?$basic_string@_WU?$char_traits@_W@std@@V?$allocator@_W@2@@std@@V12@@std@@@?$_Tree_val@V?$_Tmap_traits@V?$basic_string@_WU?$char_traits@_W@std@@V?$allocator@_W@2@@std@@V12@U?$less@V?$basic_string@_WU?$char_traits@_W@std@@V?$allocator@_W@2@@std@@@2@V?$allocator@U?$pair@$$CBV?$basic_string@_WU?$char_traits@_W@std@@V?$allocator@_W@2@@std@@V12@@std@@@2@$0A@@std@@@std@@QAEPAU_Node@?$_Tree_nod@V?$_Tmap_traits@V?$basic_string@_WU?$char_traits@_W@std@@V?$allocator@_W@2@@std@@V12@U?$less@V?$basic_string@_WU?$char_traits@_W@std@@V?$allocator@_W@2@@std@@@2@V?$allocator@U?$pair@$$CBV?$basic_string@_WU?$char_traits@_W@std@@V?$allocator@_W@2@@std@@V12@@std@@@2@$0A@@std@@@1@AAU?$pair@$$CBV?$basic_string@_WU?$char_traits@_W@std@@V?$allocator@_W@2@@std@@V12@@1@@Z 004191d0 f i CheckDoc.obj
 0001:000182a0       ??$_Allocate@U_Node@?$_Tree_nod@V?$_Tmap_traits@V?$basic_string@_WU?$char_traits@_W@std@@V?$allocator@_W@2@@std@@V12@U?$less@V?$basic_string@_WU?$char_traits@_W@std@@V?$allocator@_W@2@@std@@@2@V?$allocator@U?$pair@$$CBV?$basic_string@_WU?$char_traits@_W@std@@V?$allocator@_W@2@@std@@V12@@std@@@2@$0A@@std@@@std@@@std@@YAPAU_Node@?$_Tree_nod@V?$_Tmap_traits@V?$basic_string@_WU?$char_traits@_W@std@@V?$allocator@_W@2@@std@@V12@U?$less@V?$basic_string@_WU?$char_traits@_W@std@@V?$allocator@_W@2@@std@@@2@V?$allocator@U?$pair@$$CBV?$basic_string@_WU?$char_traits@_W@std@@V?$allocator@_W@2@@std@@V12@@std@@@2@$0A@@std@@@0@IPAU120@@Z 004192a0 f i CheckDoc.obj
 0001:000182a0       ??$_Allocate@U_Node@?$_Tree_nod@V?$_Tmap_traits@$$CBV?$basic_string@_WU?$char_traits@_W@std@@V?$allocator@_W@2@@std@@V_variant_t@@U?$less@$$CBV?$basic_string@_WU?$char_traits@_W@std@@V?$allocator@_W@2@@std@@@2@V?$allocator@U?$pair@$$CBV?$basic_string@_WU?$char_traits@_W@std@@V?$allocator@_W@2@@std@@V_variant_t@@@std@@@2@$0A@@std@@@std@@@std@@YAPAU_Node@?$_Tree_nod@V?$_Tmap_traits@$$CBV?$basic_string@_WU?$char_traits@_W@std@@V?$allocator@_W@2@@std@@V_variant_t@@U?$less@$$CBV?$basic_string@_WU?$char_traits@_W@std@@V?$allocator@_W@2@@std@@@2@V?$allocator@U?$pair@$$CBV?$basic_string@_WU?$char_traits@_W@std@@V?$allocator@_W@2@@std@@V_variant_t@@@std@@@2@$0A@@std@@@0@IPAU120@@Z 004192a0 f i CheckDoc.obj
 0001:00018300       ??$_Cons_val@V?$allocator@U?$pair@$$CBV?$basic_string@_WU?$char_traits@_W@std@@V?$allocator@_W@2@@std@@V_variant_t@@@std@@@std@@U?$pair@$$CBV?$basic_string@_WU?$char_traits@_W@std@@V?$allocator@_W@2@@std@@V_variant_t@@@2@ABU32@@std@@YAXAAV?$allocator@U?$pair@$$CBV?$basic_string@_WU?$char_traits@_W@std@@V?$allocator@_W@2@@std@@V_variant_t@@@std@@@0@PAU?$pair@$$CBV?$basic_string@_WU?$char_traits@_W@std@@V?$allocator@_W@2@@std@@V_variant_t@@@0@ABU20@@Z 00419300 f i CheckDoc.obj
 0001:00018320       ??0RecordsetDeleter@DbContext@@QAE@ABV01@@Z 00419320 f i CheckDoc.obj
 0001:00018350       ??Y?$basic_string@_WU?$char_traits@_W@std@@V?$allocator@_W@2@@std@@QAEAAV01@PB_W@Z 00419350 f i CheckDoc.obj
 0001:00018370       ?append@?$basic_string@_WU?$char_traits@_W@std@@V?$allocator@_W@2@@std@@QAEAAV12@PB_W@Z 00419370 f i CheckDoc.obj
 0001:000183a0       ?erase@?$basic_string@_WU?$char_traits@_W@std@@V?$allocator@_W@2@@std@@QAE?AV?$_String_iterator@_WU?$char_traits@_W@std@@V?$allocator@_W@2@@2@V?$_String_const_iterator@_WU?$char_traits@_W@std@@V?$allocator@_W@2@@2@0@Z 004193a0 f i CheckDoc.obj
 0001:00018410       ?begin@?$basic_string@_WU?$char_traits@_W@std@@V?$allocator@_W@2@@std@@QAE?AV?$_String_iterator@_WU?$char_traits@_W@std@@V?$allocator@_W@2@@2@XZ 00419410 f i CheckDoc.obj
 0001:00018440       ??0?$_String_iterator@_WU?$char_traits@_W@std@@V?$allocator@_W@2@@std@@QAE@PA_WPBU_Container_base0@1@@Z 00419440 f i CheckDoc.obj
 0001:00018460       ??0?$_String_const_iterator@_WU?$char_traits@_W@std@@V?$allocator@_W@2@@std@@QAE@PB_WPBU_Container_base0@1@@Z 00419460 f i CheckDoc.obj
 0001:00018490       ?reserve@?$basic_string@_WU?$char_traits@_W@std@@V?$allocator@_W@2@@std@@QAEXI@Z 00419490 f i CheckDoc.obj
 0001:000184e0       ?compare@?$basic_string@_WU?$char_traits@_W@std@@V?$allocator@_W@2@@std@@QBEHABV12@@Z 004194e0 f i CheckDoc.obj
 0001:00018510       ?construct@?$allocator@U?$pair@$$CBV?$basic_string@_WU?$char_traits@_W@std@@V?$allocator@_W@2@@std@@V_variant_t@@@std@@@std@@QAEXPAU?$pair@$$CBV?$basic_string@_WU?$char_traits@_W@std@@V?$allocator@_W@2@@std@@V_variant_t@@@2@ABU32@@Z 00419510 f i CheckDoc.obj
 0001:00018530       ?destroy@?$allocator@U?$pair@$$CBV?$basic_string@_WU?$char_traits@_W@std@@V?$allocator@_W@2@@std@@V_variant_t@@@std@@@std@@QAEXPAU?$pair@$$CBV?$basic_string@_WU?$char_traits@_W@std@@V?$allocator@_W@2@@std@@V_variant_t@@@2@@Z 00419530 f i CheckDoc.obj
 0001:00018550       ?destroy@?$allocator@U?$pair@$$CBV?$basic_string@_WU?$char_traits@_W@std@@V?$allocator@_W@2@@std@@V12@@std@@@std@@QAEXPAU?$pair@$$CBV?$basic_string@_WU?$char_traits@_W@std@@V?$allocator@_W@2@@std@@V12@@2@@Z 00419550 f i CheckDoc.obj
 0001:00018570       ?_Linsert@?$_Tree@V?$_Tmap_traits@V?$basic_string@_WU?$char_traits@_W@std@@V?$allocator@_W@2@@std@@V12@U?$less@V?$basic_string@_WU?$char_traits@_W@std@@V?$allocator@_W@2@@std@@@2@V?$allocator@U?$pair@$$CBV?$basic_string@_WU?$char_traits@_W@std@@V?$allocator@_W@2@@std@@V12@@std@@@2@$0A@@std@@@std@@QAE?AU?$pair@V?$_Tree_iterator@V?$_Tree_val@V?$_Tmap_traits@V?$basic_string@_WU?$char_traits@_W@std@@V?$allocator@_W@2@@std@@V12@U?$less@V?$basic_string@_WU?$char_traits@_W@std@@V?$allocator@_W@2@@std@@@2@V?$allocator@U?$pair@$$CBV?$basic_string@_WU?$char_traits@_W@std@@V?$allocator@_W@2@@std@@V12@@std@@@2@$0A@@std@@@std@@@std@@_N@2@PAU_Node@?$_Tree_nod@V?$_Tmap_traits@V?$basic_string@_WU?$char_traits@_W@std@@V?$allocator@_W@2@@std@@V12@U?$less@V?$basic_string@_WU?$char_traits@_W@std@@V?$allocator@_W@2@@std@@@2@V?$allocator@U?$pair@$$CBV?$basic_string@_WU?$char_traits@_W@std@@V?$allocator@_W@2@@std@@V12@@std@@@2@$0A@@std@@@2@_N@Z 00419570 f i CheckDoc.obj
 0001:000187b0       ?_Insert@?$_Tree@V?$_Tmap_traits@V?$basic_string@_WU?$char_traits@_W@std@@V?$allocator@_W@2@@std@@V12@U?$less@V?$basic_string@_WU?$char_traits@_W@std@@V?$allocator@_W@2@@std@@@2@V?$allocator@U?$pair@$$CBV?$basic_string@_WU?$char_traits@_W@std@@V?$allocator@_W@2@@std@@V12@@std@@@2@$0A@@std@@@std@@QAE?AV?$_Tree_iterator@V?$_Tree_val@V?$_Tmap_traits@V?$basic_string@_WU?$char_traits@_W@std@@V?$allocator@_W@2@@std@@V12@U?$less@V?$basic_string@_WU?$char_traits@_W@std@@V?$allocator@_W@2@@std@@@2@V?$allocator@U?$pair@$$CBV?$basic_string@_WU?$char_traits@_W@std@@V?$allocator@_W@2@@std@@V12@@std@@@2@$0A@@std@@@std@@@2@V?$_Tree_const_iterator@V?$_Tree_val@V?$_Tmap_traits@V?$basic_string@_WU?$char_traits@_W@std@@V?$allocator@_W@2@@std@@V12@U?$less@V?$basic_string@_WU?$char_traits@_W@std@@V?$allocator@_W@2@@std@@@2@V?$allocator@U?$pair@$$CBV?$basic_string@_WU?$char_traits@_W@std@@V?$allocator@_W@2@@std@@V12@@std@@@2@$0A@@std@@@std@@@2@PAU_Node@?$_Tree_nod@V?$_Tmap_traits@V?$basic_string@_WU?$char_traits@_W@std@@V?$allocator@_W@2@@std@@V12@U?$less@V?$basic_string@_WU?$char_traits@_W@std@@V?$allocator@_W@2@@std@@@2@V?$allocator@U?$pair@$$CBV?$basic_string@_WU?$char_traits@_W@std@@V?$allocator@_W@2@@std@@V12@@std@@@2@$0A@@std@@@2@@Z 004197b0 f i CheckDoc.obj
 0001:00018db0       ?_Buynode@?$_Tree_val@V?$_Tmap_traits@V?$basic_string@_WU?$char_traits@_W@std@@V?$allocator@_W@2@@std@@V12@U?$less@V?$basic_string@_WU?$char_traits@_W@std@@V?$allocator@_W@2@@std@@@2@V?$allocator@U?$pair@$$CBV?$basic_string@_WU?$char_traits@_W@std@@V?$allocator@_W@2@@std@@V12@@std@@@2@$0A@@std@@@std@@QAEPAU_Node@?$_Tree_nod@V?$_Tmap_traits@V?$basic_string@_WU?$char_traits@_W@std@@V?$allocator@_W@2@@std@@V12@U?$less@V?$basic_string@_WU?$char_traits@_W@std@@V?$allocator@_W@2@@std@@@2@V?$allocator@U?$pair@$$CBV?$basic_string@_WU?$char_traits@_W@std@@V?$allocator@_W@2@@std@@V12@@std@@@2@$0A@@std@@@2@XZ 00419db0 f i CheckDoc.obj
 0001:00018e30       ?construct@?$allocator@V?$shared_ptr@VRefItemV@@@boost@@@std@@QAEXPAV?$shared_ptr@VRefItemV@@@boost@@ABV34@@Z 00419e30 f i CheckDoc.obj
 0001:00018e50       ??0?$_com_ptr_t@V?$_com_IIID@U_Command@@$1?_GUID_b08400bd_f9d1_4d02_b856_71d5dba123e9@@3U__s_GUID@@B@@@@QAE@ABV0@@Z 00419e50 f i CheckDoc.obj
 0001:00018e50       ??0?$_com_ptr_t@V?$_com_IIID@U_Recordset@@$1?_GUID_00000556_0000_0010_8000_00aa006d2ea4@@3U__s_GUID@@B@@@@QAE@ABV0@@Z 00419e50 f i ZReportDoc.obj
 0001:00018e80       ?get_untyped_deleter@shared_count@detail@boost@@QBEPAXXZ 00419e80 f i CheckDoc.obj
 0001:00018ec0       ?construct@?$allocator@USalesItemLine@CCheckDoc@@@std@@QAEXPAUSalesItemLine@CCheckDoc@@ABU34@@Z 00419ec0 f i CheckDoc.obj
 0001:00018ee0       ?destroy@?$allocator@U_Node@?$_List_nod@USalesItemLine@CCheckDoc@@V?$allocator@USalesItemLine@CCheckDoc@@@std@@@std@@@std@@QAEXPAU_Node@?$_List_nod@USalesItemLine@CCheckDoc@@V?$allocator@USalesItemLine@CCheckDoc@@@std@@@2@@Z 00419ee0 f i CheckDoc.obj
 0001:00018f00       ??0?$is_any_ofF@_W@detail@algorithm@boost@@QAE@ABU0123@@Z 00419f00 f i CheckDoc.obj
 0001:00018fb0       ??0?$pair@V?$basic_string@_WU?$char_traits@_W@std@@V?$allocator@_W@2@@std@@V12@@std@@QAE@$$QAV?$basic_string@_WU?$char_traits@_W@std@@V?$allocator@_W@2@@1@0@Z 00419fb0 f i CheckDoc.obj
 0001:00018ff0       ?append@?$basic_string@_WU?$char_traits@_W@std@@V?$allocator@_W@2@@std@@QAEAAV12@PB_WI@Z 00419ff0 f i CheckDoc.obj
 0001:000190b0       ?compare@?$basic_string@_WU?$char_traits@_W@std@@V?$allocator@_W@2@@std@@QBEHIIPB_WI@Z 0041a0b0 f i CheckDoc.obj
 0001:00019160       ?_Pdif@?$basic_string@_WU?$char_traits@_W@std@@V?$allocator@_W@2@@std@@SAIV?$_String_const_iterator@_WU?$char_traits@_W@std@@V?$allocator@_W@2@@2@0@Z 0041a160 f i CheckDoc.obj
 0001:00019190       ?_Insert@?$_Tree@V?$_Tmap_traits@V?$basic_string@_WU?$char_traits@_W@std@@V?$allocator@_W@2@@std@@V12@U?$less@V?$basic_string@_WU?$char_traits@_W@std@@V?$allocator@_W@2@@std@@@2@V?$allocator@U?$pair@$$CBV?$basic_string@_WU?$char_traits@_W@std@@V?$allocator@_W@2@@std@@V12@@std@@@2@$0A@@std@@@std@@IAE?AV?$_Tree_iterator@V?$_Tree_val@V?$_Tmap_traits@V?$basic_string@_WU?$char_traits@_W@std@@V?$allocator@_W@2@@std@@V12@U?$less@V?$basic_string@_WU?$char_traits@_W@std@@V?$allocator@_W@2@@std@@@2@V?$allocator@U?$pair@$$CBV?$basic_string@_WU?$char_traits@_W@std@@V?$allocator@_W@2@@std@@V12@@std@@@2@$0A@@std@@@std@@@2@_NPAU_Node@?$_Tree_nod@V?$_Tmap_traits@V?$basic_string@_WU?$char_traits@_W@std@@V?$allocator@_W@2@@std@@V12@U?$less@V?$basic_string@_WU?$char_traits@_W@std@@V?$allocator@_W@2@@std@@@2@V?$allocator@U?$pair@$$CBV?$basic_string@_WU?$char_traits@_W@std@@V?$allocator@_W@2@@std@@V12@@std@@@2@$0A@@std@@@2@1@Z 0041a190 f i CheckDoc.obj
 0001:000195d0       ??F?$_Tree_iterator@V?$_Tree_val@V?$_Tmap_traits@V?$basic_string@_WU?$char_traits@_W@std@@V?$allocator@_W@2@@std@@V12@U?$less@V?$basic_string@_WU?$char_traits@_W@std@@V?$allocator@_W@2@@std@@@2@V?$allocator@U?$pair@$$CBV?$basic_string@_WU?$char_traits@_W@std@@V?$allocator@_W@2@@std@@V12@@std@@@2@$0A@@std@@@std@@@std@@QAEAAV01@XZ 0041a5d0 f i CheckDoc.obj
 0001:000195f0       ??F?$_Tree_const_iterator@V?$_Tree_val@V?$_Tmap_traits@V?$basic_string@_WU?$char_traits@_W@std@@V?$allocator@_W@2@@std@@V12@U?$less@V?$basic_string@_WU?$char_traits@_W@std@@V?$allocator@_W@2@@std@@@2@V?$allocator@U?$pair@$$CBV?$basic_string@_WU?$char_traits@_W@std@@V?$allocator@_W@2@@std@@V12@@std@@@2@$0A@@std@@@std@@@std@@QAEAAV01@XZ 0041a5f0 f i CheckDoc.obj
 0001:00019610       ??$?0V?$basic_string@_WU?$char_traits@_W@std@@V?$allocator@_W@2@@std@@V01@@?$_Pair_base@$$CBV?$basic_string@_WU?$char_traits@_W@std@@V?$allocator@_W@2@@std@@V12@@std@@QAE@$$QAV?$basic_string@_WU?$char_traits@_W@std@@V?$allocator@_W@2@@1@0@Z 0041a610 f i CheckDoc.obj
 0001:00019610       ??0?$_Pair_base@V?$basic_string@_WU?$char_traits@_W@std@@V?$allocator@_W@2@@std@@V12@@std@@QAE@$$QAV?$basic_string@_WU?$char_traits@_W@std@@V?$allocator@_W@2@@1@0@Z 0041a610 f i CheckDoc.obj
 0001:00019690       ??G?$_String_const_iterator@_WU?$char_traits@_W@std@@V?$allocator@_W@2@@std@@QBEHABV01@@Z 0041a690 f i CheckDoc.obj
 0001:000196c0       ?max_size@?$_Tree@V?$_Tmap_traits@V?$basic_string@_WU?$char_traits@_W@std@@V?$allocator@_W@2@@std@@V12@U?$less@V?$basic_string@_WU?$char_traits@_W@std@@V?$allocator@_W@2@@std@@@2@V?$allocator@U?$pair@$$CBV?$basic_string@_WU?$char_traits@_W@std@@V?$allocator@_W@2@@std@@V12@@std@@@2@$0A@@std@@@std@@QBEIXZ 0041a6c0 f i CheckDoc.obj
 0001:000196e0       ??F?$_Tree_unchecked_const_iterator@V?$_Tree_val@V?$_Tmap_traits@V?$basic_string@_WU?$char_traits@_W@std@@V?$allocator@_W@2@@std@@V12@U?$less@V?$basic_string@_WU?$char_traits@_W@std@@V?$allocator@_W@2@@std@@@2@V?$allocator@U?$pair@$$CBV?$basic_string@_WU?$char_traits@_W@std@@V?$allocator@_W@2@@std@@V12@@std@@@2@$0A@@std@@@std@@U_Iterator_base0@2@@std@@QAEAAV01@XZ 0041a6e0 f i CheckDoc.obj
 0001:000197d0       ?max_size@?$allocator@U?$pair@$$CBV?$basic_string@_WU?$char_traits@_W@std@@V?$allocator@_W@2@@std@@V12@@std@@@std@@QBEIXZ 0041a7d0 f i CheckDoc.obj
 0001:00019800       ??$?0PAU_Recordset@@VRecordsetDeleter@DbContext@@@shared_count@detail@boost@@QAE@PAU_Recordset@@VRecordsetDeleter@DbContext@@@Z 0041a800 f i CheckDoc.obj
 0001:000198f0       ??RRecordsetDeleter@DbContext@@QAEXPAU_Recordset@@@Z 0041a8f0 f i CheckDoc.obj
 0001:00019920       ??$sp_pointer_construct@V?$HierarchyReference@UProducts@@@@V1@@detail@boost@@YAXPAV?$shared_ptr@V?$HierarchyReference@UProducts@@@@@1@PAV?$HierarchyReference@UProducts@@@@AAVshared_count@01@@Z 0041a920 f i CheckDoc.obj
 0001:000199a0       ??$sp_pointer_construct@V?$SlaveReference@UUnits@@UProducts@@@@V1@@detail@boost@@YAXPAV?$shared_ptr@V?$SlaveReference@UUnits@@UProducts@@@@@1@PAV?$SlaveReference@UUnits@@UProducts@@@@AAVshared_count@01@@Z 0041a9a0 f i CheckDoc.obj
 0001:00019a20       ??$sp_pointer_construct@V?$SlaveReference@UPrices@@UProducts@@@@V1@@detail@boost@@YAXPAV?$shared_ptr@V?$SlaveReference@UPrices@@UProducts@@@@@1@PAV?$SlaveReference@UPrices@@UProducts@@@@AAVshared_count@01@@Z 0041aa20 f i CheckDoc.obj
 0001:00019aa0       ??$_Find_if@V?$_List_unchecked_iterator@V?$_List_val@USalesItemLine@CCheckDoc@@V?$allocator@USalesItemLine@CCheckDoc@@@std@@@std@@@std@@V<lambda1>@?A0x13b243aa@@@std@@YA?AV?$_List_unchecked_iterator@V?$_List_val@USalesItemLine@CCheckDoc@@V?$allocator@USalesItemLine@CCheckDoc@@@std@@@std@@@0@V10@0V<lambda1>@?A0x13b243aa@@@Z 0041aaa0 f i CheckDoc.obj
 0001:00019b10       ??R<lambda1>@?A0x13b243aa@@QBE_NUSalesItemLine@CCheckDoc@@@Z 0041ab10 f i CheckDoc.obj
 0001:00019b80       ??$?8_WU?$char_traits@_W@std@@V?$allocator@_W@1@@std@@YA_NABV?$basic_string@_WU?$char_traits@_W@std@@V?$allocator@_W@2@@0@0@Z 0041ab80 f i CheckDoc.obj
 0001:00019ba0       ??$trim_if@V?$basic_string@_WU?$char_traits@_W@std@@V?$allocator@_W@2@@std@@Uis_classifiedF@detail@algorithm@boost@@@algorithm@boost@@YAXAAV?$basic_string@_WU?$char_traits@_W@std@@V?$allocator@_W@2@@std@@Uis_classifiedF@detail@01@@Z 0041aba0 f i CheckDoc.obj
 0001:00019c30       ??1is_classifiedF@detail@algorithm@boost@@QAE@XZ 0041ac30 f i CheckDoc.obj
 0001:00019c50       ??$_Find_if@PBV?$tuple@V?$basic_string@_WU?$char_traits@_W@std@@V?$allocator@_W@2@@std@@V12@_NV12@V?$shared_ptr@VRefItemV@@@boost@@Unull_type@tuples@4@U564@U564@U564@U564@@tuples@boost@@V<lambda3>@?A0x13b243aa@@@std@@YAPBV?$tuple@V?$basic_string@_WU?$char_traits@_W@std@@V?$allocator@_W@2@@std@@V12@_NV12@V?$shared_ptr@VRefItemV@@@boost@@Unull_type@tuples@4@U564@U564@U564@U564@@tuples@boost@@PBV123@0V<lambda3>@?A0x13b243aa@@@Z 0041ac50 f i CheckDoc.obj
 0001:00019cf0       ??R<lambda3>@?A0x13b243aa@@QBE_NV?$tuple@V?$basic_string@_WU?$char_traits@_W@std@@V?$allocator@_W@2@@std@@V12@_NV12@V?$shared_ptr@VRefItemV@@@boost@@Unull_type@tuples@4@U564@U564@U564@U564@@tuples@boost@@@Z 0041acf0 f i CheckDoc.obj
 0001:00019d60       ??$get@$0A@@?$cons@V?$basic_string@_WU?$char_traits@_W@std@@V?$allocator@_W@2@@std@@U?$cons@V?$basic_string@_WU?$char_traits@_W@std@@V?$allocator@_W@2@@std@@U?$cons@_NU?$cons@V?$basic_string@_WU?$char_traits@_W@std@@V?$allocator@_W@2@@std@@U?$cons@V?$shared_ptr@VRefItemV@@@boost@@Unull_type@tuples@2@@tuples@boost@@@tuples@boost@@@tuples@boost@@@tuples@boost@@@tuples@boost@@QAEAAV?$basic_string@_WU?$char_traits@_W@std@@V?$allocator@_W@2@@std@@XZ 0041ad60 f i CheckDoc.obj
 0001:00019d60       ??$get@$0A@@?$cons@V?$basic_string@_WU?$char_traits@_W@std@@V?$allocator@_W@2@@std@@U?$cons@V?$basic_string@_WU?$char_traits@_W@std@@V?$allocator@_W@2@@std@@U?$cons@V?$basic_string@_WU?$char_traits@_W@std@@V?$allocator@_W@2@@std@@U?$cons@V?$shared_ptr@VRefItemV@@@boost@@Unull_type@tuples@2@@tuples@boost@@@tuples@boost@@@tuples@boost@@@tuples@boost@@QAEAAV?$basic_string@_WU?$char_traits@_W@std@@V?$allocator@_W@2@@std@@XZ 0041ad60 f i CheckDoc.obj
 0001:00019d60       ??$get@$0A@@?$cons@V?$basic_string@_WU?$char_traits@_W@std@@V?$allocator@_W@2@@std@@U?$cons@V?$basic_string@_WU?$char_traits@_W@std@@V?$allocator@_W@2@@std@@U?$cons@V?$basic_string@_WU?$char_traits@_W@std@@V?$allocator@_W@2@@std@@Unull_type@tuples@boost@@@tuples@boost@@@tuples@boost@@@tuples@boost@@QAEAAV?$basic_string@_WU?$char_traits@_W@std@@V?$allocator@_W@2@@std@@XZ 0041ad60 f i DlgFindAll.obj
 0001:00019d60       ??$get@$0A@@?$cons@V?$basic_string@_WU?$char_traits@_W@std@@V?$allocator@_W@2@@std@@U?$cons@V?$basic_string@_WU?$char_traits@_W@std@@V?$allocator@_W@2@@std@@U?$cons@V?$basic_string@_WU?$char_traits@_W@std@@V?$allocator@_W@2@@std@@U?$cons@V?$basic_string@_WU?$char_traits@_W@std@@V?$allocator@_W@2@@std@@Unull_type@tuples@boost@@@tuples@boost@@@tuples@boost@@@tuples@boost@@@tuples@boost@@QAEAAV?$basic_string@_WU?$char_traits@_W@std@@V?$allocator@_W@2@@std@@XZ 0041ad60 f i DlgInsert.obj
 0001:00019d60       ??$get@$0A@@?$cons@V?$basic_string@_WU?$char_traits@_W@std@@V?$allocator@_W@2@@std@@U?$cons@V?$basic_string@_WU?$char_traits@_W@std@@V?$allocator@_W@2@@std@@Unull_type@tuples@boost@@@tuples@boost@@@tuples@boost@@QAEAAV?$basic_string@_WU?$char_traits@_W@std@@V?$allocator@_W@2@@std@@XZ 0041ad60 f i SuperTree.obj
 0001:00019d60       ??$get@$0A@@?$cons@HU?$cons@V?$basic_string@_WU?$char_traits@_W@std@@V?$allocator@_W@2@@std@@U?$cons@V?$basic_string@_WU?$char_traits@_W@std@@V?$allocator@_W@2@@std@@U?$cons@V?$basic_string@_WU?$char_traits@_W@std@@V?$allocator@_W@2@@std@@Unull_type@tuples@boost@@@tuples@boost@@@tuples@boost@@@tuples@boost@@@tuples@boost@@QAEAAHXZ 0041ad60 f i DlgSelectGood.obj
 0001:00019d80       ??$get@$0A@V?$basic_string@_WU?$char_traits@_W@std@@V?$allocator@_W@2@@std@@U?$cons@V?$basic_string@_WU?$char_traits@_W@std@@V?$allocator@_W@2@@std@@U?$cons@V?$basic_string@_WU?$char_traits@_W@std@@V?$allocator@_W@2@@std@@U?$cons@V?$shared_ptr@VRefItemV@@@boost@@Unull_type@tuples@2@@tuples@boost@@@tuples@boost@@@tuples@boost@@@tuples@boost@@YAAAV?$basic_string@_WU?$char_traits@_W@std@@V?$allocator@_W@2@@std@@AAU?$cons@V?$basic_string@_WU?$char_traits@_W@std@@V?$allocator@_W@2@@std@@U?$cons@V?$basic_string@_WU?$char_traits@_W@std@@V?$allocator@_W@2@@std@@U?$cons@V?$basic_string@_WU?$char_traits@_W@std@@V?$allocator@_W@2@@std@@U?$cons@V?$shared_ptr@VRefItemV@@@boost@@Unull_type@tuples@2@@tuples@boost@@@tuples@boost@@@tuples@boost@@@01@@Z 0041ad80 f i CheckDoc.obj
 0001:00019d80       ??$get@$0A@V?$basic_string@_WU?$char_traits@_W@std@@V?$allocator@_W@2@@std@@U?$cons@V?$basic_string@_WU?$char_traits@_W@std@@V?$allocator@_W@2@@std@@U?$cons@V?$basic_string@_WU?$char_traits@_W@std@@V?$allocator@_W@2@@std@@Unull_type@tuples@boost@@@tuples@boost@@@tuples@boost@@@tuples@boost@@YAAAV?$basic_string@_WU?$char_traits@_W@std@@V?$allocator@_W@2@@std@@AAU?$cons@V?$basic_string@_WU?$char_traits@_W@std@@V?$allocator@_W@2@@std@@U?$cons@V?$basic_string@_WU?$char_traits@_W@std@@V?$allocator@_W@2@@std@@U?$cons@V?$basic_string@_WU?$char_traits@_W@std@@V?$allocator@_W@2@@std@@Unull_type@tuples@boost@@@tuples@boost@@@tuples@boost@@@01@@Z 0041ad80 f i DlgFindAll.obj
 0001:00019d80       ??$get@$0A@HU?$cons@V?$basic_string@_WU?$char_traits@_W@std@@V?$allocator@_W@2@@std@@U?$cons@V?$basic_string@_WU?$char_traits@_W@std@@V?$allocator@_W@2@@std@@U?$cons@V?$basic_string@_WU?$char_traits@_W@std@@V?$allocator@_W@2@@std@@Unull_type@tuples@boost@@@tuples@boost@@@tuples@boost@@@tuples@boost@@@tuples@boost@@YAAAHAAU?$cons@HU?$cons@V?$basic_string@_WU?$char_traits@_W@std@@V?$allocator@_W@2@@std@@U?$cons@V?$basic_string@_WU?$char_traits@_W@std@@V?$allocator@_W@2@@std@@U?$cons@V?$basic_string@_WU?$char_traits@_W@std@@V?$allocator@_W@2@@std@@Unull_type@tuples@boost@@@tuples@boost@@@tuples@boost@@@tuples@boost@@@01@@Z 0041ad80 f i DlgSelectGood.obj
 0001:00019d80       ??$get@$0A@V?$basic_string@_WU?$char_traits@_W@std@@V?$allocator@_W@2@@std@@U?$cons@V?$basic_string@_WU?$char_traits@_W@std@@V?$allocator@_W@2@@std@@U?$cons@_NU?$cons@V?$basic_string@_WU?$char_traits@_W@std@@V?$allocator@_W@2@@std@@U?$cons@V?$shared_ptr@VRefItemV@@@boost@@Unull_type@tuples@2@@tuples@boost@@@tuples@boost@@@tuples@boost@@@tuples@boost@@@tuples@boost@@YAAAV?$basic_string@_WU?$char_traits@_W@std@@V?$allocator@_W@2@@std@@AAU?$cons@V?$basic_string@_WU?$char_traits@_W@std@@V?$allocator@_W@2@@std@@U?$cons@V?$basic_string@_WU?$char_traits@_W@std@@V?$allocator@_W@2@@std@@U?$cons@_NU?$cons@V?$basic_string@_WU?$char_traits@_W@std@@V?$allocator@_W@2@@std@@U?$cons@V?$shared_ptr@VRefItemV@@@boost@@Unull_type@tuples@2@@tuples@boost@@@tuples@boost@@@tuples@boost@@@tuples@boost@@@01@@Z 0041ad80 f i CheckDoc.obj
 0001:00019d80       ??$get@$0A@V?$basic_string@_WU?$char_traits@_W@std@@V?$allocator@_W@2@@std@@U?$cons@V?$basic_string@_WU?$char_traits@_W@std@@V?$allocator@_W@2@@std@@U?$cons@V?$basic_string@_WU?$char_traits@_W@std@@V?$allocator@_W@2@@std@@U?$cons@V?$basic_string@_WU?$char_traits@_W@std@@V?$allocator@_W@2@@std@@Unull_type@tuples@boost@@@tuples@boost@@@tuples@boost@@@tuples@boost@@@tuples@boost@@YAAAV?$basic_string@_WU?$char_traits@_W@std@@V?$allocator@_W@2@@std@@AAU?$cons@V?$basic_string@_WU?$char_traits@_W@std@@V?$allocator@_W@2@@std@@U?$cons@V?$basic_string@_WU?$char_traits@_W@std@@V?$allocator@_W@2@@std@@U?$cons@V?$basic_string@_WU?$char_traits@_W@std@@V?$allocator@_W@2@@std@@U?$cons@V?$basic_string@_WU?$char_traits@_W@std@@V?$allocator@_W@2@@std@@Unull_type@tuples@boost@@@tuples@boost@@@tuples@boost@@@tuples@boost@@@01@@Z 0041ad80 f i DlgInsert.obj
 0001:00019d80       ??$get@$0A@V?$basic_string@_WU?$char_traits@_W@std@@V?$allocator@_W@2@@std@@U?$cons@V?$basic_string@_WU?$char_traits@_W@std@@V?$allocator@_W@2@@std@@Unull_type@tuples@boost@@@tuples@boost@@@tuples@boost@@YAAAV?$basic_string@_WU?$char_traits@_W@std@@V?$allocator@_W@2@@std@@AAU?$cons@V?$basic_string@_WU?$char_traits@_W@std@@V?$allocator@_W@2@@std@@U?$cons@V?$basic_string@_WU?$char_traits@_W@std@@V?$allocator@_W@2@@std@@Unull_type@tuples@boost@@@tuples@boost@@@01@@Z 0041ad80 f i SuperTree.obj
 0001:00019da0       ??$_Rechecked@V?$_List_val@USalesItemLine@CCheckDoc@@V?$allocator@USalesItemLine@CCheckDoc@@@std@@@std@@@std@@YAAAV?$_List_iterator@V?$_List_val@USalesItemLine@CCheckDoc@@V?$allocator@USalesItemLine@CCheckDoc@@@std@@@std@@@0@AAV10@V?$_List_unchecked_iterator@V?$_List_val@USalesItemLine@CCheckDoc@@V?$allocator@USalesItemLine@CCheckDoc@@@std@@@std@@@0@@Z 0041ada0 f i CheckDoc.obj
 0001:00019da0       ??$_Rechecked@V?$_Vector_val@V?$tuple@V?$basic_string@_WU?$char_traits@_W@std@@V?$allocator@_W@2@@std@@V12@_NV12@V?$shared_ptr@VRefItemV@@@boost@@Unull_type@tuples@4@U564@U564@U564@U564@@tuples@boost@@V?$allocator@V?$tuple@V?$basic_string@_WU?$char_traits@_W@std@@V?$allocator@_W@2@@std@@V12@_NV12@V?$shared_ptr@VRefItemV@@@boost@@Unull_type@tuples@4@U564@U564@U564@U564@@tuples@boost@@@std@@@std@@@std@@YAAAV?$_Vector_const_iterator@V?$_Vector_val@V?$tuple@V?$basic_string@_WU?$char_traits@_W@std@@V?$allocator@_W@2@@std@@V12@_NV12@V?$shared_ptr@VRefItemV@@@boost@@Unull_type@tuples@4@U564@U564@U564@U564@@tuples@boost@@V?$allocator@V?$tuple@V?$basic_string@_WU?$char_traits@_W@std@@V?$allocator@_W@2@@std@@V12@_NV12@V?$shared_ptr@VRefItemV@@@boost@@Unull_type@tuples@4@U564@U564@U564@U564@@tuples@boost@@@std@@@std@@@0@AAV10@PBV?$tuple@V?$basic_string@_WU?$char_traits@_W@std@@V?$allocator@_W@2@@std@@V12@_NV12@V?$shared_ptr@VRefItemV@@@boost@@Unull_type@tuples@4@U564@U564@U564@U564@@tuples@boost@@@Z 0041ada0 f i CheckDoc.obj
 0001:00019da0       ??$_Rechecked@V?$_Vector_val@V?$tuple@V?$basic_string@_WU?$char_traits@_W@std@@V?$allocator@_W@2@@std@@V12@V12@V?$shared_ptr@VRefItemV@@@boost@@Unull_type@tuples@4@U564@U564@U564@U564@U564@@tuples@boost@@V?$allocator@V?$tuple@V?$basic_string@_WU?$char_traits@_W@std@@V?$allocator@_W@2@@std@@V12@V12@V?$shared_ptr@VRefItemV@@@boost@@Unull_type@tuples@4@U564@U564@U564@U564@U564@@tuples@boost@@@std@@@std@@@std@@YAAAV?$_Vector_const_iterator@V?$_Vector_val@V?$tuple@V?$basic_string@_WU?$char_traits@_W@std@@V?$allocator@_W@2@@std@@V12@V12@V?$shared_ptr@VRefItemV@@@boost@@Unull_type@tuples@4@U564@U564@U564@U564@U564@@tuples@boost@@V?$allocator@V?$tuple@V?$basic_string@_WU?$char_traits@_W@std@@V?$allocator@_W@2@@std@@V12@V12@V?$shared_ptr@VRefItemV@@@boost@@Unull_type@tuples@4@U564@U564@U564@U564@U564@@tuples@boost@@@std@@@std@@@0@AAV10@PBV?$tuple@V?$basic_string@_WU?$char_traits@_W@std@@V?$allocator@_W@2@@std@@V12@V12@V?$shared_ptr@VRefItemV@@@boost@@Unull_type@tuples@4@U564@U564@U564@U564@U564@@tuples@boost@@@Z 0041ada0 f i CheckDoc.obj
 0001:00019da0       ??$_Rechecked@V?$_Vector_val@V?$tuple@V?$basic_string@_WU?$char_traits@_W@std@@V?$allocator@_W@2@@std@@V12@_NV12@V?$shared_ptr@VRefItemV@@@boost@@Unull_type@tuples@4@U564@U564@U564@U564@@tuples@boost@@V?$allocator@V?$tuple@V?$basic_string@_WU?$char_traits@_W@std@@V?$allocator@_W@2@@std@@V12@_NV12@V?$shared_ptr@VRefItemV@@@boost@@Unull_type@tuples@4@U564@U564@U564@U564@@tuples@boost@@@std@@@std@@@std@@YAAAV?$_Vector_iterator@V?$_Vector_val@V?$tuple@V?$basic_string@_WU?$char_traits@_W@std@@V?$allocator@_W@2@@std@@V12@_NV12@V?$shared_ptr@VRefItemV@@@boost@@Unull_type@tuples@4@U564@U564@U564@U564@@tuples@boost@@V?$allocator@V?$tuple@V?$basic_string@_WU?$char_traits@_W@std@@V?$allocator@_W@2@@std@@V12@_NV12@V?$shared_ptr@VRefItemV@@@boost@@Unull_type@tuples@4@U564@U564@U564@U564@@tuples@boost@@@std@@@std@@@0@AAV10@PAV?$tuple@V?$basic_string@_WU?$char_traits@_W@std@@V?$allocator@_W@2@@std@@V12@_NV12@V?$shared_ptr@VRefItemV@@@boost@@Unull_type@tuples@4@U564@U564@U564@U564@@tuples@boost@@@Z 0041ada0 f i DlgFindAll.obj
 0001:00019da0       ??$_Rechecked@V?$_Vector_val@V?$tuple@V?$basic_string@_WU?$char_traits@_W@std@@V?$allocator@_W@2@@std@@V12@V12@V?$shared_ptr@VRefItemV@@@boost@@Unull_type@tuples@4@U564@U564@U564@U564@U564@@tuples@boost@@V?$allocator@V?$tuple@V?$basic_string@_WU?$char_traits@_W@std@@V?$allocator@_W@2@@std@@V12@V12@V?$shared_ptr@VRefItemV@@@boost@@Unull_type@tuples@4@U564@U564@U564@U564@U564@@tuples@boost@@@std@@@std@@@std@@YAAAV?$_Vector_iterator@V?$_Vector_val@V?$tuple@V?$basic_string@_WU?$char_traits@_W@std@@V?$allocator@_W@2@@std@@V12@V12@V?$shared_ptr@VRefItemV@@@boost@@Unull_type@tuples@4@U564@U564@U564@U564@U564@@tuples@boost@@V?$allocator@V?$tuple@V?$basic_string@_WU?$char_traits@_W@std@@V?$allocator@_W@2@@std@@V12@V12@V?$shared_ptr@VRefItemV@@@boost@@Unull_type@tuples@4@U564@U564@U564@U564@U564@@tuples@boost@@@std@@@std@@@0@AAV10@PAV?$tuple@V?$basic_string@_WU?$char_traits@_W@std@@V?$allocator@_W@2@@std@@V12@V12@V?$shared_ptr@VRefItemV@@@boost@@Unull_type@tuples@4@U564@U564@U564@U564@U564@@tuples@boost@@@Z 0041ada0 f i DlgInsert.obj
 0001:00019dc0       ??$get@$03V?$basic_string@_WU?$char_traits@_W@std@@V?$allocator@_W@2@@std@@U?$cons@V?$basic_string@_WU?$char_traits@_W@std@@V?$allocator@_W@2@@std@@U?$cons@_NU?$cons@V?$basic_string@_WU?$char_traits@_W@std@@V?$allocator@_W@2@@std@@U?$cons@V?$shared_ptr@VRefItemV@@@boost@@Unull_type@tuples@2@@tuples@boost@@@tuples@boost@@@tuples@boost@@@tuples@boost@@@tuples@boost@@YAABV?$shared_ptr@VRefItemV@@@1@ABU?$cons@V?$basic_string@_WU?$char_traits@_W@std@@V?$allocator@_W@2@@std@@U?$cons@V?$basic_string@_WU?$char_traits@_W@std@@V?$allocator@_W@2@@std@@U?$cons@_NU?$cons@V?$basic_string@_WU?$char_traits@_W@std@@V?$allocator@_W@2@@std@@U?$cons@V?$shared_ptr@VRefItemV@@@boost@@Unull_type@tuples@2@@tuples@boost@@@tuples@boost@@@tuples@boost@@@tuples@boost@@@01@@Z 0041adc0 f i DlgFindAll.obj
 0001:00019dc0       ??$get@$03V?$basic_string@_WU?$char_traits@_W@std@@V?$allocator@_W@2@@std@@U?$cons@V?$basic_string@_WU?$char_traits@_W@std@@V?$allocator@_W@2@@std@@U?$cons@_NU?$cons@V?$basic_string@_WU?$char_traits@_W@std@@V?$allocator@_W@2@@std@@U?$cons@V?$shared_ptr@VRefItemV@@@boost@@Unull_type@tuples@2@@tuples@boost@@@tuples@boost@@@tuples@boost@@@tuples@boost@@@tuples@boost@@YAAAV?$shared_ptr@VRefItemV@@@1@AAU?$cons@V?$basic_string@_WU?$char_traits@_W@std@@V?$allocator@_W@2@@std@@U?$cons@V?$basic_string@_WU?$char_traits@_W@std@@V?$allocator@_W@2@@std@@U?$cons@_NU?$cons@V?$basic_string@_WU?$char_traits@_W@std@@V?$allocator@_W@2@@std@@U?$cons@V?$shared_ptr@VRefItemV@@@boost@@Unull_type@tuples@2@@tuples@boost@@@tuples@boost@@@tuples@boost@@@tuples@boost@@@01@@Z 0041adc0 f i CheckDoc.obj
 0001:00019de0       ??R<lambda5>@?A0x13b243aa@@QBE_NV?$tuple@V?$basic_string@_WU?$char_traits@_W@std@@V?$allocator@_W@2@@std@@V12@V12@V?$shared_ptr@VRefItemV@@@boost@@Unull_type@tuples@4@U564@U564@U564@U564@U564@@tuples@boost@@@Z 0041ade0 f i CheckDoc.obj
 0001:00019de0       ??R<lambda4>@?A0x13b243aa@@QBE_NV?$tuple@V?$basic_string@_WU?$char_traits@_W@std@@V?$allocator@_W@2@@std@@V12@V12@V?$shared_ptr@VRefItemV@@@boost@@Unull_type@tuples@4@U564@U564@U564@U564@U564@@tuples@boost@@@Z 0041ade0 f i CheckDoc.obj
 0001:00019e50       ??$get@$02V?$basic_string@_WU?$char_traits@_W@std@@V?$allocator@_W@2@@std@@U?$cons@V?$basic_string@_WU?$char_traits@_W@std@@V?$allocator@_W@2@@std@@U?$cons@V?$basic_string@_WU?$char_traits@_W@std@@V?$allocator@_W@2@@std@@U?$cons@V?$basic_string@_WU?$char_traits@_W@std@@V?$allocator@_W@2@@std@@Unull_type@tuples@boost@@@tuples@boost@@@tuples@boost@@@tuples@boost@@@tuples@boost@@YAAAV?$basic_string@_WU?$char_traits@_W@std@@V?$allocator@_W@2@@std@@AAU?$cons@V?$basic_string@_WU?$char_traits@_W@std@@V?$allocator@_W@2@@std@@U?$cons@V?$basic_string@_WU?$char_traits@_W@std@@V?$allocator@_W@2@@std@@U?$cons@V?$basic_string@_WU?$char_traits@_W@std@@V?$allocator@_W@2@@std@@U?$cons@V?$basic_string@_WU?$char_traits@_W@std@@V?$allocator@_W@2@@std@@Unull_type@tuples@boost@@@tuples@boost@@@tuples@boost@@@tuples@boost@@@01@@Z 0041ae50 f i DlgInsert.obj
 0001:00019e50       ??$get@$02V?$basic_string@_WU?$char_traits@_W@std@@V?$allocator@_W@2@@std@@U?$cons@V?$basic_string@_WU?$char_traits@_W@std@@V?$allocator@_W@2@@std@@U?$cons@V?$basic_string@_WU?$char_traits@_W@std@@V?$allocator@_W@2@@std@@U?$cons@V?$shared_ptr@VRefItemV@@@boost@@Unull_type@tuples@2@@tuples@boost@@@tuples@boost@@@tuples@boost@@@tuples@boost@@YAAAV?$shared_ptr@VRefItemV@@@1@AAU?$cons@V?$basic_string@_WU?$char_traits@_W@std@@V?$allocator@_W@2@@std@@U?$cons@V?$basic_string@_WU?$char_traits@_W@std@@V?$allocator@_W@2@@std@@U?$cons@V?$basic_string@_WU?$char_traits@_W@std@@V?$allocator@_W@2@@std@@U?$cons@V?$shared_ptr@VRefItemV@@@boost@@Unull_type@tuples@2@@tuples@boost@@@tuples@boost@@@tuples@boost@@@01@@Z 0041ae50 f i CheckDoc.obj
 0001:00019e50       ??$get@$02V?$basic_string@_WU?$char_traits@_W@std@@V?$allocator@_W@2@@std@@U?$cons@V?$basic_string@_WU?$char_traits@_W@std@@V?$allocator@_W@2@@std@@U?$cons@V?$basic_string@_WU?$char_traits@_W@std@@V?$allocator@_W@2@@std@@U?$cons@V?$shared_ptr@VRefItemV@@@boost@@Unull_type@tuples@2@@tuples@boost@@@tuples@boost@@@tuples@boost@@@tuples@boost@@YAABV?$shared_ptr@VRefItemV@@@1@ABU?$cons@V?$basic_string@_WU?$char_traits@_W@std@@V?$allocator@_W@2@@std@@U?$cons@V?$basic_string@_WU?$char_traits@_W@std@@V?$allocator@_W@2@@std@@U?$cons@V?$basic_string@_WU?$char_traits@_W@std@@V?$allocator@_W@2@@std@@U?$cons@V?$shared_ptr@VRefItemV@@@boost@@Unull_type@tuples@2@@tuples@boost@@@tuples@boost@@@tuples@boost@@@01@@Z 0041ae50 f i DlgInsert.obj
 0001:00019e70       ??$_Find_if@PBV?$tuple@V?$basic_string@_WU?$char_traits@_W@std@@V?$allocator@_W@2@@std@@V12@V12@V?$shared_ptr@VRefItemV@@@boost@@Unull_type@tuples@4@U564@U564@U564@U564@U564@@tuples@boost@@V<lambda4>@?A0x13b243aa@@@std@@YAPBV?$tuple@V?$basic_string@_WU?$char_traits@_W@std@@V?$allocator@_W@2@@std@@V12@V12@V?$shared_ptr@VRefItemV@@@boost@@Unull_type@tuples@4@U564@U564@U564@U564@U564@@tuples@boost@@PBV123@0V<lambda4>@?A0x13b243aa@@@Z 0041ae70 f i CheckDoc.obj
 0001:00019e70       ??$_Find_if@PBV?$tuple@V?$basic_string@_WU?$char_traits@_W@std@@V?$allocator@_W@2@@std@@V12@V12@V?$shared_ptr@VRefItemV@@@boost@@Unull_type@tuples@4@U564@U564@U564@U564@U564@@tuples@boost@@V<lambda5>@?A0x13b243aa@@@std@@YAPBV?$tuple@V?$basic_string@_WU?$char_traits@_W@std@@V?$allocator@_W@2@@std@@V12@V12@V?$shared_ptr@VRefItemV@@@boost@@Unull_type@tuples@4@U564@U564@U564@U564@U564@@tuples@boost@@PBV123@0V<lambda5>@?A0x13b243aa@@@Z 0041ae70 f i CheckDoc.obj
 0001:00019f10       ??$?0VRefItemV@@U?$sp_inplace_tag@V?$sp_ms_deleter@VRefItemV@@@detail@boost@@@detail@boost@@@?$shared_ptr@VRefItemV@@@boost@@QAE@PAVRefItemV@@U?$sp_inplace_tag@V?$sp_ms_deleter@VRefItemV@@@detail@boost@@@detail@1@@Z 0041af10 f i CheckDoc.obj
 0001:00019f90       ??$_Copy_impl@PAV?$shared_ptr@VRefItemV@@@boost@@PAV12@@std@@YAPAV?$shared_ptr@VRefItemV@@@boost@@PAV12@00U_Nonscalar_ptr_iterator_tag@0@@Z 0041af90 f i CheckDoc.obj
 0001:00019fd0       ??$_Uninitialized_copy@PAV?$shared_ptr@VRefItemV@@@boost@@PAV12@V?$allocator@V?$shared_ptr@VRefItemV@@@boost@@@std@@@std@@YAPAV?$shared_ptr@VRefItemV@@@boost@@PAV12@00AAV?$allocator@V?$shared_ptr@VRefItemV@@@boost@@@0@@Z 0041afd0 f i CheckDoc.obj
 0001:0001a010       ??$_Copy_impl@PAV?$tuple@V?$basic_string@_WU?$char_traits@_W@std@@V?$allocator@_W@2@@std@@V12@V12@V?$shared_ptr@VRefItemV@@@boost@@Unull_type@tuples@4@U564@U564@U564@U564@U564@@tuples@boost@@PAV123@@std@@YAPAV?$tuple@V?$basic_string@_WU?$char_traits@_W@std@@V?$allocator@_W@2@@std@@V12@V12@V?$shared_ptr@VRefItemV@@@boost@@Unull_type@tuples@4@U564@U564@U564@U564@U564@@tuples@boost@@PAV123@00U_Nonscalar_ptr_iterator_tag@0@@Z 0041b010 f i CheckDoc.obj
 0001:0001a050       ??$_Uninitialized_copy@PAV?$tuple@V?$basic_string@_WU?$char_traits@_W@std@@V?$allocator@_W@2@@std@@V12@V12@V?$shared_ptr@VRefItemV@@@boost@@Unull_type@tuples@4@U564@U564@U564@U564@U564@@tuples@boost@@PAV123@V?$allocator@V?$tuple@V?$basic_string@_WU?$char_traits@_W@std@@V?$allocator@_W@2@@std@@V12@V12@V?$shared_ptr@VRefItemV@@@boost@@Unull_type@tuples@4@U564@U564@U564@U564@U564@@tuples@boost@@@std@@@std@@YAPAV?$tuple@V?$basic_string@_WU?$char_traits@_W@std@@V?$allocator@_W@2@@std@@V12@V12@V?$shared_ptr@VRefItemV@@@boost@@Unull_type@tuples@4@U564@U564@U564@U564@U564@@tuples@boost@@PAV123@00AAV?$allocator@V?$tuple@V?$basic_string@_WU?$char_traits@_W@std@@V?$allocator@_W@2@@std@@V12@V12@V?$shared_ptr@VRefItemV@@@boost@@Unull_type@tuples@4@U564@U564@U564@U564@U564@@tuples@boost@@@0@@Z 0041b050 f i CheckDoc.obj
 0001:0001a090       ??$_Copy_impl@PAV?$tuple@V?$basic_string@_WU?$char_traits@_W@std@@V?$allocator@_W@2@@std@@V12@_NV12@V?$shared_ptr@VRefItemV@@@boost@@Unull_type@tuples@4@U564@U564@U564@U564@@tuples@boost@@PAV123@@std@@YAPAV?$tuple@V?$basic_string@_WU?$char_traits@_W@std@@V?$allocator@_W@2@@std@@V12@_NV12@V?$shared_ptr@VRefItemV@@@boost@@Unull_type@tuples@4@U564@U564@U564@U564@@tuples@boost@@PAV123@00U_Nonscalar_ptr_iterator_tag@0@@Z 0041b090 f i CheckDoc.obj
 0001:0001a0d0       ??$_Uninitialized_copy@PAV?$tuple@V?$basic_string@_WU?$char_traits@_W@std@@V?$allocator@_W@2@@std@@V12@_NV12@V?$shared_ptr@VRefItemV@@@boost@@Unull_type@tuples@4@U564@U564@U564@U564@@tuples@boost@@PAV123@V?$allocator@V?$tuple@V?$basic_string@_WU?$char_traits@_W@std@@V?$allocator@_W@2@@std@@V12@_NV12@V?$shared_ptr@VRefItemV@@@boost@@Unull_type@tuples@4@U564@U564@U564@U564@@tuples@boost@@@std@@@std@@YAPAV?$tuple@V?$basic_string@_WU?$char_traits@_W@std@@V?$allocator@_W@2@@std@@V12@_NV12@V?$shared_ptr@VRefItemV@@@boost@@Unull_type@tuples@4@U564@U564@U564@U564@@tuples@boost@@PAV123@00AAV?$allocator@V?$tuple@V?$basic_string@_WU?$char_traits@_W@std@@V?$allocator@_W@2@@std@@V12@_NV12@V?$shared_ptr@VRefItemV@@@boost@@Unull_type@tuples@4@U564@U564@U564@U564@@tuples@boost@@@0@@Z 0041b0d0 f i CheckDoc.obj
 0001:0001a110       ??$construct@AAV?$shared_ptr@VRefItemV@@@boost@@@?$allocator@V?$shared_ptr@VRefItemV@@@boost@@@std@@QAEXPAV?$shared_ptr@VRefItemV@@@boost@@AAV23@@Z 0041b110 f i CheckDoc.obj
 0001:0001a1a0       ??$_Destroy_range@V?$allocator@V?$shared_ptr@VRefItemV@@@boost@@@std@@@std@@YAXPAV?$shared_ptr@VRefItemV@@@boost@@0AAV?$allocator@V?$shared_ptr@VRefItemV@@@boost@@@0@U_Nonscalar_ptr_iterator_tag@0@@Z 0041b1a0 f i CheckDoc.obj
 0001:0001a1d0       ??$_Destroy_range@V?$allocator@V?$tuple@V?$basic_string@_WU?$char_traits@_W@std@@V?$allocator@_W@2@@std@@V12@V12@V?$shared_ptr@VRefItemV@@@boost@@Unull_type@tuples@4@U564@U564@U564@U564@U564@@tuples@boost@@@std@@@std@@YAXPAV?$tuple@V?$basic_string@_WU?$char_traits@_W@std@@V?$allocator@_W@2@@std@@V12@V12@V?$shared_ptr@VRefItemV@@@boost@@Unull_type@tuples@4@U564@U564@U564@U564@U564@@tuples@boost@@0AAV?$allocator@V?$tuple@V?$basic_string@_WU?$char_traits@_W@std@@V?$allocator@_W@2@@std@@V12@V12@V?$shared_ptr@VRefItemV@@@boost@@Unull_type@tuples@4@U564@U564@U564@U564@U564@@tuples@boost@@@0@U_Nonscalar_ptr_iterator_tag@0@@Z 0041b1d0 f i CheckDoc.obj
 0001:0001a200       ??$_Destroy_range@V?$allocator@V?$tuple@V?$basic_string@_WU?$char_traits@_W@std@@V?$allocator@_W@2@@std@@V12@_NV12@V?$shared_ptr@VRefItemV@@@boost@@Unull_type@tuples@4@U564@U564@U564@U564@@tuples@boost@@@std@@@std@@YAXPAV?$tuple@V?$basic_string@_WU?$char_traits@_W@std@@V?$allocator@_W@2@@std@@V12@_NV12@V?$shared_ptr@VRefItemV@@@boost@@Unull_type@tuples@4@U564@U564@U564@U564@@tuples@boost@@0AAV?$allocator@V?$tuple@V?$basic_string@_WU?$char_traits@_W@std@@V?$allocator@_W@2@@std@@V12@_NV12@V?$shared_ptr@VRefItemV@@@boost@@Unull_type@tuples@4@U564@U564@U564@U564@@tuples@boost@@@0@U_Nonscalar_ptr_iterator_tag@0@@Z 0041b200 f i CheckDoc.obj
 0001:0001a230       ??$sp_pointer_construct@VRefItemV@@V1@@detail@boost@@YAXPAV?$shared_ptr@VRefItemV@@@1@PAVRefItemV@@AAVshared_count@01@@Z 0041b230 f i CheckDoc.obj
 0001:0001a2b0       ??$?0V?$basic_string@_WU?$char_traits@_W@std@@V?$allocator@_W@2@@std@@AAV_variant_t@@@?$pair@V?$basic_string@_WU?$char_traits@_W@std@@V?$allocator@_W@2@@std@@V_variant_t@@@std@@QAE@$$QAV?$basic_string@_WU?$char_traits@_W@std@@V?$allocator@_W@2@@1@AAV_variant_t@@@Z 0041b2b0 f i CheckDoc.obj
 0001:0001a2f0       ??$?0V?$basic_string@_WU?$char_traits@_W@std@@V?$allocator@_W@2@@std@@V_variant_t@@@?$_Pair_base@$$CBV?$basic_string@_WU?$char_traits@_W@std@@V?$allocator@_W@2@@std@@V_variant_t@@@std@@QAE@$$QAV?$basic_string@_WU?$char_traits@_W@std@@V?$allocator@_W@2@@1@$$QAV_variant_t@@@Z 0041b2f0 f i CheckDoc.obj
 0001:0001a2f0       ??$?0V?$basic_string@_WU?$char_traits@_W@std@@V?$allocator@_W@2@@std@@AAV_variant_t@@@?$_Pair_base@V?$basic_string@_WU?$char_traits@_W@std@@V?$allocator@_W@2@@std@@V_variant_t@@@std@@QAE@$$QAV?$basic_string@_WU?$char_traits@_W@std@@V?$allocator@_W@2@@1@AAV_variant_t@@@Z 0041b2f0 f i CheckDoc.obj
 0001:0001a370       ??$_Buynode@U?$pair@$$CBV?$basic_string@_WU?$char_traits@_W@std@@V?$allocator@_W@2@@std@@V12@@std@@@?$_Tree_val@V?$_Tmap_traits@V?$basic_string@_WU?$char_traits@_W@std@@V?$allocator@_W@2@@std@@V12@U?$less@V?$basic_string@_WU?$char_traits@_W@std@@V?$allocator@_W@2@@std@@@2@V?$allocator@U?$pair@$$CBV?$basic_string@_WU?$char_traits@_W@std@@V?$allocator@_W@2@@std@@V12@@std@@@2@$0A@@std@@@std@@QAEPAU_Node@?$_Tree_nod@V?$_Tmap_traits@V?$basic_string@_WU?$char_traits@_W@std@@V?$allocator@_W@2@@std@@V12@U?$less@V?$basic_string@_WU?$char_traits@_W@std@@V?$allocator@_W@2@@std@@@2@V?$allocator@U?$pair@$$CBV?$basic_string@_WU?$char_traits@_W@std@@V?$allocator@_W@2@@std@@V12@@std@@@2@$0A@@std@@@1@$$QAU?$pair@$$CBV?$basic_string@_WU?$char_traits@_W@std@@V?$allocator@_W@2@@std@@V12@@1@@Z 0041b370 f i CheckDoc.obj
 0001:0001a440       ??$_Move@PAV?$shared_ptr@VRefItemV@@@boost@@PAV12@@std@@YAPAV?$shared_ptr@VRefItemV@@@boost@@PAV12@00U_Nonscalar_ptr_iterator_tag@0@@Z 0041b440 f i CheckDoc.obj
 0001:0001a480       ??$_Move@PAV?$tuple@V?$basic_string@_WU?$char_traits@_W@std@@V?$allocator@_W@2@@std@@V12@V12@V?$shared_ptr@VRefItemV@@@boost@@Unull_type@tuples@4@U564@U564@U564@U564@U564@@tuples@boost@@PAV123@@std@@YAPAV?$tuple@V?$basic_string@_WU?$char_traits@_W@std@@V?$allocator@_W@2@@std@@V12@V12@V?$shared_ptr@VRefItemV@@@boost@@Unull_type@tuples@4@U564@U564@U564@U564@U564@@tuples@boost@@PAV123@00U_Nonscalar_ptr_iterator_tag@0@@Z 0041b480 f i CheckDoc.obj
 0001:0001a4c0       ??$_Move@PAV?$tuple@V?$basic_string@_WU?$char_traits@_W@std@@V?$allocator@_W@2@@std@@V12@_NV12@V?$shared_ptr@VRefItemV@@@boost@@Unull_type@tuples@4@U564@U564@U564@U564@@tuples@boost@@PAV123@@std@@YAPAV?$tuple@V?$basic_string@_WU?$char_traits@_W@std@@V?$allocator@_W@2@@std@@V12@_NV12@V?$shared_ptr@VRefItemV@@@boost@@Unull_type@tuples@4@U564@U564@U564@U564@@tuples@boost@@PAV123@00U_Nonscalar_ptr_iterator_tag@0@@Z 0041b4c0 f i CheckDoc.obj
 0001:0001a500       ??$as_literal@V?$basic_string@_WU?$char_traits@_W@std@@V?$allocator@_W@2@@std@@@boost@@YA?AV?$iterator_range@V?$_String_const_iterator@_WU?$char_traits@_W@std@@V?$allocator@_W@2@@std@@@0@ABV?$basic_string@_WU?$char_traits@_W@std@@V?$allocator@_W@2@@std@@@Z 0041b500 f i CheckDoc.obj
 0001:0001a530       ??$?0V?$iterator_range@V?$_String_const_iterator@_WU?$char_traits@_W@std@@V?$allocator@_W@2@@std@@@boost@@@?$is_any_ofF@_W@detail@algorithm@boost@@QAE@ABV?$iterator_range@V?$_String_const_iterator@_WU?$char_traits@_W@std@@V?$allocator@_W@2@@std@@@3@@Z 0041b530 f i CheckDoc.obj
 0001:0001a610       ??$begin@V?$basic_string@_WU?$char_traits@_W@std@@V?$allocator@_W@2@@std@@@range_adl_barrier@boost@@YA?AV?$_String_iterator@_WU?$char_traits@_W@std@@V?$allocator@_W@2@@std@@AAV?$basic_string@_WU?$char_traits@_W@std@@V?$allocator@_W@2@@3@@Z 0041b610 f i CheckDoc.obj
 0001:0001a630       ??$end@V?$basic_string@_WU?$char_traits@_W@std@@V?$allocator@_W@2@@std@@@range_adl_barrier@boost@@YA?AV?$_String_iterator@_WU?$char_traits@_W@std@@V?$allocator@_W@2@@std@@AAV?$basic_string@_WU?$char_traits@_W@std@@V?$allocator@_W@2@@3@@Z 0041b630 f i CheckDoc.obj
 0001:0001a650       ??$trim_end@V?$_String_iterator@_WU?$char_traits@_W@std@@V?$allocator@_W@2@@std@@U?$is_any_ofF@_W@detail@algorithm@boost@@@detail@algorithm@boost@@YA?AV?$_String_iterator@_WU?$char_traits@_W@std@@V?$allocator@_W@2@@std@@V34@0U?$is_any_ofF@_W@012@@Z 0041b650 f i CheckDoc.obj
 0001:0001a6d0       ??$_Buynode@U?$pair@V?$basic_string@_WU?$char_traits@_W@std@@V?$allocator@_W@2@@std@@V12@@std@@@?$_Tree_val@V?$_Tmap_traits@V?$basic_string@_WU?$char_traits@_W@std@@V?$allocator@_W@2@@std@@V12@U?$less@V?$basic_string@_WU?$char_traits@_W@std@@V?$allocator@_W@2@@std@@@2@V?$allocator@U?$pair@$$CBV?$basic_string@_WU?$char_traits@_W@std@@V?$allocator@_W@2@@std@@V12@@std@@@2@$0A@@std@@@std@@QAEPAU_Node@?$_Tree_nod@V?$_Tmap_traits@V?$basic_string@_WU?$char_traits@_W@std@@V?$allocator@_W@2@@std@@V12@U?$less@V?$basic_string@_WU?$char_traits@_W@std@@V?$allocator@_W@2@@std@@@2@V?$allocator@U?$pair@$$CBV?$basic_string@_WU?$char_traits@_W@std@@V?$allocator@_W@2@@std@@V12@@std@@@2@$0A@@std@@@1@$$QAU?$pair@V?$basic_string@_WU?$char_traits@_W@std@@V?$allocator@_W@2@@std@@V12@@1@@Z 0041b6d0 f i CheckDoc.obj
 0001:0001a7a0       ??$_Uninitialized_move@PAV?$shared_ptr@VRefItemV@@@boost@@PAV12@V?$allocator@V?$shared_ptr@VRefItemV@@@boost@@@std@@@std@@YAPAV?$shared_ptr@VRefItemV@@@boost@@PAV12@00AAV?$allocator@V?$shared_ptr@VRefItemV@@@boost@@@0@@Z 0041b7a0 f i CheckDoc.obj
 0001:0001a7f0       ?IsSlave@Employees@@SA?B_NXZ 0041b7f0 f i DlgLogin.obj
 0001:0001a7f0       ??$?8_W_W@std@@YA_NABV?$allocator@_W@0@0@Z 0041b7f0 f i CheckDoc.obj
 0001:0001a7f0       ??$?8U?$pair@$$CBV?$basic_string@_WU?$char_traits@_W@std@@V?$allocator@_W@2@@std@@V12@@std@@U01@@std@@YA_NABV?$allocator@U?$pair@$$CBV?$basic_string@_WU?$char_traits@_W@std@@V?$allocator@_W@2@@std@@V12@@std@@@0@0@Z 0041b7f0 f i CheckDoc.obj
 0001:0001a800       ??$swap@U?$less@V?$basic_string@_WU?$char_traits@_W@std@@V?$allocator@_W@2@@std@@@std@@@std@@YAXAAU?$less@V?$basic_string@_WU?$char_traits@_W@std@@V?$allocator@_W@2@@std@@@0@0@Z 0041b800 f i CheckDoc.obj
 0001:0001a830       ??$_Cons_val@V?$allocator@U?$pair@$$CBV?$basic_string@_WU?$char_traits@_W@std@@V?$allocator@_W@2@@std@@V12@@std@@@std@@U?$pair@$$CBV?$basic_string@_WU?$char_traits@_W@std@@V?$allocator@_W@2@@std@@V12@@2@AAU32@@std@@YAXAAV?$allocator@U?$pair@$$CBV?$basic_string@_WU?$char_traits@_W@std@@V?$allocator@_W@2@@std@@V12@@std@@@0@PAU?$pair@$$CBV?$basic_string@_WU?$char_traits@_W@std@@V?$allocator@_W@2@@std@@V12@@0@AAU20@@Z 0041b830 f i CheckDoc.obj
 0001:0001a850       ??$_Construct@U?$pair@$$CBV?$basic_string@_WU?$char_traits@_W@std@@V?$allocator@_W@2@@std@@V_variant_t@@@std@@ABU12@@std@@YAXPAU?$pair@$$CBV?$basic_string@_WU?$char_traits@_W@std@@V?$allocator@_W@2@@std@@V_variant_t@@@0@ABU10@@Z 0041b850 f i CheckDoc.obj
 0001:0001a8e0       ??$_Destroy@U?$pair@$$CBV?$basic_string@_WU?$char_traits@_W@std@@V?$allocator@_W@2@@std@@V_variant_t@@@std@@@std@@YAXPAU?$pair@$$CBV?$basic_string@_WU?$char_traits@_W@std@@V?$allocator@_W@2@@std@@V_variant_t@@@0@@Z 0041b8e0 f i CheckDoc.obj
 0001:0001a8f0       ??$_Destroy@U?$pair@$$CBV?$basic_string@_WU?$char_traits@_W@std@@V?$allocator@_W@2@@std@@V12@@std@@@std@@YAXPAU?$pair@$$CBV?$basic_string@_WU?$char_traits@_W@std@@V?$allocator@_W@2@@std@@V12@@0@@Z 0041b8f0 f i CheckDoc.obj
 0001:0001a900       ??$_Construct@V?$shared_ptr@VRefItemV@@@boost@@ABV12@@std@@YAXPAV?$shared_ptr@VRefItemV@@@boost@@ABV12@@Z 0041b900 f i CheckDoc.obj
 0001:0001a990       ??$_Construct@USalesItemLine@CCheckDoc@@ABU12@@std@@YAXPAUSalesItemLine@CCheckDoc@@ABU12@@Z 0041b990 f i CheckDoc.obj
 0001:0001aa20       ??$_Destroy@U_Node@?$_List_nod@USalesItemLine@CCheckDoc@@V?$allocator@USalesItemLine@CCheckDoc@@@std@@@std@@@std@@YAXPAU_Node@?$_List_nod@USalesItemLine@CCheckDoc@@V?$allocator@USalesItemLine@CCheckDoc@@@std@@@0@@Z 0041ba20 f i CheckDoc.obj
 0001:0001aa30       ??0is_classifiedF@detail@algorithm@boost@@QAE@ABU0123@@Z 0041ba30 f i CheckDoc.obj
 0001:0001aa60       ??4?$tuple@V?$basic_string@_WU?$char_traits@_W@std@@V?$allocator@_W@2@@std@@V12@V12@V?$shared_ptr@VRefItemV@@@boost@@Unull_type@tuples@4@U564@U564@U564@U564@U564@@tuples@boost@@QAEAAV012@ABV012@@Z 0041ba60 f i CheckDoc.obj
 0001:0001aa80       ??4?$tuple@V?$basic_string@_WU?$char_traits@_W@std@@V?$allocator@_W@2@@std@@V12@_NV12@V?$shared_ptr@VRefItemV@@@boost@@Unull_type@tuples@4@U564@U564@U564@U564@@tuples@boost@@QAEAAV012@ABV012@@Z 0041ba80 f i CheckDoc.obj
 0001:0001aaa0       ??0?$pair@$$CBV?$basic_string@_WU?$char_traits@_W@std@@V?$allocator@_W@2@@std@@V_variant_t@@@std@@QAE@ABU01@@Z 0041baa0 f i CheckDoc.obj
 0001:0001aac0       ??_G?$pair@$$CBV?$basic_string@_WU?$char_traits@_W@std@@V?$allocator@_W@2@@std@@V_variant_t@@@std@@QAEPAXI@Z 0041bac0 f i CheckDoc.obj
 0001:0001aaf0       ??_G?$pair@$$CBV?$basic_string@_WU?$char_traits@_W@std@@V?$allocator@_W@2@@std@@V12@@std@@QAEPAXI@Z 0041baf0 f i CheckDoc.obj
 0001:0001ab20       ??_G_Node@?$_List_nod@USalesItemLine@CCheckDoc@@V?$allocator@USalesItemLine@CCheckDoc@@@std@@@std@@QAEPAXI@Z 0041bb20 f i CheckDoc.obj
 0001:0001ab50       ??1_Node@?$_List_nod@USalesItemLine@CCheckDoc@@V?$allocator@USalesItemLine@CCheckDoc@@@std@@@std@@QAE@XZ 0041bb50 f i CheckDoc.obj
 0001:0001ab70       ??4?$shared_ptr@VRefItemV@@@boost@@QAEAAV01@$$QAV01@@Z 0041bb70 f i CheckDoc.obj
 0001:0001ab70       ??4?$shared_ptr@VDbContext@@@boost@@QAEAAV01@$$QAV01@@Z 0041bb70 f i UserThreads.obj
 0001:0001abf0       ??0?$_Pair_base@$$CBV?$basic_string@_WU?$char_traits@_W@std@@V?$allocator@_W@2@@std@@V_variant_t@@@std@@QAE@ABU01@@Z 0041bbf0 f i CheckDoc.obj
 0001:0001ac60       ?_Rechecked@?$_String_iterator@_WU?$char_traits@_W@std@@V?$allocator@_W@2@@std@@QAEAAV12@PA_W@Z 0041bc60 f i DlgFindAll.obj
 0001:0001ac60       ?_Rechecked@?$_Vector_const_iterator@V?$_Vector_val@V?$tuple@V?$basic_string@_WU?$char_traits@_W@std@@V?$allocator@_W@2@@std@@V12@V12@V?$shared_ptr@VRefItemV@@@boost@@Unull_type@tuples@4@U564@U564@U564@U564@U564@@tuples@boost@@V?$allocator@V?$tuple@V?$basic_string@_WU?$char_traits@_W@std@@V?$allocator@_W@2@@std@@V12@V12@V?$shared_ptr@VRefItemV@@@boost@@Unull_type@tuples@4@U564@U564@U564@U564@U564@@tuples@boost@@@std@@@std@@@std@@QAEAAV12@PBV?$tuple@V?$basic_string@_WU?$char_traits@_W@std@@V?$allocator@_W@2@@std@@V12@V12@V?$shared_ptr@VRefItemV@@@boost@@Unull_type@tuples@4@U564@U564@U564@U564@U564@@tuples@boost@@@Z 0041bc60 f i CheckDoc.obj
 0001:0001ac60       ?_Rechecked@?$_List_iterator@V?$_List_val@USalesItemLine@CCheckDoc@@V?$allocator@USalesItemLine@CCheckDoc@@@std@@@std@@@std@@QAEAAV12@V?$_List_unchecked_iterator@V?$_List_val@USalesItemLine@CCheckDoc@@V?$allocator@USalesItemLine@CCheckDoc@@@std@@@std@@@2@@Z 0041bc60 f i CheckDoc.obj
 0001:0001ac60       ??0<lambda0>@?A0x196621b3@@QAE@AAVCOutputList@@@Z 0041bc60 f i OutputWnd.obj
 0001:0001ac60       ??0<lambda1>@?A0x13b243aa@@QAE@ABUSalesItemLine@CCheckDoc@@@Z 0041bc60 f i CheckDoc.obj
 0001:0001ac60       ?_Rechecked@?$_Vector_const_iterator@V?$_Vector_val@V?$tuple@V?$basic_string@_WU?$char_traits@_W@std@@V?$allocator@_W@2@@std@@V12@_NV12@V?$shared_ptr@VRefItemV@@@boost@@Unull_type@tuples@4@U564@U564@U564@U564@@tuples@boost@@V?$allocator@V?$tuple@V?$basic_string@_WU?$char_traits@_W@std@@V?$allocator@_W@2@@std@@V12@_NV12@V?$shared_ptr@VRefItemV@@@boost@@Unull_type@tuples@4@U564@U564@U564@U564@@tuples@boost@@@std@@@std@@@std@@QAEAAV12@PBV?$tuple@V?$basic_string@_WU?$char_traits@_W@std@@V?$allocator@_W@2@@std@@V12@_NV12@V?$shared_ptr@VRefItemV@@@boost@@Unull_type@tuples@4@U564@U564@U564@U564@@tuples@boost@@@Z 0041bc60 f i CheckDoc.obj
 0001:0001ac60       ??0<lambda0>@?A0x12bc0d92@@QAE@AAM@Z 0041bc60 f i CashPrinter.obj
 0001:0001ac60       ?_Rechecked@?$_Vector_iterator@V?$_Vector_val@V?$tuple@V?$basic_string@_WU?$char_traits@_W@std@@V?$allocator@_W@2@@std@@V12@V12@V?$shared_ptr@VRefItemV@@@boost@@Unull_type@tuples@4@U564@U564@U564@U564@U564@@tuples@boost@@V?$allocator@V?$tuple@V?$basic_string@_WU?$char_traits@_W@std@@V?$allocator@_W@2@@std@@V12@V12@V?$shared_ptr@VRefItemV@@@boost@@Unull_type@tuples@4@U564@U564@U564@U564@U564@@tuples@boost@@@std@@@std@@@std@@QAEAAV12@PAV?$tuple@V?$basic_string@_WU?$char_traits@_W@std@@V?$allocator@_W@2@@std@@V12@V12@V?$shared_ptr@VRefItemV@@@boost@@Unull_type@tuples@4@U564@U564@U564@U564@U564@@tuples@boost@@@Z 0041bc60 f i DlgInsert.obj
 0001:0001ac60       ?_Rechecked@?$_Vector_iterator@V?$_Vector_val@V?$tuple@V?$basic_string@_WU?$char_traits@_W@std@@V?$allocator@_W@2@@std@@V12@_NV12@V?$shared_ptr@VRefItemV@@@boost@@Unull_type@tuples@4@U564@U564@U564@U564@@tuples@boost@@V?$allocator@V?$tuple@V?$basic_string@_WU?$char_traits@_W@std@@V?$allocator@_W@2@@std@@V12@_NV12@V?$shared_ptr@VRefItemV@@@boost@@Unull_type@tuples@4@U564@U564@U564@U564@@tuples@boost@@@std@@@std@@@std@@QAEAAV12@PAV?$tuple@V?$basic_string@_WU?$char_traits@_W@std@@V?$allocator@_W@2@@std@@V12@_NV12@V?$shared_ptr@VRefItemV@@@boost@@Unull_type@tuples@4@U564@U564@U564@U564@@tuples@boost@@@Z 0041bc60 f i DlgFindAll.obj
 0001:0001ac60       ??0<lambda0>@?A0xeae14d46@@QAE@AAVCTreeCtrl@@@Z 0041bc60 f i SuperTree.obj
 0001:0001ac80       ??4?$cons@V?$basic_string@_WU?$char_traits@_W@std@@V?$allocator@_W@2@@std@@U?$cons@V?$basic_string@_WU?$char_traits@_W@std@@V?$allocator@_W@2@@std@@U?$cons@_NU?$cons@V?$basic_string@_WU?$char_traits@_W@std@@V?$allocator@_W@2@@std@@U?$cons@V?$shared_ptr@VRefItemV@@@boost@@Unull_type@tuples@2@@tuples@boost@@@tuples@boost@@@tuples@boost@@@tuples@boost@@@tuples@boost@@QAEAAU012@ABU012@@Z 0041bc80 f i CheckDoc.obj
 0001:0001acb0       ?call@?$apply@U?$cons@V?$basic_string@_WU?$char_traits@_W@std@@V?$allocator@_W@2@@std@@U?$cons@V?$basic_string@_WU?$char_traits@_W@std@@V?$allocator@_W@2@@std@@U?$cons@_NU?$cons@V?$basic_string@_WU?$char_traits@_W@std@@V?$allocator@_W@2@@std@@U?$cons@V?$shared_ptr@VRefItemV@@@boost@@Unull_type@tuples@2@@tuples@boost@@@tuples@boost@@@tuples@boost@@@tuples@boost@@@tuples@boost@@@?$drop_front@$03@detail@tuples@boost@@SAABU?$cons@V?$shared_ptr@VRefItemV@@@boost@@Unull_type@tuples@2@@45@ABU?$cons@V?$basic_string@_WU?$char_traits@_W@std@@V?$allocator@_W@2@@std@@U?$cons@V?$basic_string@_WU?$char_traits@_W@std@@V?$allocator@_W@2@@std@@U?$cons@_NU?$cons@V?$basic_string@_WU?$char_traits@_W@std@@V?$allocator@_W@2@@std@@U?$cons@V?$shared_ptr@VRefItemV@@@boost@@Unull_type@tuples@2@@tuples@boost@@@tuples@boost@@@tuples@boost@@@tuples@boost@@@45@@Z 0041bcb0 f i CheckDoc.obj
 0001:0001acd0       ??4?$cons@V?$basic_string@_WU?$char_traits@_W@std@@V?$allocator@_W@2@@std@@U?$cons@V?$basic_string@_WU?$char_traits@_W@std@@V?$allocator@_W@2@@std@@U?$cons@V?$basic_string@_WU?$char_traits@_W@std@@V?$allocator@_W@2@@std@@U?$cons@V?$shared_ptr@VRefItemV@@@boost@@Unull_type@tuples@2@@tuples@boost@@@tuples@boost@@@tuples@boost@@@tuples@boost@@QAEAAU012@ABU012@@Z 0041bcd0 f i CheckDoc.obj
 0001:0001ad00       ?call@?$apply@U?$cons@V?$basic_string@_WU?$char_traits@_W@std@@V?$allocator@_W@2@@std@@U?$cons@V?$basic_string@_WU?$char_traits@_W@std@@V?$allocator@_W@2@@std@@U?$cons@V?$basic_string@_WU?$char_traits@_W@std@@V?$allocator@_W@2@@std@@U?$cons@V?$shared_ptr@VRefItemV@@@boost@@Unull_type@tuples@2@@tuples@boost@@@tuples@boost@@@tuples@boost@@@tuples@boost@@@?$drop_front@$02@detail@tuples@boost@@SAABU?$cons@V?$shared_ptr@VRefItemV@@@boost@@Unull_type@tuples@2@@45@ABU?$cons@V?$basic_string@_WU?$char_traits@_W@std@@V?$allocator@_W@2@@std@@U?$cons@V?$basic_string@_WU?$char_traits@_W@std@@V?$allocator@_W@2@@std@@U?$cons@V?$basic_string@_WU?$char_traits@_W@std@@V?$allocator@_W@2@@std@@U?$cons@V?$shared_ptr@VRefItemV@@@boost@@Unull_type@tuples@2@@tuples@boost@@@tuples@boost@@@tuples@boost@@@45@@Z 0041bd00 f i CheckDoc.obj
 0001:0001ad00       ?call@?$apply@U?$cons@V?$basic_string@_WU?$char_traits@_W@std@@V?$allocator@_W@2@@std@@U?$cons@V?$basic_string@_WU?$char_traits@_W@std@@V?$allocator@_W@2@@std@@U?$cons@V?$basic_string@_WU?$char_traits@_W@std@@V?$allocator@_W@2@@std@@U?$cons@V?$basic_string@_WU?$char_traits@_W@std@@V?$allocator@_W@2@@std@@Unull_type@tuples@boost@@@tuples@boost@@@tuples@boost@@@tuples@boost@@@tuples@boost@@@?$drop_front@$02@detail@tuples@boost@@SAABU?$cons@V?$basic_string@_WU?$char_traits@_W@std@@V?$allocator@_W@2@@std@@Unull_type@tuples@boost@@@45@ABU?$cons@V?$basic_string@_WU?$char_traits@_W@std@@V?$allocator@_W@2@@std@@U?$cons@V?$basic_string@_WU?$char_traits@_W@std@@V?$allocator@_W@2@@std@@U?$cons@V?$basic_string@_WU?$char_traits@_W@std@@V?$allocator@_W@2@@std@@U?$cons@V?$basic_string@_WU?$char_traits@_W@std@@V?$allocator@_W@2@@std@@Unull_type@tuples@boost@@@tuples@boost@@@tuples@boost@@@tuples@boost@@@45@@Z 0041bd00 f i DlgInsert.obj
 0001:0001ad20       ??D?$_List_unchecked_iterator@V?$_List_val@USalesItemLine@CCheckDoc@@V?$allocator@USalesItemLine@CCheckDoc@@@std@@@std@@@std@@QBEAAUSalesItemLine@CCheckDoc@@XZ 0041bd20 f i CheckDoc.obj
 0001:0001ad20       ??D?$_List_iterator@V?$_List_val@USalesItemLine@CCheckDoc@@V?$allocator@USalesItemLine@CCheckDoc@@@std@@@std@@@std@@QBEAAUSalesItemLine@CCheckDoc@@XZ 0041bd20 f i CheckDoc.obj
 0001:0001ad20       ??C?$_List_unchecked_const_iterator@V?$_List_val@USalesItemLine@CCheckDoc@@V?$allocator@USalesItemLine@CCheckDoc@@@std@@@std@@U_Iterator_base0@2@@std@@QBEPBUSalesItemLine@CCheckDoc@@XZ 0041bd20 f i CheckDoc.obj
 0001:0001ad40       ??E?$_List_unchecked_iterator@V?$_List_val@USalesItemLine@CCheckDoc@@V?$allocator@USalesItemLine@CCheckDoc@@@std@@@std@@@std@@QAEAAV01@XZ 0041bd40 f i CheckDoc.obj
 0001:0001ad60       ??0?$sp_counted_impl_pd@PAU_Recordset@@VRecordsetDeleter@DbContext@@@detail@boost@@QAE@PAU_Recordset@@AAVRecordsetDeleter@DbContext@@@Z 0041bd60 f i CheckDoc.obj
 0001:0001ade0       ??0sp_counted_base@detail@boost@@QAE@XZ 0041bde0 f i CheckDoc.obj
 0001:0001ae10       ??1sp_counted_base@detail@boost@@UAE@XZ 0041be10 f i CheckDoc.obj
 0001:0001ae30       ?destroy@sp_counted_base@detail@boost@@UAEXXZ 0041be30 f i CheckDoc.obj
 0001:0001ae70       ??_Esp_counted_base@detail@boost@@UAEPAXI@Z 0041be70 f i CheckDoc.obj
 0001:0001ae70       ??_Gsp_counted_base@detail@boost@@UAEPAXI@Z 0041be70 f i CheckDoc.obj
 0001:0001aea0       ?dispose@?$sp_counted_impl_pd@PAU_Recordset@@VRecordsetDeleter@DbContext@@@detail@boost@@UAEXXZ 0041bea0 f i CheckDoc.obj
 0001:0001aec0       ?get_deleter@?$sp_counted_impl_pd@PAU_Recordset@@VRecordsetDeleter@DbContext@@@detail@boost@@UAEPAXABVtype_info@@@Z 0041bec0 f i CheckDoc.obj
 0001:0001af00       ??_G?$sp_counted_impl_pd@PAU_Recordset@@VRecordsetDeleter@DbContext@@@detail@boost@@UAEPAXI@Z 0041bf00 f i CheckDoc.obj
 0001:0001af00       ??_E?$sp_counted_impl_pd@PAU_Recordset@@VRecordsetDeleter@DbContext@@@detail@boost@@UAEPAXI@Z 0041bf00 f i CheckDoc.obj
 0001:0001af30       ??1?$sp_counted_impl_pd@PAU_Recordset@@VRecordsetDeleter@DbContext@@@detail@boost@@UAE@XZ 0041bf30 f i CheckDoc.obj
 0001:0001af90       ??4?$cons@V?$basic_string@_WU?$char_traits@_W@std@@V?$allocator@_W@2@@std@@U?$cons@_NU?$cons@V?$basic_string@_WU?$char_traits@_W@std@@V?$allocator@_W@2@@std@@U?$cons@V?$shared_ptr@VRefItemV@@@boost@@Unull_type@tuples@2@@tuples@boost@@@tuples@boost@@@tuples@boost@@@tuples@boost@@QAEAAU012@ABU012@@Z 0041bf90 f i CheckDoc.obj
 0001:0001afc0       ?call@?$apply@U?$cons@V?$basic_string@_WU?$char_traits@_W@std@@V?$allocator@_W@2@@std@@U?$cons@V?$basic_string@_WU?$char_traits@_W@std@@V?$allocator@_W@2@@std@@U?$cons@_NU?$cons@V?$basic_string@_WU?$char_traits@_W@std@@V?$allocator@_W@2@@std@@U?$cons@V?$shared_ptr@VRefItemV@@@boost@@Unull_type@tuples@2@@tuples@boost@@@tuples@boost@@@tuples@boost@@@tuples@boost@@@tuples@boost@@@?$drop_front@$02@detail@tuples@boost@@SAABU?$cons@V?$basic_string@_WU?$char_traits@_W@std@@V?$allocator@_W@2@@std@@U?$cons@V?$shared_ptr@VRefItemV@@@boost@@Unull_type@tuples@2@@tuples@boost@@@45@ABU?$cons@V?$basic_string@_WU?$char_traits@_W@std@@V?$allocator@_W@2@@std@@U?$cons@V?$basic_string@_WU?$char_traits@_W@std@@V?$allocator@_W@2@@std@@U?$cons@_NU?$cons@V?$basic_string@_WU?$char_traits@_W@std@@V?$allocator@_W@2@@std@@U?$cons@V?$shared_ptr@VRefItemV@@@boost@@Unull_type@tuples@2@@tuples@boost@@@tuples@boost@@@tuples@boost@@@tuples@boost@@@45@@Z 0041bfc0 f i CheckDoc.obj
 0001:0001afe0       ??4?$cons@V?$basic_string@_WU?$char_traits@_W@std@@V?$allocator@_W@2@@std@@U?$cons@V?$basic_string@_WU?$char_traits@_W@std@@V?$allocator@_W@2@@std@@U?$cons@V?$shared_ptr@VRefItemV@@@boost@@Unull_type@tuples@2@@tuples@boost@@@tuples@boost@@@tuples@boost@@QAEAAU012@ABU012@@Z 0041bfe0 f i CheckDoc.obj
 0001:0001b010       ??4?$cons@_NU?$cons@V?$basic_string@_WU?$char_traits@_W@std@@V?$allocator@_W@2@@std@@U?$cons@V?$shared_ptr@VRefItemV@@@boost@@Unull_type@tuples@2@@tuples@boost@@@tuples@boost@@@tuples@boost@@QAEAAU012@ABU012@@Z 0041c010 f i CheckDoc.obj
 0001:0001b040       ??4?$cons@V?$basic_string@_WU?$char_traits@_W@std@@V?$allocator@_W@2@@std@@U?$cons@V?$shared_ptr@VRefItemV@@@boost@@Unull_type@tuples@2@@tuples@boost@@@tuples@boost@@QAEAAU012@ABU012@@Z 0041c040 f i CheckDoc.obj
 0001:0001b070       ??4?$cons@V?$shared_ptr@VRefItemV@@@boost@@Unull_type@tuples@2@@tuples@boost@@QAEAAU012@ABU012@@Z 0041c070 f i CheckDoc.obj
 0001:0001b090       ??$?0V?$HierarchyReference@UProducts@@@@@shared_count@detail@boost@@QAE@PAV?$HierarchyReference@UProducts@@@@@Z 0041c090 f i CheckDoc.obj
 0001:0001b160       ??$?0V?$SlaveReference@UUnits@@UProducts@@@@@shared_count@detail@boost@@QAE@PAV?$SlaveReference@UUnits@@UProducts@@@@@Z 0041c160 f i CheckDoc.obj
 0001:0001b230       ??$?0V?$SlaveReference@UPrices@@UProducts@@@@@shared_count@detail@boost@@QAE@PAV?$SlaveReference@UPrices@@UProducts@@@@@Z 0041c230 f i CheckDoc.obj
 0001:0001b300       ??$trim_right_if@V?$basic_string@_WU?$char_traits@_W@std@@V?$allocator@_W@2@@std@@Uis_classifiedF@detail@algorithm@boost@@@algorithm@boost@@YAXAAV?$basic_string@_WU?$char_traits@_W@std@@V?$allocator@_W@2@@std@@Uis_classifiedF@detail@01@@Z 0041c300 f i CheckDoc.obj
 0001:0001b3e0       ??$trim_left_if@V?$basic_string@_WU?$char_traits@_W@std@@V?$allocator@_W@2@@std@@Uis_classifiedF@detail@algorithm@boost@@@algorithm@boost@@YAXAAV?$basic_string@_WU?$char_traits@_W@std@@V?$allocator@_W@2@@std@@Uis_classifiedF@detail@01@@Z 0041c3e0 f i CheckDoc.obj
 0001:0001b4c0       ??$?0PAVRefItemV@@V?$sp_ms_deleter@VRefItemV@@@detail@boost@@@shared_count@detail@boost@@QAE@PAVRefItemV@@U?$sp_inplace_tag@V?$sp_ms_deleter@VRefItemV@@@detail@boost@@@12@@Z 0041c4c0 f i CheckDoc.obj
 0001:0001b590       ??$_Uninit_copy@PAV?$shared_ptr@VRefItemV@@@boost@@PAV12@V?$allocator@V?$shared_ptr@VRefItemV@@@boost@@@std@@@std@@YAPAV?$shared_ptr@VRefItemV@@@boost@@PAV12@00AAV?$allocator@V?$shared_ptr@VRefItemV@@@boost@@@0@U_Nonscalar_ptr_iterator_tag@0@@Z 0041c590 f i CheckDoc.obj
 0001:0001b660       ??$_Uninit_move@PAV?$tuple@V?$basic_string@_WU?$char_traits@_W@std@@V?$allocator@_W@2@@std@@V12@V12@V?$shared_ptr@VRefItemV@@@boost@@Unull_type@tuples@4@U564@U564@U564@U564@U564@@tuples@boost@@PAV123@V?$allocator@V?$tuple@V?$basic_string@_WU?$char_traits@_W@std@@V?$allocator@_W@2@@std@@V12@V12@V?$shared_ptr@VRefItemV@@@boost@@Unull_type@tuples@4@U564@U564@U564@U564@U564@@tuples@boost@@@std@@V123@@std@@YAPAV?$tuple@V?$basic_string@_WU?$char_traits@_W@std@@V?$allocator@_W@2@@std@@V12@V12@V?$shared_ptr@VRefItemV@@@boost@@Unull_type@tuples@4@U564@U564@U564@U564@U564@@tuples@boost@@PAV123@00AAV?$allocator@V?$tuple@V?$basic_string@_WU?$char_traits@_W@std@@V?$allocator@_W@2@@std@@V12@V12@V?$shared_ptr@VRefItemV@@@boost@@Unull_type@tuples@4@U564@U564@U564@U564@U564@@tuples@boost@@@0@0U_Nonscalar_ptr_iterator_tag@0@@Z 0041c660 f i Repository.obj
 0001:0001b660       ??$_Uninit_copy@PAV?$tuple@V?$basic_string@_WU?$char_traits@_W@std@@V?$allocator@_W@2@@std@@V12@V12@V?$shared_ptr@VRefItemV@@@boost@@Unull_type@tuples@4@U564@U564@U564@U564@U564@@tuples@boost@@PAV123@V?$allocator@V?$tuple@V?$basic_string@_WU?$char_traits@_W@std@@V?$allocator@_W@2@@std@@V12@V12@V?$shared_ptr@VRefItemV@@@boost@@Unull_type@tuples@4@U564@U564@U564@U564@U564@@tuples@boost@@@std@@@std@@YAPAV?$tuple@V?$basic_string@_WU?$char_traits@_W@std@@V?$allocator@_W@2@@std@@V12@V12@V?$shared_ptr@VRefItemV@@@boost@@Unull_type@tuples@4@U564@U564@U564@U564@U564@@tuples@boost@@PAV123@00AAV?$allocator@V?$tuple@V?$basic_string@_WU?$char_traits@_W@std@@V?$allocator@_W@2@@std@@V12@V12@V?$shared_ptr@VRefItemV@@@boost@@Unull_type@tuples@4@U564@U564@U564@U564@U564@@tuples@boost@@@0@U_Nonscalar_ptr_iterator_tag@0@@Z 0041c660 f i CheckDoc.obj
 0001:0001b730       ??$_Uninit_move@PAV?$tuple@V?$basic_string@_WU?$char_traits@_W@std@@V?$allocator@_W@2@@std@@V12@_NV12@V?$shared_ptr@VRefItemV@@@boost@@Unull_type@tuples@4@U564@U564@U564@U564@@tuples@boost@@PAV123@V?$allocator@V?$tuple@V?$basic_string@_WU?$char_traits@_W@std@@V?$allocator@_W@2@@std@@V12@_NV12@V?$shared_ptr@VRefItemV@@@boost@@Unull_type@tuples@4@U564@U564@U564@U564@@tuples@boost@@@std@@V123@@std@@YAPAV?$tuple@V?$basic_string@_WU?$char_traits@_W@std@@V?$allocator@_W@2@@std@@V12@_NV12@V?$shared_ptr@VRefItemV@@@boost@@Unull_type@tuples@4@U564@U564@U564@U564@@tuples@boost@@PAV123@00AAV?$allocator@V?$tuple@V?$basic_string@_WU?$char_traits@_W@std@@V?$allocator@_W@2@@std@@V12@_NV12@V?$shared_ptr@VRefItemV@@@boost@@Unull_type@tuples@4@U564@U564@U564@U564@@tuples@boost@@@0@0U_Nonscalar_ptr_iterator_tag@0@@Z 0041c730 f i Repository.obj
 0001:0001b730       ??$_Uninit_copy@PAV?$tuple@V?$basic_string@_WU?$char_traits@_W@std@@V?$allocator@_W@2@@std@@V12@_NV12@V?$shared_ptr@VRefItemV@@@boost@@Unull_type@tuples@4@U564@U564@U564@U564@@tuples@boost@@PAV123@V?$allocator@V?$tuple@V?$basic_string@_WU?$char_traits@_W@std@@V?$allocator@_W@2@@std@@V12@_NV12@V?$shared_ptr@VRefItemV@@@boost@@Unull_type@tuples@4@U564@U564@U564@U564@@tuples@boost@@@std@@@std@@YAPAV?$tuple@V?$basic_string@_WU?$char_traits@_W@std@@V?$allocator@_W@2@@std@@V12@_NV12@V?$shared_ptr@VRefItemV@@@boost@@Unull_type@tuples@4@U564@U564@U564@U564@@tuples@boost@@PAV123@00AAV?$allocator@V?$tuple@V?$basic_string@_WU?$char_traits@_W@std@@V?$allocator@_W@2@@std@@V12@_NV12@V?$shared_ptr@VRefItemV@@@boost@@Unull_type@tuples@4@U564@U564@U564@U564@@tuples@boost@@@0@U_Nonscalar_ptr_iterator_tag@0@@Z 0041c730 f i CheckDoc.obj
 0001:0001b800       ??$_Dest_val@V?$allocator@V?$shared_ptr@VRefItemV@@@boost@@@std@@V?$shared_ptr@VRefItemV@@@boost@@@std@@YAXAAV?$allocator@V?$shared_ptr@VRefItemV@@@boost@@@0@PAV?$shared_ptr@VRefItemV@@@boost@@@Z 0041c800 f i CheckDoc.obj
 0001:0001b820       ??$_Dest_val@V?$allocator@V?$tuple@V?$basic_string@_WU?$char_traits@_W@std@@V?$allocator@_W@2@@std@@V12@V12@V?$shared_ptr@VRefItemV@@@boost@@Unull_type@tuples@4@U564@U564@U564@U564@U564@@tuples@boost@@@std@@V?$tuple@V?$basic_string@_WU?$char_traits@_W@std@@V?$allocator@_W@2@@std@@V12@V12@V?$shared_ptr@VRefItemV@@@boost@@Unull_type@tuples@4@U564@U564@U564@U564@U564@@tuples@boost@@@std@@YAXAAV?$allocator@V?$tuple@V?$basic_string@_WU?$char_traits@_W@std@@V?$allocator@_W@2@@std@@V12@V12@V?$shared_ptr@VRefItemV@@@boost@@Unull_type@tuples@4@U564@U564@U564@U564@U564@@tuples@boost@@@0@PAV?$tuple@V?$basic_string@_WU?$char_traits@_W@std@@V?$allocator@_W@2@@std@@V12@V12@V?$shared_ptr@VRefItemV@@@boost@@Unull_type@tuples@4@U564@U564@U564@U564@U564@@tuples@boost@@@Z 0041c820 f i CheckDoc.obj
 0001:0001b840       ??$_Dest_val@V?$allocator@V?$tuple@V?$basic_string@_WU?$char_traits@_W@std@@V?$allocator@_W@2@@std@@V12@_NV12@V?$shared_ptr@VRefItemV@@@boost@@Unull_type@tuples@4@U564@U564@U564@U564@@tuples@boost@@@std@@V?$tuple@V?$basic_string@_WU?$char_traits@_W@std@@V?$allocator@_W@2@@std@@V12@_NV12@V?$shared_ptr@VRefItemV@@@boost@@Unull_type@tuples@4@U564@U564@U564@U564@@tuples@boost@@@std@@YAXAAV?$allocator@V?$tuple@V?$basic_string@_WU?$char_traits@_W@std@@V?$allocator@_W@2@@std@@V12@_NV12@V?$shared_ptr@VRefItemV@@@boost@@Unull_type@tuples@4@U564@U564@U564@U564@@tuples@boost@@@0@PAV?$tuple@V?$basic_string@_WU?$char_traits@_W@std@@V?$allocator@_W@2@@std@@V12@_NV12@V?$shared_ptr@VRefItemV@@@boost@@Unull_type@tuples@4@U564@U564@U564@U564@@tuples@boost@@@Z 0041c840 f i CheckDoc.obj
 0001:0001b860       ??$?0VRefItemV@@@shared_count@detail@boost@@QAE@PAVRefItemV@@@Z 0041c860 f i CheckDoc.obj
 0001:0001b930       ??$_Cons_val@V?$allocator@U?$pair@$$CBV?$basic_string@_WU?$char_traits@_W@std@@V?$allocator@_W@2@@std@@V12@@std@@@std@@U?$pair@$$CBV?$basic_string@_WU?$char_traits@_W@std@@V?$allocator@_W@2@@std@@V12@@2@U32@@std@@YAXAAV?$allocator@U?$pair@$$CBV?$basic_string@_WU?$char_traits@_W@std@@V?$allocator@_W@2@@std@@V12@@std@@@0@PAU?$pair@$$CBV?$basic_string@_WU?$char_traits@_W@std@@V?$allocator@_W@2@@std@@V12@@0@$$QAU20@@Z 0041c930 f i CheckDoc.obj
 0001:0001b950       ??$make_range@$$CBV?$basic_string@_WU?$char_traits@_W@std@@V?$allocator@_W@2@@std@@@range_detail@boost@@YA?AV?$iterator_range@V?$_String_const_iterator@_WU?$char_traits@_W@std@@V?$allocator@_W@2@@std@@@1@ABV?$basic_string@_WU?$char_traits@_W@std@@V?$allocator@_W@2@@std@@J@Z 0041c950 f i CheckDoc.obj
 0001:0001b970       ??$distance@V?$iterator_range@V?$_String_const_iterator@_WU?$char_traits@_W@std@@V?$allocator@_W@2@@std@@@boost@@@boost@@YAHABV?$iterator_range@V?$_String_const_iterator@_WU?$char_traits@_W@std@@V?$allocator@_W@2@@std@@@0@@Z 0041c970 f i CheckDoc.obj
 0001:0001b9b0       ??$begin@V?$iterator_range@V?$_String_const_iterator@_WU?$char_traits@_W@std@@V?$allocator@_W@2@@std@@@boost@@@range_adl_barrier@boost@@YA?AV?$_String_const_iterator@_WU?$char_traits@_W@std@@V?$allocator@_W@2@@std@@ABV?$iterator_range@V?$_String_const_iterator@_WU?$char_traits@_W@std@@V?$allocator@_W@2@@std@@@1@@Z 0041c9b0 f i CheckDoc.obj
 0001:0001b9d0       ??$end@V?$iterator_range@V?$_String_const_iterator@_WU?$char_traits@_W@std@@V?$allocator@_W@2@@std@@@boost@@@range_adl_barrier@boost@@YA?AV?$_String_const_iterator@_WU?$char_traits@_W@std@@V?$allocator@_W@2@@std@@ABV?$iterator_range@V?$_String_const_iterator@_WU?$char_traits@_W@std@@V?$allocator@_W@2@@std@@@1@@Z 0041c9d0 f i CheckDoc.obj
 0001:0001b9f0       ??$copy@V?$_String_const_iterator@_WU?$char_traits@_W@std@@V?$allocator@_W@2@@std@@PA_W@std@@YAPA_WV?$_String_const_iterator@_WU?$char_traits@_W@std@@V?$allocator@_W@2@@0@0PA_W@Z 0041c9f0 f i CheckDoc.obj
 0001:0001ba40       ??$sort@PA_W@std@@YAXPA_W0@Z 0041ca40 f i CheckDoc.obj
 0001:0001ba70       ??$range_begin@V?$basic_string@_WU?$char_traits@_W@std@@V?$allocator@_W@2@@std@@@range_detail@boost@@YA?AV?$_String_iterator@_WU?$char_traits@_W@std@@V?$allocator@_W@2@@std@@AAV?$basic_string@_WU?$char_traits@_W@std@@V?$allocator@_W@2@@3@@Z 0041ca70 f i CheckDoc.obj
 0001:0001ba90       ??$range_end@V?$basic_string@_WU?$char_traits@_W@std@@V?$allocator@_W@2@@std@@@range_detail@boost@@YA?AV?$_String_iterator@_WU?$char_traits@_W@std@@V?$allocator@_W@2@@std@@AAV?$basic_string@_WU?$char_traits@_W@std@@V?$allocator@_W@2@@3@@Z 0041ca90 f i CheckDoc.obj
 0001:0001bab0       ?end@?$basic_string@_WU?$char_traits@_W@std@@V?$allocator@_W@2@@std@@QAE?AV?$_String_iterator@_WU?$char_traits@_W@std@@V?$allocator@_W@2@@2@XZ 0041cab0 f i CheckDoc.obj
 0001:0001bae0       ??$trim_end_iter_select@V?$_String_iterator@_WU?$char_traits@_W@std@@V?$allocator@_W@2@@std@@U?$is_any_ofF@_W@detail@algorithm@boost@@@detail@algorithm@boost@@YA?AV?$_String_iterator@_WU?$char_traits@_W@std@@V?$allocator@_W@2@@std@@V34@0U?$is_any_ofF@_W@012@Ubidirectional_iterator_tag@4@@Z 0041cae0 f i CheckDoc.obj
 0001:0001bba0       ??$_Cons_val@V?$allocator@U?$pair@$$CBV?$basic_string@_WU?$char_traits@_W@std@@V?$allocator@_W@2@@std@@V12@@std@@@std@@U?$pair@$$CBV?$basic_string@_WU?$char_traits@_W@std@@V?$allocator@_W@2@@std@@V12@@2@U?$pair@V?$basic_string@_WU?$char_traits@_W@std@@V?$allocator@_W@2@@std@@V12@@2@@std@@YAXAAV?$allocator@U?$pair@$$CBV?$basic_string@_WU?$char_traits@_W@std@@V?$allocator@_W@2@@std@@V12@@std@@@0@PAU?$pair@$$CBV?$basic_string@_WU?$char_traits@_W@std@@V?$allocator@_W@2@@std@@V12@@0@$$QAU?$pair@V?$basic_string@_WU?$char_traits@_W@std@@V?$allocator@_W@2@@std@@V12@@0@@Z 0041cba0 f i CheckDoc.obj
 0001:0001bbc0       ??$_Uninit_move@PAV?$shared_ptr@VRefItemV@@@boost@@PAV12@V?$allocator@V?$shared_ptr@VRefItemV@@@boost@@@std@@V12@@std@@YAPAV?$shared_ptr@VRefItemV@@@boost@@PAV12@00AAV?$allocator@V?$shared_ptr@VRefItemV@@@boost@@@0@0U_Nonscalar_ptr_iterator_tag@0@@Z 0041cbc0 f i CheckDoc.obj
 0001:0001bc90       ??$construct@AAU?$pair@$$CBV?$basic_string@_WU?$char_traits@_W@std@@V?$allocator@_W@2@@std@@V12@@std@@@?$allocator@U?$pair@$$CBV?$basic_string@_WU?$char_traits@_W@std@@V?$allocator@_W@2@@std@@V12@@std@@@std@@QAEXPAU?$pair@$$CBV?$basic_string@_WU?$char_traits@_W@std@@V?$allocator@_W@2@@std@@V12@@1@AAU21@@Z 0041cc90 f i CheckDoc.obj
 0001:0001bd20       ?construct@?$allocator@U?$pair@$$CBV?$basic_string@_WU?$char_traits@_W@std@@V?$allocator@_W@2@@std@@V12@@std@@@std@@QAEXPAU?$pair@$$CBV?$basic_string@_WU?$char_traits@_W@std@@V?$allocator@_W@2@@std@@V12@@2@$$QAU32@@Z 0041cd20 f i CheckDoc.obj
 0001:0001bdb0       ?destroy@?$allocator@V?$shared_ptr@VRefItemV@@@boost@@@std@@QAEXPAV?$shared_ptr@VRefItemV@@@boost@@@Z 0041cdb0 f i CheckDoc.obj
 0001:0001bdd0       ?destroy@?$allocator@V?$tuple@V?$basic_string@_WU?$char_traits@_W@std@@V?$allocator@_W@2@@std@@V12@V12@V?$shared_ptr@VRefItemV@@@boost@@Unull_type@tuples@4@U564@U564@U564@U564@U564@@tuples@boost@@@std@@QAEXPAV?$tuple@V?$basic_string@_WU?$char_traits@_W@std@@V?$allocator@_W@2@@std@@V12@V12@V?$shared_ptr@VRefItemV@@@boost@@Unull_type@tuples@4@U564@U564@U564@U564@U564@@tuples@boost@@@Z 0041cdd0 f i CheckDoc.obj
 0001:0001bdf0       ?destroy@?$allocator@V?$tuple@V?$basic_string@_WU?$char_traits@_W@std@@V?$allocator@_W@2@@std@@V12@_NV12@V?$shared_ptr@VRefItemV@@@boost@@Unull_type@tuples@4@U564@U564@U564@U564@@tuples@boost@@@std@@QAEXPAV?$tuple@V?$basic_string@_WU?$char_traits@_W@std@@V?$allocator@_W@2@@std@@V12@_NV12@V?$shared_ptr@VRefItemV@@@boost@@Unull_type@tuples@4@U564@U564@U564@U564@@tuples@boost@@@Z 0041cdf0 f i CheckDoc.obj
 0001:0001be10       ??E?$_String_iterator@_WU?$char_traits@_W@std@@V?$allocator@_W@2@@std@@QAEAAV01@XZ 0041ce10 f i CheckDoc.obj
 0001:0001be30       ??E?$_String_const_iterator@_WU?$char_traits@_W@std@@V?$allocator@_W@2@@std@@QAEAAV01@XZ 0041ce30 f i CheckDoc.obj
 0001:0001be50       ??F?$_String_iterator@_WU?$char_traits@_W@std@@V?$allocator@_W@2@@std@@QAEAAV01@XZ 0041ce50 f i CheckDoc.obj
 0001:0001be70       ??0?$sp_counted_impl_p@V?$HierarchyReference@UProducts@@@@@detail@boost@@QAE@PAV?$HierarchyReference@UProducts@@@@@Z 0041ce70 f i CheckDoc.obj
 0001:0001bea0       ?dispose@?$sp_counted_impl_p@V?$HierarchyReference@UProducts@@@@@detail@boost@@UAEXXZ 0041cea0 f i CheckDoc.obj
 0001:0001bec0       ??0?$sp_counted_impl_p@V?$SlaveReference@UUnits@@UProducts@@@@@detail@boost@@QAE@PAV?$SlaveReference@UUnits@@UProducts@@@@@Z 0041cec0 f i CheckDoc.obj
 0001:0001bef0       ??0?$sp_counted_impl_p@V?$SlaveReference@UPrices@@UProducts@@@@@detail@boost@@QAE@PAV?$SlaveReference@UPrices@@UProducts@@@@@Z 0041cef0 f i CheckDoc.obj
 0001:0001bf20       ?dispose@?$sp_counted_impl_p@V?$SlaveReference@UPrices@@UProducts@@@@@detail@boost@@UAEXXZ 0041cf20 f i CheckDoc.obj
 0001:0001bf20       ?dispose@?$sp_counted_impl_p@V?$SlaveReference@UUnits@@UProducts@@@@@detail@boost@@UAEXXZ 0041cf20 f i CheckDoc.obj
 0001:0001bf40       ?GetApplicationRecoveryParameter@CWinApp@@UAEPAXXZ 0041cf40 f i UserThreads.obj
 0001:0001bf40       ?CanBeStretched@CMFCToolBarButton@@UBEHXZ 0041cf40 f i MultButtonEx.obj
 0001:0001bf40       ?get_untyped_deleter@?$sp_counted_impl_p@VDbContext@@@detail@boost@@UAEPAXXZ 0041cf40 f i UserThreads.obj
 0001:0001bf40       ?IsExclusive@CMFCToolBarMenuButton@@UBEHXZ 0041cf40 f i MultButtonEx.obj
 0001:0001bf40       ?GetApplicationRestartFlags@CWinApp@@UAEKXZ 0041cf40 f i UserThreads.obj
 0001:0001bf40       ?get_untyped_deleter@?$sp_counted_impl_p@V?$SlaveReference@UPrices@@UProducts@@@@@detail@boost@@UAEPAXXZ 0041cf40 f i CheckDoc.obj
 0001:0001bf40       ?IsResizable@CPane@@UBEHXZ 0041cf40 f i FontToolBar.obj
 0001:0001bf40       ?AllowSelectDisabled@CMFCToolBar@@MBEHXZ 0041cf40 f i FontToolBar.obj
 0001:0001bf40       ?OnClickMenuItem@CMFCToolBarMenuButton@@UAEHXZ 0041cf40 f i MultButtonEx.obj
 0001:0001bf40       ?get_untyped_deleter@?$sp_counted_impl_p@VRefItemV@@@detail@boost@@UAEPAXXZ 0041cf40 f i CheckDoc.obj
 0001:0001bf40       ?IsInFloatingMultiPaneFrameWnd@CPane@@UBEHXZ 0041cf40 f i FontToolBar.obj
 0001:0001bf40       ?get_untyped_deleter@?$sp_counted_impl_p@V?$HierarchyReference@UProducts@@@@@detail@boost@@UAEPAXXZ 0041cf40 f i CheckDoc.obj
 0001:0001bf40       ?IsAccessibilityCompatible@CDockablePane@@UAEHXZ 0041cf40 f i OutputWnd.obj
 0001:0001bf40       ?GetCaptionHeight@CBasePane@@UBEHXZ 0041cf40 f i FontToolBar.obj
 0001:0001bf40       ?IsEmptyMenuAllowed@CMFCToolBarMenuButton@@UBEHXZ 0041cf40 f i MultButtonEx.obj
 0001:0001bf40       ?GetHwnd@CMFCToolBarButton@@UAEPAUHWND__@@XZ 0041cf40 f i MultButtonEx.obj
 0001:0001bf40       ?IsAutoHideMode@CBasePane@@UBEHXZ 0041cf40 f i FontToolBar.obj
 0001:0001bf40       ?get_untyped_deleter@?$sp_counted_impl_p@V?$SlaveReference@UUnits@@UProducts@@@@@detail@boost@@UAEPAXXZ 0041cf40 f i CheckDoc.obj
 0001:0001bf40       ?AlwaysSaveSelection@CMFCToolBar@@MBEHXZ 0041cf40 f i FontToolBar.obj
 0001:0001bf40       ?HasButton@CMFCToolBarMenuButton@@UBEHXZ 0041cf40 f i MultButtonEx.obj
 0001:0001bf40       ?OnClickUp@CMFCToolBarButton@@UAEHXZ 0041cf40 f i MultButtonEx.obj
 0001:0001bf40       ?_Getcont@_Iterator_base0@std@@QBEPBU_Container_base0@2@XZ 0041cf40 f i CashPrinter.obj
 0001:0001bf40       ?HaveHotBorder@CMFCToolBarMenuButton@@UBEHXZ 0041cf40 f i MultButtonEx.obj
 0001:0001bf40       ?CanBeAttached@CBasePane@@UBEHXZ 0041cf40 f i FontToolBar.obj
 0001:0001bf40       ?CreateHead@CDocBuilder@@UAEHXZ 0041cf40 f i CheckDoc.obj
 0001:0001bf40       ?CanFocus@CMFCToolBar@@UBEHXZ 0041cf40 f i FontToolBar.obj
 0001:0001bf40       ?CreateTable@CDocBuilder@@UAEHXZ 0041cf40 f i CheckDoc.obj
 0001:0001bf50       ??0?$sp_counted_impl_pd@PAVRefItemV@@V?$sp_ms_deleter@VRefItemV@@@detail@boost@@@detail@boost@@QAE@PAVRefItemV@@@Z 0041cf50 f i CheckDoc.obj
 0001:0001bfc0       ?dispose@?$sp_counted_impl_pd@PAVRefItemV@@V?$sp_ms_deleter@VRefItemV@@@detail@boost@@@detail@boost@@UAEXXZ 0041cfc0 f i CheckDoc.obj
 0001:0001bfe0       ?get_deleter@?$sp_counted_impl_pd@PAVRefItemV@@V?$sp_ms_deleter@VRefItemV@@@detail@boost@@@detail@boost@@UAEPAXABVtype_info@@@Z 0041cfe0 f i CheckDoc.obj
 0001:0001c020       ??0?$sp_counted_impl_p@VRefItemV@@@detail@boost@@QAE@PAVRefItemV@@@Z 0041d020 f i CheckDoc.obj
 0001:0001c050       ?dispose@?$sp_counted_impl_p@VRefItemV@@@detail@boost@@UAEXXZ 0041d050 f i CheckDoc.obj
 0001:0001c070       ?OnSendCommand@CMFCToolBar@@MAEHPBVCMFCToolBarButton@@@Z 0041d070 f i FontToolBar.obj
 0001:0001c070       ?OnGetCustomToolTipText@CMFCToolBarButton@@UAEHAAV?$CStringT@DV?$StrTraitMFC_DLL@DV?$ChTraitsCRT@D@ATL@@@@@ATL@@@Z 0041d070 f i MultButtonEx.obj
 0001:0001c070       ?get_deleter@?$sp_counted_impl_p@V?$SlaveReference@UPrices@@UProducts@@@@@detail@boost@@UAEPAXABVtype_info@@@Z 0041d070 f i CheckDoc.obj
 0001:0001c070       ?OnEraseMDIClientBackground@CMDIFrameWndEx@@UAEHPAVCDC@@@Z 0041d070 f i MainFrm.obj
 0001:0001c070       ?get_deleter@?$sp_counted_impl_p@V?$HierarchyReference@UProducts@@@@@detail@boost@@UAEPAXABVtype_info@@@Z 0041d070 f i CheckDoc.obj
 0001:0001c070       ?OnCustomizeMenu@CMFCToolBarButton@@UAEHPAVCMenu@@@Z 0041d070 f i MultButtonEx.obj
 0001:0001c070       ?OnKey@CMFCToolBar@@MAEHI@Z 0041d070 f i FontToolBar.obj
 0001:0001c070       ?get_deleter@?$sp_counted_impl_p@V?$SlaveReference@UUnits@@UProducts@@@@@detail@boost@@UAEPAXABVtype_info@@@Z 0041d070 f i CheckDoc.obj
 0001:0001c070       ?CanAcceptPane@CBasePane@@UBEHPBV1@@Z 0041d070 f i FontToolBar.obj
 0001:0001c070       ?get_deleter@?$sp_counted_impl_p@VRefItemV@@@detail@boost@@UAEPAXABVtype_info@@@Z 0041d070 f i CheckDoc.obj
 0001:0001c070       ?_Get_deleter@_Ref_count_base@tr1@std@@UBEPAXABVtype_info@@@Z 0041d070 f i MainDocument.obj
 0001:0001c070       ?get_deleter@?$sp_counted_impl_p@VDbContext@@@detail@boost@@UAEPAXABVtype_info@@@Z 0041d070 f i UserThreads.obj
 0001:0001c070       ?NotifyCommand@CMFCToolBarButton@@UAEHH@Z 0041d070 f i MultButtonEx.obj
 0001:0001c080       ??_G?$sp_counted_impl_p@V?$HierarchyReference@UProducts@@@@@detail@boost@@UAEPAXI@Z 0041d080 f i CheckDoc.obj
 0001:0001c080       ??_G?$sp_counted_impl_p@VDbContext@@@detail@boost@@UAEPAXI@Z 0041d080 f i UserThreads.obj
 0001:0001c080       ??_G?$sp_counted_impl_pd@PAU_Connection@@VConnectionDeleter@DbContext@@@detail@boost@@UAEPAXI@Z 0041d080 f i UserThreads.obj
 0001:0001c080       ??_E?$sp_counted_impl_p@V?$HierarchyReference@UProducts@@@@@detail@boost@@UAEPAXI@Z 0041d080 f i CheckDoc.obj
 0001:0001c080       ??_E?$sp_counted_impl_pd@PAU_Connection@@VConnectionDeleter@DbContext@@@detail@boost@@UAEPAXI@Z 0041d080 f i UserThreads.obj
 0001:0001c080       ??_E?$sp_counted_impl_p@V?$SlaveReference@UUnits@@UProducts@@@@@detail@boost@@UAEPAXI@Z 0041d080 f i CheckDoc.obj
 0001:0001c080       ??_E?$sp_counted_impl_p@V?$SlaveReference@UPrices@@UProducts@@@@@detail@boost@@UAEPAXI@Z 0041d080 f i CheckDoc.obj
 0001:0001c080       ??_E?$sp_counted_impl_p@VDbContext@@@detail@boost@@UAEPAXI@Z 0041d080 f i UserThreads.obj
 0001:0001c080       ??_G?$sp_counted_impl_p@VRefItemV@@@detail@boost@@UAEPAXI@Z 0041d080 f i CheckDoc.obj
 0001:0001c080       ??_G?$sp_counted_impl_p@V?$SlaveReference@UUnits@@UProducts@@@@@detail@boost@@UAEPAXI@Z 0041d080 f i CheckDoc.obj
 0001:0001c080       ??_G?$sp_counted_impl_p@V?$SlaveReference@UPrices@@UProducts@@@@@detail@boost@@UAEPAXI@Z 0041d080 f i CheckDoc.obj
 0001:0001c080       ??_E?$sp_counted_impl_p@VRefItemV@@@detail@boost@@UAEPAXI@Z 0041d080 f i CheckDoc.obj
 0001:0001c0b0       ??_E?$sp_counted_impl_pd@PAVRefItemV@@V?$sp_ms_deleter@VRefItemV@@@detail@boost@@@detail@boost@@UAEPAXI@Z 0041d0b0 f i CheckDoc.obj
 0001:0001c0b0       ??_G?$sp_counted_impl_pd@PAVRefItemV@@V?$sp_ms_deleter@VRefItemV@@@detail@boost@@@detail@boost@@UAEPAXI@Z 0041d0b0 f i CheckDoc.obj
 0001:0001c0e0       ??1?$sp_counted_impl_p@VRefItemV@@@detail@boost@@UAE@XZ 0041d0e0 f i CheckDoc.obj
 0001:0001c0e0       ??1?$sp_counted_impl_p@VDbContext@@@detail@boost@@UAE@XZ 0041d0e0 f i UserThreads.obj
 0001:0001c0e0       ??1?$sp_counted_impl_p@V?$SlaveReference@UPrices@@UProducts@@@@@detail@boost@@UAE@XZ 0041d0e0 f i CheckDoc.obj
 0001:0001c0e0       ??1?$sp_counted_impl_p@V?$SlaveReference@UUnits@@UProducts@@@@@detail@boost@@UAE@XZ 0041d0e0 f i CheckDoc.obj
 0001:0001c0e0       ??1?$sp_counted_impl_p@V?$HierarchyReference@UProducts@@@@@detail@boost@@UAE@XZ 0041d0e0 f i CheckDoc.obj
 0001:0001c0e0       ??1?$sp_counted_impl_pd@PAU_Connection@@VConnectionDeleter@DbContext@@@detail@boost@@UAE@XZ 0041d0e0 f i UserThreads.obj
 0001:0001c100       ??1?$sp_counted_impl_pd@PAVRefItemV@@V?$sp_ms_deleter@VRefItemV@@@detail@boost@@@detail@boost@@UAE@XZ 0041d100 f i CheckDoc.obj
 0001:0001c160       ??F?$_String_const_iterator@_WU?$char_traits@_W@std@@V?$allocator@_W@2@@std@@QAEAAV01@XZ 0041d160 f i CheckDoc.obj
 0001:0001c180       ??1?$sp_ms_deleter@VRefItemV@@@detail@boost@@QAE@XZ 0041d180 f i CheckDoc.obj
 0001:0001c1a0       ??R?$sp_ms_deleter@VRefItemV@@@detail@boost@@QAEXPAVRefItemV@@@Z 0041d1a0 f i CheckDoc.obj
 0001:0001c1c0       ?destroy@?$sp_ms_deleter@VRefItemV@@@detail@boost@@AAEXXZ 0041d1c0 f i CheckDoc.obj
 0001:0001c1f0       ??_GRefItemV@@QAEPAXI@Z    0041d1f0 f i CheckDoc.obj
 0001:0001c220       ??1RefItemV@@QAE@XZ        0041d220 f i CheckDoc.obj
 0001:0001c240       ??1?$RefItemT@UVariantType@@V?$RefItemTraits@UVariantType@@@@@@QAE@XZ 0041d240 f i CheckDoc.obj
 0001:0001c2b0       ??1?$map@$$CBV?$basic_string@_WU?$char_traits@_W@std@@V?$allocator@_W@2@@std@@V_variant_t@@U?$less@$$CBV?$basic_string@_WU?$char_traits@_W@std@@V?$allocator@_W@2@@std@@@2@V?$allocator@U?$pair@$$CBV?$basic_string@_WU?$char_traits@_W@std@@V?$allocator@_W@2@@std@@V_variant_t@@@std@@@2@@std@@QAE@XZ 0041d2b0 f i CheckDoc.obj
 0001:0001c2d0       ??1?$_Tree@V?$_Tmap_traits@$$CBV?$basic_string@_WU?$char_traits@_W@std@@V?$allocator@_W@2@@std@@V_variant_t@@U?$less@$$CBV?$basic_string@_WU?$char_traits@_W@std@@V?$allocator@_W@2@@std@@@2@V?$allocator@U?$pair@$$CBV?$basic_string@_WU?$char_traits@_W@std@@V?$allocator@_W@2@@std@@V_variant_t@@@std@@@2@$0A@@std@@@std@@QAE@XZ 0041d2d0 f i CheckDoc.obj
 0001:0001c330       ?_Tidy@?$_Tree@V?$_Tmap_traits@$$CBV?$basic_string@_WU?$char_traits@_W@std@@V?$allocator@_W@2@@std@@V_variant_t@@U?$less@$$CBV?$basic_string@_WU?$char_traits@_W@std@@V?$allocator@_W@2@@std@@@2@V?$allocator@U?$pair@$$CBV?$basic_string@_WU?$char_traits@_W@std@@V?$allocator@_W@2@@std@@V_variant_t@@@std@@@2@$0A@@std@@@std@@IAEXXZ 0041d330 f i CheckDoc.obj
 0001:0001c380       ?erase@?$_Tree@V?$_Tmap_traits@$$CBV?$basic_string@_WU?$char_traits@_W@std@@V?$allocator@_W@2@@std@@V_variant_t@@U?$less@$$CBV?$basic_string@_WU?$char_traits@_W@std@@V?$allocator@_W@2@@std@@@2@V?$allocator@U?$pair@$$CBV?$basic_string@_WU?$char_traits@_W@std@@V?$allocator@_W@2@@std@@V_variant_t@@@std@@@2@$0A@@std@@@std@@QAE?AV?$_Tree_iterator@V?$_Tree_val@V?$_Tmap_traits@$$CBV?$basic_string@_WU?$char_traits@_W@std@@V?$allocator@_W@2@@std@@V_variant_t@@U?$less@$$CBV?$basic_string@_WU?$char_traits@_W@std@@V?$allocator@_W@2@@std@@@2@V?$allocator@U?$pair@$$CBV?$basic_string@_WU?$char_traits@_W@std@@V?$allocator@_W@2@@std@@V_variant_t@@@std@@@2@$0A@@std@@@std@@@2@V?$_Tree_const_iterator@V?$_Tree_val@V?$_Tmap_traits@$$CBV?$basic_string@_WU?$char_traits@_W@std@@V?$allocator@_W@2@@std@@V_variant_t@@U?$less@$$CBV?$basic_string@_WU?$char_traits@_W@std@@V?$allocator@_W@2@@std@@@2@V?$allocator@U?$pair@$$CBV?$basic_string@_WU?$char_traits@_W@std@@V?$allocator@_W@2@@std@@V_variant_t@@@std@@@2@$0A@@std@@@std@@@2@0@Z 0041d380 f i CheckDoc.obj
 0001:0001c430       ?erase@?$_Tree@V?$_Tmap_traits@$$CBV?$basic_string@_WU?$char_traits@_W@std@@V?$allocator@_W@2@@std@@V_variant_t@@U?$less@$$CBV?$basic_string@_WU?$char_traits@_W@std@@V?$allocator@_W@2@@std@@@2@V?$allocator@U?$pair@$$CBV?$basic_string@_WU?$char_traits@_W@std@@V?$allocator@_W@2@@std@@V_variant_t@@@std@@@2@$0A@@std@@@std@@QAE?AV?$_Tree_iterator@V?$_Tree_val@V?$_Tmap_traits@$$CBV?$basic_string@_WU?$char_traits@_W@std@@V?$allocator@_W@2@@std@@V_variant_t@@U?$less@$$CBV?$basic_string@_WU?$char_traits@_W@std@@V?$allocator@_W@2@@std@@@2@V?$allocator@U?$pair@$$CBV?$basic_string@_WU?$char_traits@_W@std@@V?$allocator@_W@2@@std@@V_variant_t@@@std@@@2@$0A@@std@@@std@@@2@V?$_Tree_const_iterator@V?$_Tree_val@V?$_Tmap_traits@$$CBV?$basic_string@_WU?$char_traits@_W@std@@V?$allocator@_W@2@@std@@V_variant_t@@U?$less@$$CBV?$basic_string@_WU?$char_traits@_W@std@@V?$allocator@_W@2@@std@@@2@V?$allocator@U?$pair@$$CBV?$basic_string@_WU?$char_traits@_W@std@@V?$allocator@_W@2@@std@@V_variant_t@@@std@@@2@$0A@@std@@@std@@@2@@Z 0041d430 f i CheckDoc.obj
 0001:0001cbc0       ?clear@?$_Tree@V?$_Tmap_traits@$$CBV?$basic_string@_WU?$char_traits@_W@std@@V?$allocator@_W@2@@std@@V_variant_t@@U?$less@$$CBV?$basic_string@_WU?$char_traits@_W@std@@V?$allocator@_W@2@@std@@@2@V?$allocator@U?$pair@$$CBV?$basic_string@_WU?$char_traits@_W@std@@V?$allocator@_W@2@@std@@V_variant_t@@@std@@@2@$0A@@std@@@std@@QAEXXZ 0041dbc0 f i CheckDoc.obj
 0001:0001cc20       ??E?$_Tree_const_iterator@V?$_Tree_val@V?$_Tmap_traits@$$CBV?$basic_string@_WU?$char_traits@_W@std@@V?$allocator@_W@2@@std@@V_variant_t@@U?$less@$$CBV?$basic_string@_WU?$char_traits@_W@std@@V?$allocator@_W@2@@std@@@2@V?$allocator@U?$pair@$$CBV?$basic_string@_WU?$char_traits@_W@std@@V?$allocator@_W@2@@std@@V_variant_t@@@std@@@2@$0A@@std@@@std@@@std@@QAE?AV01@H@Z 0041dc20 f i CheckDoc.obj
 0001:0001cc50       ?_Erase@?$_Tree@V?$_Tmap_traits@$$CBV?$basic_string@_WU?$char_traits@_W@std@@V?$allocator@_W@2@@std@@V_variant_t@@U?$less@$$CBV?$basic_string@_WU?$char_traits@_W@std@@V?$allocator@_W@2@@std@@@2@V?$allocator@U?$pair@$$CBV?$basic_string@_WU?$char_traits@_W@std@@V?$allocator@_W@2@@std@@V_variant_t@@@std@@@2@$0A@@std@@@std@@IAEXPAU_Node@?$_Tree_nod@V?$_Tmap_traits@$$CBV?$basic_string@_WU?$char_traits@_W@std@@V?$allocator@_W@2@@std@@V_variant_t@@U?$less@$$CBV?$basic_string@_WU?$char_traits@_W@std@@V?$allocator@_W@2@@std@@@2@V?$allocator@U?$pair@$$CBV?$basic_string@_WU?$char_traits@_W@std@@V?$allocator@_W@2@@std@@V_variant_t@@@std@@@2@$0A@@std@@@2@@Z 0041dc50 f i CheckDoc.obj
 0001:0001cce0       ?_Min@?$_Tree_val@V?$_Tmap_traits@$$CBV?$basic_string@_WU?$char_traits@_W@std@@V?$allocator@_W@2@@std@@V_variant_t@@U?$less@$$CBV?$basic_string@_WU?$char_traits@_W@std@@V?$allocator@_W@2@@std@@@2@V?$allocator@U?$pair@$$CBV?$basic_string@_WU?$char_traits@_W@std@@V?$allocator@_W@2@@std@@V_variant_t@@@std@@@2@$0A@@std@@@std@@SAPAU_Node@?$_Tree_nod@V?$_Tmap_traits@$$CBV?$basic_string@_WU?$char_traits@_W@std@@V?$allocator@_W@2@@std@@V_variant_t@@U?$less@$$CBV?$basic_string@_WU?$char_traits@_W@std@@V?$allocator@_W@2@@std@@@2@V?$allocator@U?$pair@$$CBV?$basic_string@_WU?$char_traits@_W@std@@V?$allocator@_W@2@@std@@V_variant_t@@@std@@@2@$0A@@std@@@2@PAU342@@Z 0041dce0 f i CheckDoc.obj
 0001:0001cd20       ??E?$_Tree_const_iterator@V?$_Tree_val@V?$_Tmap_traits@$$CBV?$basic_string@_WU?$char_traits@_W@std@@V?$allocator@_W@2@@std@@V_variant_t@@U?$less@$$CBV?$basic_string@_WU?$char_traits@_W@std@@V?$allocator@_W@2@@std@@@2@V?$allocator@U?$pair@$$CBV?$basic_string@_WU?$char_traits@_W@std@@V?$allocator@_W@2@@std@@V_variant_t@@@std@@@2@$0A@@std@@@std@@@std@@QAEAAV01@XZ 0041dd20 f i CheckDoc.obj
 0001:0001cd40       ??E?$_Tree_unchecked_const_iterator@V?$_Tree_val@V?$_Tmap_traits@$$CBV?$basic_string@_WU?$char_traits@_W@std@@V?$allocator@_W@2@@std@@V_variant_t@@U?$less@$$CBV?$basic_string@_WU?$char_traits@_W@std@@V?$allocator@_W@2@@std@@@2@V?$allocator@U?$pair@$$CBV?$basic_string@_WU?$char_traits@_W@std@@V?$allocator@_W@2@@std@@V_variant_t@@@std@@@2@$0A@@std@@@std@@U_Iterator_base0@2@@std@@QAEAAV01@XZ 0041dd40 f i CheckDoc.obj
 0001:0001ce00       ??$checked_delete@V?$HierarchyReference@UProducts@@@@@boost@@YAXPAV?$HierarchyReference@UProducts@@@@@Z 0041de00 f i CheckDoc.obj
 0001:0001ce40       ??$checked_delete@V?$SlaveReference@UUnits@@UProducts@@@@@boost@@YAXPAV?$SlaveReference@UUnits@@UProducts@@@@@Z 0041de40 f i CheckDoc.obj
 0001:0001ce40       ??$checked_delete@V?$SlaveReference@UPrices@@UProducts@@@@@boost@@YAXPAV?$SlaveReference@UPrices@@UProducts@@@@@Z 0041de40 f i CheckDoc.obj
 0001:0001ce80       ??$trim_end@V?$_String_iterator@_WU?$char_traits@_W@std@@V?$allocator@_W@2@@std@@Uis_classifiedF@detail@algorithm@boost@@@detail@algorithm@boost@@YA?AV?$_String_iterator@_WU?$char_traits@_W@std@@V?$allocator@_W@2@@std@@V34@0Uis_classifiedF@012@@Z 0041de80 f i CheckDoc.obj
 0001:0001cf00       ??$trim_begin@V?$_String_iterator@_WU?$char_traits@_W@std@@V?$allocator@_W@2@@std@@Uis_classifiedF@detail@algorithm@boost@@@detail@algorithm@boost@@YA?AV?$_String_iterator@_WU?$char_traits@_W@std@@V?$allocator@_W@2@@std@@V34@0Uis_classifiedF@012@@Z 0041df00 f i CheckDoc.obj
 0001:0001cfb0       ??$checked_delete@VRefItemV@@@boost@@YAXPAVRefItemV@@@Z 0041dfb0 f i CheckDoc.obj
 0001:0001cff0       ??$make_iterator_range@V?$basic_string@_WU?$char_traits@_W@std@@V?$allocator@_W@2@@std@@@boost@@YA?AV?$iterator_range@V?$_String_const_iterator@_WU?$char_traits@_W@std@@V?$allocator@_W@2@@std@@@0@ABV?$basic_string@_WU?$char_traits@_W@std@@V?$allocator@_W@2@@std@@@Z 0041dff0 f i CheckDoc.obj
 0001:0001d020       ??$distance@V?$_String_const_iterator@_WU?$char_traits@_W@std@@V?$allocator@_W@2@@std@@@std@@YAHV?$_String_const_iterator@_WU?$char_traits@_W@std@@V?$allocator@_W@2@@0@0@Z 0041e020 f i CheckDoc.obj
 0001:0001d060       ??$range_begin@$$CBV?$iterator_range@V?$_String_const_iterator@_WU?$char_traits@_W@std@@V?$allocator@_W@2@@std@@@boost@@@range_detail@boost@@YA?AV?$_String_const_iterator@_WU?$char_traits@_W@std@@V?$allocator@_W@2@@std@@ABV?$iterator_range@V?$_String_const_iterator@_WU?$char_traits@_W@std@@V?$allocator@_W@2@@std@@@1@@Z 0041e060 f i CheckDoc.obj
 0001:0001d080       ??$range_end@$$CBV?$iterator_range@V?$_String_const_iterator@_WU?$char_traits@_W@std@@V?$allocator@_W@2@@std@@@boost@@@range_detail@boost@@YA?AV?$_String_const_iterator@_WU?$char_traits@_W@std@@V?$allocator@_W@2@@std@@ABV?$iterator_range@V?$_String_const_iterator@_WU?$char_traits@_W@std@@V?$allocator@_W@2@@std@@@1@@Z 0041e080 f i CheckDoc.obj
 0001:0001d0a0       ??$_Copy_impl@PB_WPA_W@std@@YAPA_WPB_W0PA_W@Z 0041e0a0 f i CheckDoc.obj
 0001:0001d0e0       ??$_Rechecked@PA_WPA_W@std@@YAAAPA_WAAPA_WPA_W@Z 0041e0e0 f i CheckDoc.obj
 0001:0001d0e0       ??$_Rechecked@PB_WPB_W@std@@YAAAPB_WAAPB_WPB_W@Z 0041e0e0 f i CheckDoc.obj
 0001:0001d0f0       ??$_Sort@PA_WH@std@@YAXPA_W0H@Z 0041e0f0 f i CheckDoc.obj
 0001:0001d1d0       ??$?R_W@?$is_any_ofF@_W@detail@algorithm@boost@@QBE_N_W@Z 0041e1d0 f i CheckDoc.obj
 0001:0001d230       ??$construct@U?$pair@V?$basic_string@_WU?$char_traits@_W@std@@V?$allocator@_W@2@@std@@V12@@std@@@?$allocator@U?$pair@$$CBV?$basic_string@_WU?$char_traits@_W@std@@V?$allocator@_W@2@@std@@V12@@std@@@std@@QAEXPAU?$pair@$$CBV?$basic_string@_WU?$char_traits@_W@std@@V?$allocator@_W@2@@std@@V12@@1@$$QAU?$pair@V?$basic_string@_WU?$char_traits@_W@std@@V?$allocator@_W@2@@std@@V12@@1@@Z 0041e230 f i CheckDoc.obj
 0001:0001d2c0       ??$_Cons_val@V?$allocator@V?$shared_ptr@VRefItemV@@@boost@@@std@@V?$shared_ptr@VRefItemV@@@boost@@V34@@std@@YAXAAV?$allocator@V?$shared_ptr@VRefItemV@@@boost@@@0@PAV?$shared_ptr@VRefItemV@@@boost@@$$QAV23@@Z 0041e2c0 f i CheckDoc.obj
 0001:0001d2e0       ??$?0$$CBV?$basic_string@_WU?$char_traits@_W@std@@V?$allocator@_W@2@@std@@V01@@?$pair@$$CBV?$basic_string@_WU?$char_traits@_W@std@@V?$allocator@_W@2@@std@@V12@@std@@QAE@AAU01@@Z 0041e2e0 f i CheckDoc.obj
 0001:0001d310       ??$?0$$CBV?$basic_string@_WU?$char_traits@_W@std@@V?$allocator@_W@2@@std@@V01@@?$pair@$$CBV?$basic_string@_WU?$char_traits@_W@std@@V?$allocator@_W@2@@std@@V12@@std@@QAE@$$QAU01@@Z 0041e310 f i CheckDoc.obj
 0001:0001d350       ??$_Destroy@V?$shared_ptr@VRefItemV@@@boost@@@std@@YAXPAV?$shared_ptr@VRefItemV@@@boost@@@Z 0041e350 f i CheckDoc.obj
 0001:0001d360       ??$_Destroy@V?$tuple@V?$basic_string@_WU?$char_traits@_W@std@@V?$allocator@_W@2@@std@@V12@V12@V?$shared_ptr@VRefItemV@@@boost@@Unull_type@tuples@4@U564@U564@U564@U564@U564@@tuples@boost@@@std@@YAXPAV?$tuple@V?$basic_string@_WU?$char_traits@_W@std@@V?$allocator@_W@2@@std@@V12@V12@V?$shared_ptr@VRefItemV@@@boost@@Unull_type@tuples@4@U564@U564@U564@U564@U564@@tuples@boost@@@Z 0041e360 f i CheckDoc.obj
 0001:0001d370       ??$_Destroy@V?$tuple@V?$basic_string@_WU?$char_traits@_W@std@@V?$allocator@_W@2@@std@@V12@_NV12@V?$shared_ptr@VRefItemV@@@boost@@Unull_type@tuples@4@U564@U564@U564@U564@@tuples@boost@@@std@@YAXPAV?$tuple@V?$basic_string@_WU?$char_traits@_W@std@@V?$allocator@_W@2@@std@@V12@_NV12@V?$shared_ptr@VRefItemV@@@boost@@Unull_type@tuples@4@U564@U564@U564@U564@@tuples@boost@@@Z 0041e370 f i CheckDoc.obj
 0001:0001d380       ??_G?$HierarchyReference@UProducts@@@@QAEPAXI@Z 0041e380 f i CheckDoc.obj
 0001:0001d3b0       ??_G?$SlaveReference@UUnits@@UProducts@@@@QAEPAXI@Z 0041e3b0 f i CheckDoc.obj
 0001:0001d3b0       ??_G?$SlaveReference@UPrices@@UProducts@@@@QAEPAXI@Z 0041e3b0 f i CheckDoc.obj
 0001:0001d3e0       ??_G?$shared_ptr@VRefItemV@@@boost@@QAEPAXI@Z 0041e3e0 f i CheckDoc.obj
 0001:0001d410       ??_G?$tuple@V?$basic_string@_WU?$char_traits@_W@std@@V?$allocator@_W@2@@std@@V12@V12@V?$shared_ptr@VRefItemV@@@boost@@Unull_type@tuples@4@U564@U564@U564@U564@U564@@tuples@boost@@QAEPAXI@Z 0041e410 f i CheckDoc.obj
 0001:0001d440       ??_G?$tuple@V?$basic_string@_WU?$char_traits@_W@std@@V?$allocator@_W@2@@std@@V12@_NV12@V?$shared_ptr@VRefItemV@@@boost@@Unull_type@tuples@4@U564@U564@U564@U564@@tuples@boost@@QAEPAXI@Z 0041e440 f i CheckDoc.obj
 0001:0001d470       ??1?$HierarchyReference@UProducts@@@@QAE@XZ 0041e470 f i CheckDoc.obj
 0001:0001d4f0       ??1?$SlaveReference@UUnits@@UProducts@@@@QAE@XZ 0041e4f0 f i CheckDoc.obj
 0001:0001d4f0       ??1?$SlaveReference@UPrices@@UProducts@@@@QAE@XZ 0041e4f0 f i CheckDoc.obj
 0001:0001d570       ?construct@?$allocator@V?$shared_ptr@VRefItemV@@@boost@@@std@@QAEXPAV?$shared_ptr@VRefItemV@@@boost@@$$QAV34@@Z 0041e570 f i CheckDoc.obj
 0001:0001d600       ??0?$_Pair_base@$$CBV?$basic_string@_WU?$char_traits@_W@std@@V?$allocator@_W@2@@std@@V12@@std@@QAE@$$QBV?$basic_string@_WU?$char_traits@_W@std@@V?$allocator@_W@2@@1@$$QAV21@@Z 0041e600 f i CheckDoc.obj
 0001:0001d680       ?begin@?$iterator_range_base@V?$_String_const_iterator@_WU?$char_traits@_W@std@@V?$allocator@_W@2@@std@@Uincrementable_traversal_tag@iterators@boost@@@iterator_range_detail@boost@@QBE?AV?$_String_const_iterator@_WU?$char_traits@_W@std@@V?$allocator@_W@2@@std@@XZ 0041e680 f i CheckDoc.obj
 0001:0001d6a0       ?end@?$iterator_range_base@V?$_String_const_iterator@_WU?$char_traits@_W@std@@V?$allocator@_W@2@@std@@Uincrementable_traversal_tag@iterators@boost@@@iterator_range_detail@boost@@QBE?AV?$_String_const_iterator@_WU?$char_traits@_W@std@@V?$allocator@_W@2@@std@@XZ 0041e6a0 f i CheckDoc.obj
 0001:0001d6c0       ??$trim_end_iter_select@V?$_String_iterator@_WU?$char_traits@_W@std@@V?$allocator@_W@2@@std@@Uis_classifiedF@detail@algorithm@boost@@@detail@algorithm@boost@@YA?AV?$_String_iterator@_WU?$char_traits@_W@std@@V?$allocator@_W@2@@std@@V34@0Uis_classifiedF@012@Ubidirectional_iterator_tag@4@@Z 0041e6c0 f i CheckDoc.obj
 0001:0001d780       ??$?R_W@is_classifiedF@detail@algorithm@boost@@QBE_N_W@Z 0041e780 f i CheckDoc.obj
 0001:0001d7b0       ??$?0V?$basic_string@_WU?$char_traits@_W@std@@V?$allocator@_W@2@@std@@@?$iterator_range@V?$_String_const_iterator@_WU?$char_traits@_W@std@@V?$allocator@_W@2@@std@@@boost@@QAE@ABV?$basic_string@_WU?$char_traits@_W@std@@V?$allocator@_W@2@@std@@Uconst_range_tag@iterator_range_detail@1@@Z 0041e7b0 f i CheckDoc.obj
 0001:0001d7f0       ??$_Distance2@V?$_String_const_iterator@_WU?$char_traits@_W@std@@V?$allocator@_W@2@@std@@H@std@@YAXV?$_String_const_iterator@_WU?$char_traits@_W@std@@V?$allocator@_W@2@@0@0AAHUrandom_access_iterator_tag@0@@Z 0041e7f0 f i CheckDoc.obj
 0001:0001d810       ??$_Copy_impl@PB_WPA_W@std@@YAPA_WPB_W0PA_WU_Scalar_ptr_iterator_tag@0@@Z 0041e810 f i CheckDoc.obj
 0001:0001d850       ??$_Unguarded_partition@PA_W@std@@YA?AU?$pair@PA_WPA_W@0@PA_W0@Z 0041e850 f i CheckDoc.obj
 0001:0001dac0       ??$make_heap@PA_W@std@@YAXPA_W0@Z 0041eac0 f i CheckDoc.obj
 0001:0001db10       ??$sort_heap@PA_W@std@@YAXPA_W0@Z 0041eb10 f i CheckDoc.obj
 0001:0001db40       ??$_Insertion_sort@PA_W@std@@YAXPA_W0@Z 0041eb40 f i CheckDoc.obj
 0001:0001db70       ??$binary_search@PB_W_W@std@@YA_NPB_W0AB_W@Z 0041eb70 f i CheckDoc.obj
 0001:0001dbc0       ??$?0V?$basic_string@_WU?$char_traits@_W@std@@V?$allocator@_W@2@@std@@V01@@?$pair@$$CBV?$basic_string@_WU?$char_traits@_W@std@@V?$allocator@_W@2@@std@@V12@@std@@QAE@$$QAU?$pair@V?$basic_string@_WU?$char_traits@_W@std@@V?$allocator@_W@2@@std@@V12@@1@@Z 0041ebc0 f i CheckDoc.obj
 0001:0001dc00       ??$?0ABV?$basic_string@_WU?$char_traits@_W@std@@V?$allocator@_W@2@@std@@AAV01@@?$_Pair_base@$$CBV?$basic_string@_WU?$char_traits@_W@std@@V?$allocator@_W@2@@std@@V12@@std@@QAE@ABV?$basic_string@_WU?$char_traits@_W@std@@V?$allocator@_W@2@@1@AAV21@@Z 0041ec00 f i CheckDoc.obj
 0001:0001dc80       ??$adl_begin@$$CBV?$basic_string@_WU?$char_traits@_W@std@@V?$allocator@_W@2@@std@@@?$iterator_range_impl@V?$_String_const_iterator@_WU?$char_traits@_W@std@@V?$allocator@_W@2@@std@@@iterator_range_detail@boost@@SA?AV?$_String_const_iterator@_WU?$char_traits@_W@std@@V?$allocator@_W@2@@std@@ABV?$basic_string@_WU?$char_traits@_W@std@@V?$allocator@_W@2@@4@@Z 0041ec80 f i CheckDoc.obj
 0001:0001dcb0       ??$adl_end@$$CBV?$basic_string@_WU?$char_traits@_W@std@@V?$allocator@_W@2@@std@@@?$iterator_range_impl@V?$_String_const_iterator@_WU?$char_traits@_W@std@@V?$allocator@_W@2@@std@@@iterator_range_detail@boost@@SA?AV?$_String_const_iterator@_WU?$char_traits@_W@std@@V?$allocator@_W@2@@std@@ABV?$basic_string@_WU?$char_traits@_W@std@@V?$allocator@_W@2@@4@@Z 0041ecb0 f i CheckDoc.obj
 0001:0001dce0       ??$?0V?$_String_const_iterator@_WU?$char_traits@_W@std@@V?$allocator@_W@2@@std@@@?$iterator_range_base@V?$_String_const_iterator@_WU?$char_traits@_W@std@@V?$allocator@_W@2@@std@@Urandom_access_traversal_tag@iterators@boost@@@iterator_range_detail@boost@@IAE@V?$_String_const_iterator@_WU?$char_traits@_W@std@@V?$allocator@_W@2@@std@@0@Z 0041ece0 f i CheckDoc.obj
 0001:0001dd00       ??$_Median@PA_W@std@@YAXPA_W00@Z 0041ed00 f i CheckDoc.obj
 0001:0001ddd0       ??$iter_swap@PA_WPA_W@std@@YAXPA_W0@Z 0041edd0 f i CheckDoc.obj
 0001:0001ddf0       ??$?0AAPAV?$tuple@V?$basic_string@_WU?$char_traits@_W@std@@V?$allocator@_W@2@@std@@V12@V12@Unull_type@tuples@boost@@U345@U345@U345@U345@U345@U345@@tuples@boost@@AAPAV012@@?$pair@PAV?$tuple@V?$basic_string@_WU?$char_traits@_W@std@@V?$allocator@_W@2@@std@@V12@V12@Unull_type@tuples@boost@@U345@U345@U345@U345@U345@U345@@tuples@boost@@PAV123@@std@@QAE@AAPAV?$tuple@V?$basic_string@_WU?$char_traits@_W@std@@V?$allocator@_W@2@@std@@V12@V12@Unull_type@tuples@boost@@U345@U345@U345@U345@U345@U345@@tuples@boost@@0@Z 0041edf0 f i DlgFindAll.obj
 0001:0001ddf0       ??$?0AAPA_WAAPA_W@?$pair@PA_WPA_W@std@@QAE@AAPA_W0@Z 0041edf0 f i CheckDoc.obj
 0001:0001ddf0       ??$?0AAPAV?$tuple@HV?$basic_string@_WU?$char_traits@_W@std@@V?$allocator@_W@2@@std@@V12@V12@Unull_type@tuples@boost@@U345@U345@U345@U345@U345@@tuples@boost@@AAPAV012@@?$pair@PAV?$tuple@HV?$basic_string@_WU?$char_traits@_W@std@@V?$allocator@_W@2@@std@@V12@V12@Unull_type@tuples@boost@@U345@U345@U345@U345@U345@@tuples@boost@@PAV123@@std@@QAE@AAPAV?$tuple@HV?$basic_string@_WU?$char_traits@_W@std@@V?$allocator@_W@2@@std@@V12@V12@Unull_type@tuples@boost@@U345@U345@U345@U345@U345@@tuples@boost@@0@Z 0041edf0 f i DlgSelectGood.obj
 0001:0001ddf0       ??$?0AAPAV?$tuple@V?$basic_string@_WU?$char_traits@_W@std@@V?$allocator@_W@2@@std@@V12@V12@V12@Unull_type@tuples@boost@@U345@U345@U345@U345@U345@@tuples@boost@@AAPAV012@@?$pair@PAV?$tuple@V?$basic_string@_WU?$char_traits@_W@std@@V?$allocator@_W@2@@std@@V12@V12@V12@Unull_type@tuples@boost@@U345@U345@U345@U345@U345@@tuples@boost@@PAV123@@std@@QAE@AAPAV?$tuple@V?$basic_string@_WU?$char_traits@_W@std@@V?$allocator@_W@2@@std@@V12@V12@V12@Unull_type@tuples@boost@@U345@U345@U345@U345@U345@@tuples@boost@@0@Z 0041edf0 f i DlgInsert.obj
 0001:0001de30       ??$_Make_heap@PA_WH_W@std@@YAXPA_W0PAH0@Z 0041ee30 f i CheckDoc.obj
 0001:0001dea0       ??$_Sort_heap@PA_W@std@@YAXPA_W0@Z 0041eea0 f i CheckDoc.obj
 0001:0001ded0       ??$_Insertion_sort1@PA_W_W@std@@YAXPA_W00@Z 0041eed0 f i CheckDoc.obj
 0001:0001dfc0       ??$lower_bound@PB_W_W@std@@YAPB_WPB_W0AB_W@Z 0041efc0 f i CheckDoc.obj
 0001:0001e010       ??$begin@V?$basic_string@_WU?$char_traits@_W@std@@V?$allocator@_W@2@@std@@@range_adl_barrier@boost@@YA?AV?$_String_const_iterator@_WU?$char_traits@_W@std@@V?$allocator@_W@2@@std@@ABV?$basic_string@_WU?$char_traits@_W@std@@V?$allocator@_W@2@@3@@Z 0041f010 f i CheckDoc.obj
 0001:0001e030       ??$end@V?$basic_string@_WU?$char_traits@_W@std@@V?$allocator@_W@2@@std@@@range_adl_barrier@boost@@YA?AV?$_String_const_iterator@_WU?$char_traits@_W@std@@V?$allocator@_W@2@@std@@ABV?$basic_string@_WU?$char_traits@_W@std@@V?$allocator@_W@2@@3@@Z 0041f030 f i CheckDoc.obj
 0001:0001e050       ??$?0V?$_String_const_iterator@_WU?$char_traits@_W@std@@V?$allocator@_W@2@@std@@@?$iterator_range_base@V?$_String_const_iterator@_WU?$char_traits@_W@std@@V?$allocator@_W@2@@std@@Ubidirectional_traversal_tag@iterators@boost@@@iterator_range_detail@boost@@IAE@V?$_String_const_iterator@_WU?$char_traits@_W@std@@V?$allocator@_W@2@@std@@0@Z 0041f050 f i CheckDoc.obj
 0001:0001e070       ??$_Med3@PA_W@std@@YAXPA_W00@Z 0041f070 f i CheckDoc.obj
 0001:0001e0e0       ??$swap@_W@std@@YAXAA_W0@Z 0041f0e0 f i CheckDoc.obj
 0001:0001e130       ??$_Adjust_heap@PA_WH_W@std@@YAXPA_WHH$$QA_W@Z 0041f130 f i CheckDoc.obj
 0001:0001e200       ??$_Pop_heap@PA_W@std@@YAXPA_W0@Z 0041f200 f i CheckDoc.obj
 0001:0001e240       ??$_Move_backward@PA_WPA_W@std@@YAPA_WPA_W00@Z 0041f240 f i CheckDoc.obj
 0001:0001e280       ??$_Lower_bound@PB_W_WH@std@@YAPB_WPB_W0AB_WPAH@Z 0041f280 f i CheckDoc.obj
 0001:0001e310       ??$range_begin@$$CBV?$basic_string@_WU?$char_traits@_W@std@@V?$allocator@_W@2@@std@@@range_detail@boost@@YA?AV?$_String_const_iterator@_WU?$char_traits@_W@std@@V?$allocator@_W@2@@std@@ABV?$basic_string@_WU?$char_traits@_W@std@@V?$allocator@_W@2@@3@@Z 0041f310 f i CheckDoc.obj
 0001:0001e330       ??$range_end@$$CBV?$basic_string@_WU?$char_traits@_W@std@@V?$allocator@_W@2@@std@@@range_detail@boost@@YA?AV?$_String_const_iterator@_WU?$char_traits@_W@std@@V?$allocator@_W@2@@std@@ABV?$basic_string@_WU?$char_traits@_W@std@@V?$allocator@_W@2@@3@@Z 0041f330 f i CheckDoc.obj
 0001:0001e350       ??$?0V?$_String_const_iterator@_WU?$char_traits@_W@std@@V?$allocator@_W@2@@std@@@?$iterator_range_base@V?$_String_const_iterator@_WU?$char_traits@_W@std@@V?$allocator@_W@2@@std@@Uincrementable_traversal_tag@iterators@boost@@@iterator_range_detail@boost@@IAE@V?$_String_const_iterator@_WU?$char_traits@_W@std@@V?$allocator@_W@2@@std@@0@Z 0041f350 f i CheckDoc.obj
 0001:0001e350       ??0CPoint@@QAE@HH@Z        0041f350 f i Ftab.obj
 0001:0001e350       ??0CSize@@QAE@HH@Z         0041f350 f i CheckButton.obj
 0001:0001e380       ??$_Push_heap@PA_WH_W@std@@YAXPA_WHH$$QA_W@Z 0041f380 f i CheckDoc.obj
 0001:0001e410       ??$_Pop_heap_0@PA_W_W@std@@YAXPA_W00@Z 0041f410 f i CheckDoc.obj
 0001:0001e470       ??$_Move_backward@PA_WPA_W@std@@YAPA_WPA_W00U_Scalar_ptr_iterator_tag@0@@Z 0041f470 f i CheckDoc.obj
 0001:0001e4b0       ??$_Distance@PA_WH@std@@YAXPA_W0AAH@Z 0041f4b0 f i DlgFindAll.obj
 0001:0001e4b0       ??$_Distance@PB_WH@std@@YAXPB_W0AAH@Z 0041f4b0 f i CheckDoc.obj
 0001:0001e4e0       ??$advance@PB_WH@std@@YAXAAPB_WH@Z 0041f4e0 f i CheckDoc.obj
 0001:0001e510       ?begin@?$basic_string@_WU?$char_traits@_W@std@@V?$allocator@_W@2@@std@@QBE?AV?$_String_const_iterator@_WU?$char_traits@_W@std@@V?$allocator@_W@2@@2@XZ 0041f510 f i CheckDoc.obj
 0001:0001e540       ?end@?$basic_string@_WU?$char_traits@_W@std@@V?$allocator@_W@2@@std@@QBE?AV?$_String_const_iterator@_WU?$char_traits@_W@std@@V?$allocator@_W@2@@2@XZ 0041f540 f i CheckDoc.obj
 0001:0001e570       ??$_Pop_heap@PA_WH_W@std@@YAXPA_W00$$QA_WPAH@Z 0041f570 f i CheckDoc.obj
 0001:0001e5b0       ??$_Distance2@PA_WH@std@@YAXPA_W0AAHUrandom_access_iterator_tag@0@@Z 0041f5b0 f i DlgFindAll.obj
 0001:0001e5b0       ??$_Distance2@PB_WH@std@@YAXPB_W0AAHUrandom_access_iterator_tag@0@@Z 0041f5b0 f i CheckDoc.obj
 0001:0001e5d0       ??$_Advance@PB_WH@std@@YAXAAPB_WHUrandom_access_iterator_tag@0@@Z 0041f5d0 f i CheckDoc.obj
 0001:0001e5f0       ?GetParentWnd@CMFCToolBarButton@@QBEPAVCWnd@@XZ 0041f5f0 f i CheckDoc.obj
 0001:0001e610       ?GetAllButtons@CMFCToolBar@@QBEABVCObList@@XZ 0041f610 f i CheckDoc.obj
 0001:0001e630       ??0_bstr_t@@QAE@PBD@Z      0041f630 f i CheckDoc.obj
 0001:0001e6d0       ??0Data_t@_bstr_t@@QAE@PBD@Z 0041f6d0 f i CheckDoc.obj
 0001:0001e710       ??0_variant_t@@QAE@ABV0@@Z 0041f710 f i CheckDoc.obj
 0001:0001e710       ??0_variant_t@@QAE@ABUtagVARIANT@@@Z 0041f710 f i CheckDoc.obj
 0001:0001e750       ??0_variant_t@@QAE@ABV_bstr_t@@@Z 0041f750 f i CheckDoc.obj
 0001:0001e7c0       ??B_variant_t@@QBENXZ      0041f7c0 f i CheckDoc.obj
 0001:0001e840       ?Description@_com_error@@QBE?AV_bstr_t@@XZ 0041f840 f i CheckDoc.obj
 0001:0001e8a0       ?Source@_com_error@@QBE?AV_bstr_t@@XZ 0041f8a0 f i CheckDoc.obj
 0001:0001e900       ?GetValue@Field20@@QAE?AV_variant_t@@XZ 0041f900 f i CheckDoc.obj
 0001:0001e970       ??0_variant_t@@QAE@AAUtagVARIANT@@_N@Z 0041f970 f i CheckDoc.obj
 0001:0001e9d0       ?GetItem@Fields15@@QAE?AV?$_com_ptr_t@V?$_com_IIID@UField@@$1?_GUID_00000569_0000_0010_8000_00aa006d2ea4@@3U__s_GUID@@B@@@@ABV_variant_t@@@Z 0041f9d0 f i CheckDoc.obj
 0001:0001ea70       ?PutRefActiveConnection@Command15@@QAEXPAU_Connection@@@Z 0041fa70 f i CheckDoc.obj
 0001:0001eab0       ?PutCommandText@Command15@@QAEXV_bstr_t@@@Z 0041fab0 f i CheckDoc.obj
 0001:0001eb40       ?Execute@Command15@@QAE?AV?$_com_ptr_t@V?$_com_IIID@U_Recordset@@$1?_GUID_00000556_0000_0010_8000_00aa006d2ea4@@3U__s_GUID@@B@@@@PAUtagVARIANT@@0J@Z 0041fb40 f i CheckDoc.obj
 0001:0001ebb0       ?PutCommandType@Command15@@QAEXW4CommandTypeEnum@@@Z 0041fbb0 f i CheckDoc.obj
 0001:0001ebf0       ?GetEndOfFile@Recordset15@@QAEFXZ 0041fbf0 f i CheckDoc.obj
 0001:0001ec40       ?GetFields@Recordset15@@QAE?AV?$_com_ptr_t@V?$_com_IIID@UFields@@$1?_GUID_00000564_0000_0010_8000_00aa006d2ea4@@3U__s_GUID@@B@@@@XZ 0041fc40 f i CheckDoc.obj
 0001:0001ecb0       ?Close@Recordset15@@QAEJXZ 0041fcb0 f i CheckDoc.obj
 0001:0001ecf0       ?MoveNext@Recordset15@@QAEJXZ 0041fcf0 f i CheckDoc.obj
 0001:0001ed30       ?_raise_error@@YAXJPA_W0@Z 0041fd30 f i CheckDoc.obj
 0001:0001ee10       ??1?$CComQIPtr@UIErrorInfo@@$1?_GUID_1cf2b120_547d_101b_8e65_08002b2bd119@@3U__s_GUID@@B@ATL@@QAE@XZ 0041fe10 f i CheckDoc.obj
 0001:0001ee10       ??1?$CComQIPtr@UIHead@DOC@@$1?_GUID_f367c9d1_91c2_464f_b146_96ba0d78846f@@3U__s_GUID@@B@ATL@@QAE@XZ 0041fe10 f i CheckDoc.obj
 0001:0001ee10       ??1?$CAdapt@V?$CComPtr@UIDispatch@@@ATL@@@ATL@@QAE@XZ 0041fe10 f i DlgSelectGood.obj
 0001:0001ee10       ??1?$CComQIPtr@UIValue@DOC@@$1?_GUID_7a6c2ad3_a46f_4cc4_8a8e_8860e038c139@@3U__s_GUID@@B@ATL@@QAE@XZ 0041fe10 f i CheckDoc.obj
 0001:0001ee10       ??1?$CComQIPtr@UITable@DOC@@$1?_GUID_976187a7_bd77_4972_b6c3_1f5dd4da1ab1@@3U__s_GUID@@B@ATL@@QAE@XZ 0041fe10 f i CheckDoc.obj
 0001:0001ee30       ?compare@?$char_traits@_W@std@@SAHPB_W0I@Z 0041fe30 f i CheckDoc.obj
 0001:0001ee50       _wmemcmp                   0041fe50 f i CheckDoc.obj
 0001:0001eeb0       ?length@?$char_traits@_W@std@@SAIPB_W@Z 0041feb0 f i CheckDoc.obj
 0001:0001eed0       ?to_char_type@?$char_traits@_W@std@@SA_WABG@Z 0041fed0 f i CheckDoc.obj
 0001:0001eed0       ?to_int_type@?$char_traits@_W@std@@SAGAB_W@Z 0041fed0 f i CheckDoc.obj
 0001:0001eee0       ?eq@?$char_traits@_W@std@@SA_NAB_W0@Z 0041fee0 f i CheckDoc.obj
 0001:0001eee0       ?eq_int_type@?$char_traits@_W@std@@SA_NABG0@Z 0041fee0 f i CheckDoc.obj
 0001:0001ef00       ?not_eof@?$char_traits@_W@std@@SAGABG@Z 0041ff00 f i CheckDoc.obj
 0001:0001ef40       ?eof@?$char_traits@_W@std@@SAGXZ 0041ff40 f i CheckDoc.obj
 0001:0001ef50       ?length@?$char_traits@D@std@@SAIPBD@Z 0041ff50 f i CheckDoc.obj
 0001:0001ef70       ??0runtime_error@std@@QAE@PBD@Z 0041ff70 f i CheckDoc.obj
 0001:0001efa0       ??_Gruntime_error@std@@UAEPAXI@Z 0041ffa0 f i CheckDoc.obj
 0001:0001efa0       ??_Eruntime_error@std@@UAEPAXI@Z 0041ffa0 f i CheckDoc.obj
 0001:0001efa0       ??_Ebad_weak_ptr@tr1@std@@UAEPAXI@Z 0041ffa0 f i FontDlgPage.obj
 0001:0001efa0       ??_Gbad_weak_ptr@tr1@std@@UAEPAXI@Z 0041ffa0 f i FontDlgPage.obj
 0001:0001efd0       ??1bad_weak_ptr@tr1@std@@UAE@XZ 0041ffd0 f i FontDlgPage.obj
 0001:0001efd0       ??1runtime_error@std@@UAE@XZ 0041ffd0 f i CheckDoc.obj
 0001:0001eff0       ??0runtime_error@std@@QAE@ABV01@@Z 0041fff0 f i CheckDoc.obj
 0001:0001f020       ??0locale@std@@QAE@ABV01@@Z 00420020 f i CheckDoc.obj
 0001:0001f050       ??0locale@std@@QAE@XZ      00420050 f i CheckDoc.obj
 0001:0001f080       ??1locale@std@@QAE@XZ      00420080 f i CheckDoc.obj
 0001:0001f0d0       ?Allocate@?$CAtlSafeAllocBufferManager@VCCRTAllocator@ATL@@@_ATL_SAFE_ALLOCA_IMPL@ATL@@QAEPAXK@Z 004200d0 f i CheckDoc.obj
 0001:0001f120       ?Allocate@CCRTAllocator@ATL@@SAPAXI@Z 00420120 f i CheckDoc.obj
 0001:0001f140       ??0?$CComPtrBase@UIDispatch@@@ATL@@IAE@PAUIDispatch@@@Z 00420140 f i CheckDoc.obj
 0001:0001f180       ??0?$CComQIPtr@UIErrorInfo@@$1?_GUID_1cf2b120_547d_101b_8e65_08002b2bd119@@3U__s_GUID@@B@ATL@@QAE@PAUIUnknown@@@Z 00420180 f i CheckDoc.obj
 0001:0001f1c0       ??0?$basic_string@DU?$char_traits@D@std@@V?$allocator@D@2@@std@@QAE@PBD@Z 004201c0 f i CheckDoc.obj
 0001:0001f240       ??1?$basic_string@DU?$char_traits@D@std@@V?$allocator@D@2@@std@@QAE@XZ 00420240 f i CheckDoc.obj
 0001:0001f2a0       ?c_str@?$basic_string@DU?$char_traits@D@std@@V?$allocator@D@2@@std@@QBEPBDXZ 004202a0 f i CheckDoc.obj
 0001:0001f2c0       ??0?$fpos@H@std@@QAE@_J@Z  004202c0 f i CheckDoc.obj
 0001:0001f300       ??B?$fpos@H@std@@QBE_JXZ   00420300 f i CheckDoc.obj
 0001:0001f320       ??1?$CComPtrBase@UIHead@DOC@@@ATL@@QAE@XZ 00420320 f i CheckDoc.obj
 0001:0001f320       ?_Release@?$_com_ptr_t@V?$_com_IIID@UField@@$1?_GUID_00000569_0000_0010_8000_00aa006d2ea4@@3U__s_GUID@@B@@@@AAEXXZ 00420320 f i CheckDoc.obj
 0001:0001f320       ??1?$CComPtrBase@UIErrorInfo@@@ATL@@QAE@XZ 00420320 f i CheckDoc.obj
 0001:0001f320       ?_Release@?$_com_ptr_t@V?$_com_IIID@UIMSMQQueue@MSMQ@@$1?_GUID_d7d6e076_dccd_11d0_aa4b_0060970debae@@3U__s_GUID@@B@@@@AAEXXZ 00420320 f i MainDocument.obj
 0001:0001f320       ?_Release@?$_com_ptr_t@V?$_com_IIID@UErrors@@$1?_GUID_00000501_0000_0010_8000_00aa006d2ea4@@3U__s_GUID@@B@@@@AAEXXZ 00420320 f i InfoConsole.obj
 0001:0001f320       ?_Release@?$_com_ptr_t@V?$_com_IIID@UIRow@DOC@@$1?_GUID_7969f54c_4ea5_4917_b576_3b26d9ed819c@@3U__s_GUID@@B@@@@AAEXXZ 00420320 f i CheckDoc.obj
 0001:0001f320       ?_Release@?$_com_ptr_t@V?$_com_IIID@UIMSMQMessage@MSMQ@@$1?_GUID_d7d6e074_dccd_11d0_aa4b_0060970debae@@3U__s_GUID@@B@@@@AAEXXZ 00420320 f i MainDocument.obj
 0001:0001f320       ?_Release@?$_com_ptr_t@V?$_com_IIID@UFields@@$1?_GUID_00000564_0000_0010_8000_00aa006d2ea4@@3U__s_GUID@@B@@@@AAEXXZ 00420320 f i CheckDoc.obj
 0001:0001f320       ?_Release@?$_com_ptr_t@V?$_com_IIID@UIMSMQQuery@MSMQ@@$1?_GUID_d7d6e072_dccd_11d0_aa4b_0060970debae@@3U__s_GUID@@B@@@@AAEXXZ 00420320 f i MainDocument.obj
 0001:0001f320       ??1?$CComPtrBase@UIDocOneC@DOC@@@ATL@@QAE@XZ 00420320 f i CheckDoc.obj
 0001:0001f320       ?_Release@?$_com_ptr_t@V?$_com_IIID@UIField@DOC@@$1?_GUID_3c9bf0b5_52b5_4a0b_9bf1_55828b2fdee4@@3U__s_GUID@@B@@@@AAEXXZ 00420320 f i CheckDoc.obj
 0001:0001f320       ??1?$CComPtrBase@UITable@DOC@@@ATL@@QAE@XZ 00420320 f i CheckDoc.obj
 0001:0001f320       ?_Release@?$_com_ptr_t@V?$_com_IIID@UParameters@@$1?_GUID_0000050d_0000_0010_8000_00aa006d2ea4@@3U__s_GUID@@B@@@@AAEXXZ 00420320 f i ReturnDoc.obj
 0001:0001f320       ?_Release@?$_com_ptr_t@V?$_com_IIID@UIMSMQQueueInfos@MSMQ@@$1?_GUID_d7d6e07d_dccd_11d0_aa4b_0060970debae@@3U__s_GUID@@B@@@@AAEXXZ 00420320 f i MainDocument.obj
 0001:0001f320       ?_Release@?$_com_ptr_t@V?$_com_IIID@UIMSMQQueueInfo@MSMQ@@$1?_GUID_d7d6e07b_dccd_11d0_aa4b_0060970debae@@3U__s_GUID@@B@@@@AAEXXZ 00420320 f i MainDocument.obj
 0001:0001f320       ?_Release@?$_com_ptr_t@V?$_com_IIID@U_Parameter@@$1?_GUID_0000050c_0000_0010_8000_00aa006d2ea4@@3U__s_GUID@@B@@@@AAEXXZ 00420320 f i ReturnDoc.obj
 0001:0001f320       ?_Release@?$_com_ptr_t@V?$_com_IIID@UError@@$1?_GUID_00000500_0000_0010_8000_00aa006d2ea4@@3U__s_GUID@@B@@@@AAEXXZ 00420320 f i InfoConsole.obj
 0001:0001f320       ?_Release@?$_com_ptr_t@V?$_com_IIID@U_Recordset@@$1?_GUID_00000556_0000_0010_8000_00aa006d2ea4@@3U__s_GUID@@B@@@@AAEXXZ 00420320 f i CheckDoc.obj
 0001:0001f320       ?_Release@?$_com_ptr_t@V?$_com_IIID@UIVSFlexGrid@@$1?_GUID_d76d712b_4a96_11d3_bd95_d296dc2dd072@@3U__s_GUID@@B@@@@AAEXXZ 00420320 f i CashPrinter.obj
 0001:0001f320       ??1?$CComPtrBase@UIValue@DOC@@@ATL@@QAE@XZ 00420320 f i CheckDoc.obj
 0001:0001f320       ?_Release@?$_com_ptr_t@V?$_com_IIID@U_Command@@$1?_GUID_b08400bd_f9d1_4d02_b856_71d5dba123e9@@3U__s_GUID@@B@@@@AAEXXZ 00420320 f i CheckDoc.obj
 0001:0001f320       ??1?$CComPtrBase@UICreateErrorInfo@@@ATL@@QAE@XZ 00420320 f i CheckDoc.obj
 0001:0001f320       ??1?$CComPtrBase@UIDispatch@@@ATL@@QAE@XZ 00420320 f i CheckDoc.obj
 0001:0001f320       ?_Release@?$_com_ptr_t@V?$_com_IIID@U_Connection@@$1?_GUID_00000550_0000_0010_8000_00aa006d2ea4@@3U__s_GUID@@B@@@@AAEXXZ 00420320 f i DBDoc.obj
 0001:0001f350       ?assign@?$basic_string@DU?$char_traits@D@std@@V?$allocator@D@2@@std@@QAEAAV12@PBD@Z 00420350 f i CheckDoc.obj
 0001:0001f380       ?_Tidy@?$basic_string@DU?$char_traits@D@std@@V?$allocator@D@2@@std@@QAEX_NI@Z 00420380 f i CheckDoc.obj
 0001:0001f400       ?copy@?$char_traits@D@std@@SAPADPADPBDI@Z 00420400 f i CheckDoc.obj
 0001:0001f420       ?_Myptr@?$basic_string@DU?$char_traits@D@std@@V?$allocator@D@2@@std@@QBEPBDXZ 00420420 f i CheckDoc.obj
 0001:0001f420       ?_Myptr@?$basic_string@DU?$char_traits@D@std@@V?$allocator@D@2@@std@@QAEPADXZ 00420420 f i CheckDoc.obj
 0001:0001f450       ?GetData@CAtlSafeAllocBufferNode@?$CAtlSafeAllocBufferManager@VCCRTAllocator@ATL@@@_ATL_SAFE_ALLOCA_IMPL@ATL@@QAEPAXXZ 00420450 f i CheckDoc.obj
 0001:0001f470       ??0?$basic_string@_WU?$char_traits@_W@std@@V?$allocator@_W@2@@std@@QAE@XZ 00420470 f i CheckDoc.obj
 0001:0001f4e0       ??0?$basic_string@_WU?$char_traits@_W@std@@V?$allocator@_W@2@@std@@QAE@PB_W@Z 004204e0 f i CheckDoc.obj
 0001:0001f560       ?assign@?$basic_string@_WU?$char_traits@_W@std@@V?$allocator@_W@2@@std@@QAEAAV12@$$QAV12@@Z 00420560 f i CheckDoc.obj
 0001:0001f630       ??Y?$basic_string@_WU?$char_traits@_W@std@@V?$allocator@_W@2@@std@@QAEAAV01@ABV01@@Z 00420630 f i CheckDoc.obj
 0001:0001f650       ??0sentry@?$basic_ostream@_WU?$char_traits@_W@std@@@std@@QAE@AAV12@@Z 00420650 f i CheckDoc.obj
 0001:0001f710       ??1sentry@?$basic_ostream@_WU?$char_traits@_W@std@@@std@@QAE@XZ 00420710 f i CheckDoc.obj
 0001:0001f780       ??Bsentry@?$basic_ostream@_WU?$char_traits@_W@std@@@std@@QBEPQ_Bool_struct@2@HXZ 00420780 f i CheckDoc.obj
 0001:0001f7a0       ?append@?$basic_string@DU?$char_traits@D@std@@V?$allocator@D@2@@std@@QAEAAV12@PBDI@Z 004207a0 f i CheckDoc.obj
 0001:0001f850       ?assign@?$basic_string@DU?$char_traits@D@std@@V?$allocator@D@2@@std@@QAEAAV12@PBDI@Z 00420850 f i CheckDoc.obj
 0001:0001f8d0       ?_Eos@?$basic_string@DU?$char_traits@D@std@@V?$allocator@D@2@@std@@QAEXI@Z 004208d0 f i CheckDoc.obj
 0001:0001f910       ?assign@?$char_traits@D@std@@SAXAADABD@Z 00420910 f i CheckDoc.obj
 0001:0001f920       ??4?$basic_string@_WU?$char_traits@_W@std@@V?$allocator@_W@2@@std@@QAEAAV01@ABV01@@Z 00420920 f i CheckDoc.obj
 0001:0001f940       ?append@?$basic_string@_WU?$char_traits@_W@std@@V?$allocator@_W@2@@std@@QAEAAV12@ABV12@@Z 00420940 f i CheckDoc.obj
 0001:0001f970       ?assign@?$basic_string@_WU?$char_traits@_W@std@@V?$allocator@_W@2@@std@@QAEAAV12@PB_W@Z 00420970 f i CheckDoc.obj
 0001:0001f9a0       ?get_allocator@?$basic_string@_WU?$char_traits@_W@std@@V?$allocator@_W@2@@std@@QBE?AV?$allocator@_W@2@XZ 004209a0 f i CheckDoc.obj
 0001:0001f9a0       ?get_allocator@?$basic_string@DU?$char_traits@D@std@@V?$allocator@D@2@@std@@QBE?AV?$allocator@D@2@XZ 004209a0 f i MainDocument.obj
 0001:0001f9c0       ??0_Sentry_base@?$basic_ostream@_WU?$char_traits@_W@std@@@std@@QAE@AAV12@@Z 004209c0 f i CheckDoc.obj
 0001:0001fa20       ??1_Sentry_base@?$basic_ostream@_WU?$char_traits@_W@std@@@std@@QAE@XZ 00420a20 f i CheckDoc.obj
 0001:0001fa70       ?append@?$basic_string@DU?$char_traits@D@std@@V?$allocator@D@2@@std@@QAEAAV12@ABV12@II@Z 00420a70 f i CheckDoc.obj
 0001:0001fb30       ?_Xran@?$basic_string@_WU?$char_traits@_W@std@@V?$allocator@_W@2@@std@@QBEXXZ 00420b30 f i CashPrinter.obj
 0001:0001fb30       ?_Xran@?$basic_string@DU?$char_traits@D@std@@V?$allocator@D@2@@std@@QBEXXZ 00420b30 f i CheckDoc.obj
 0001:0001fb50       ?assign@?$basic_string@DU?$char_traits@D@std@@V?$allocator@D@2@@std@@QAEAAV12@ABV12@II@Z 00420b50 f i CheckDoc.obj
 0001:0001fc10       ?_Grow@?$basic_string@DU?$char_traits@D@std@@V?$allocator@D@2@@std@@QAE_NI_N@Z 00420c10 f i CheckDoc.obj
 0001:0001fcb0       ?_Inside@?$basic_string@DU?$char_traits@D@std@@V?$allocator@D@2@@std@@QAE_NPBD@Z 00420cb0 f i CheckDoc.obj
 0001:0001fcf0       ?append@?$basic_string@_WU?$char_traits@_W@std@@V?$allocator@_W@2@@std@@QAEAAV12@ABV12@II@Z 00420cf0 f i CheckDoc.obj
 0001:0001fdb0       ?assign@?$basic_string@_WU?$char_traits@_W@std@@V?$allocator@_W@2@@std@@QAEAAV12@ABV12@@Z 00420db0 f i CheckDoc.obj
 0001:0001fde0       ?assign@?$basic_string@_WU?$char_traits@_W@std@@V?$allocator@_W@2@@std@@QAEAAV12@PB_WI@Z 00420de0 f i CheckDoc.obj
 0001:0001fe60       ?erase@?$basic_string@DU?$char_traits@D@std@@V?$allocator@D@2@@std@@QAEAAV12@II@Z 00420e60 f i CheckDoc.obj
 0001:0001fef0       ?move@?$char_traits@D@std@@SAPADPADPBDI@Z 00420ef0 f i CheckDoc.obj
 0001:0001ff10       ?max_size@?$basic_string@DU?$char_traits@D@std@@V?$allocator@D@2@@std@@QBEIXZ 00420f10 f i CheckDoc.obj
 0001:0001ff50       ?_Copy@?$basic_string@DU?$char_traits@D@std@@V?$allocator@D@2@@std@@QAEXII@Z 00420f50 f i CheckDoc.obj
 0001:000200e0       ?_Inside@?$basic_string@_WU?$char_traits@_W@std@@V?$allocator@_W@2@@std@@QAE_NPB_W@Z 004210e0 f i CheckDoc.obj
 0001:00020120       ?allocate@?$allocator@D@std@@QAEPADI@Z 00421120 f i CheckDoc.obj
 0001:00020140       ?max_size@?$allocator@D@std@@QBEIXZ 00421140 f i CheckDoc.obj
 0001:00020170       ??$AtlAdd@K@ATL@@YAJPAKKK@Z 00421170 f i CheckDoc.obj
 0001:000201a0       ??$use_facet@V?$ctype@_W@std@@@std@@YAABV?$ctype@_W@0@ABVlocale@0@@Z 004211a0 f i CheckDoc.obj
 0001:000202a0       ?_Register@facet@locale@std@@QAEXXZ 004212a0 f i CheckDoc.obj
 0001:000202c0       ?_Getfacet@locale@std@@QBEPBVfacet@12@I@Z 004212c0 f i CheckDoc.obj
 0001:00020350       ??$AtlAddThrow@K@ATL@@YAKKK@Z 00421350 f i CheckDoc.obj
 0001:00020390       ??$swap@D@std@@YAXAAD0@Z   00421390 f i CheckDoc.obj
 0001:000203d0       ??$?9_W_W@std@@YA_NABV?$allocator@_W@0@0@Z 004213d0 f i CheckDoc.obj
 0001:000203d0       ??$?9U?$pair@$$CBV?$basic_string@_WU?$char_traits@_W@std@@V?$allocator@_W@2@@std@@V12@@std@@U01@@std@@YA_NABV?$allocator@U?$pair@$$CBV?$basic_string@_WU?$char_traits@_W@std@@V?$allocator@_W@2@@std@@V12@@std@@@0@0@Z 004213d0 f i CheckDoc.obj
 0001:000203f0       ??$_Allocate@D@std@@YAPADIPAD@Z 004213f0 f i CheckDoc.obj
 0001:00020450       ?CreateObject@CMercury@@SGPAVCObject@@XZ 00421450 f   cmercury.obj
 0001:000204c0       ?_GetBaseClass@CMercury@@KGPAUCRuntimeClass@@XZ 004214c0 f   cmercury.obj
 0001:000204d0       ?GetThisClass@CMercury@@SGPAUCRuntimeClass@@XZ 004214d0 f   cmercury.obj
 0001:000204e0       ?GetRuntimeClass@CMercury@@UBEPAUCRuntimeClass@@XZ 004214e0 f   cmercury.obj
 0001:000204f0       ?Open@CMercury@@QAEXXZ     004214f0 f   cmercury.obj
 0001:00020520       ?Close@CMercury@@QAEXH@Z   00421520 f   cmercury.obj
 0001:00020550       ?OpenReceipt@CMercury@@QAEXJ@Z 00421550 f   cmercury.obj
 0001:00020580       ?AddReceiptItem@CMercury@@QAEXPBDABTtagCY@@HJJJJJJ0J@Z 00421580 f   cmercury.obj
 0001:000205e0       ?CancelReceipt@CMercury@@QAEXXZ 004215e0 f   cmercury.obj
 0001:00020610       ?CloseReceipt@CMercury@@QAEXPBDJABTtagCY@@10JJ@Z 00421610 f   cmercury.obj
 0001:00020660       ?OpenCustomDoc@CMercury@@QAEXHJ@Z 00421660 f   cmercury.obj
 0001:000206a0       ?CancelCustomDoc@CMercury@@QAEXXZ 004216a0 f   cmercury.obj
 0001:000206d0       ?CloseCustomDoc@CMercury@@QAEXJJJJJJJJ@Z 004216d0 f   cmercury.obj
 0001:00020720       ?OpenFiscalDoc@CMercury@@QAEXJ@Z 00421720 f   cmercury.obj
 0001:00020750       ?CancelFiscalDoc@CMercury@@QAEXH@Z 00421750 f   cmercury.obj
 0001:00020780       ?PrintFiscalDocBuffer@CMercury@@QAEXXZ 00421780 f   cmercury.obj
 0001:000207b0       ?CloseFiscalDoc@CMercury@@QAEXXZ 004217b0 f   cmercury.obj
 0001:000207e0       ?CopyFiscalDoc@CMercury@@QAEXXZ 004217e0 f   cmercury.obj
 0001:00020810       ?AddSerialNumber@CMercury@@QAEXJJJ@Z 00421810 f   cmercury.obj
 0001:00020850       ?AddHeaderLine@CMercury@@QAEXJJJJ@Z 00421850 f   cmercury.obj
 0001:00020890       ?AddDateTime@CMercury@@QAEXJJJ@Z 00421890 f   cmercury.obj
 0001:000208d0       ?AddOperInfo@CMercury@@QAEXJJJJ@Z 004218d0 f   cmercury.obj
 0001:00020910       ?AddDocNumber@CMercury@@QAEXJJJ@Z 00421910 f   cmercury.obj
 0001:00020950       ?AddReceiptNumber@CMercury@@QAEXJJJ@Z 00421950 f   cmercury.obj
 0001:00020990       ?AddAccount@CMercury@@QAEXPBDJJJ@Z 00421990 f   cmercury.obj
 0001:000209d0       ?AddTaxPayerNumber@CMercury@@QAEXJJJ@Z 004219d0 f   cmercury.obj
 0001:00020a10       ?AddItem@CMercury@@QAEXJABTtagCY@@HJJJJJJPBDJJJJ@Z 00421a10 f   cmercury.obj
 0001:00020a80       ?AddDocPercentAdj@CMercury@@QAEXJJJJJJ@Z 00421a80 f   cmercury.obj
 0001:00020ad0       ?AddDocAmountAdj@CMercury@@QAEXABTtagCY@@JJJJJ@Z 00421ad0 f   cmercury.obj
 0001:00020b20       ?AddTotal@CMercury@@QAEXJJJJ@Z 00421b20 f   cmercury.obj
 0001:00020b60       ?AddPay@CMercury@@QAEXJABTtagCY@@0PBDJJJJ@Z 00421b60 f   cmercury.obj
 0001:00020bb0       ?AddChange@CMercury@@QAEXJJJJ@Z 00421bb0 f   cmercury.obj
 0001:00020bf0       ?AddTaxSum@CMercury@@QAEXJJJJJ@Z 00421bf0 f   cmercury.obj
 0001:00020c30       ?AddFiscalSign@CMercury@@QAEXJJJ@Z 00421c30 f   cmercury.obj
 0001:00020c70       ?AddBarcode@CMercury@@QAEXJJJJJHJJJ@Z 00421c70 f   cmercury.obj
 0001:00020cc0       ?AddCustom@CMercury@@QAEXPBDJJJ@Z 00421cc0 f   cmercury.obj
 0001:00020d00       ?RepeatOperation@CMercury@@QAEXXZ 00421d00 f   cmercury.obj
 0001:00020d30       ?OpenDay@CMercury@@QAEXJPBDHJ@Z 00421d30 f   cmercury.obj
 0001:00020d70       ?ZReport@CMercury@@QAEJJ@Z 00421d70 f   cmercury.obj
 0001:00020db0       ?FiscalRewrite@CMercury@@QAEJPBD000@Z 00421db0 f   cmercury.obj
 0001:00020df0       ?FiscalReportByNum@CMercury@@QAEJPBDHJJ@Z 00421df0 f   cmercury.obj
 0001:00020e30       ?FiscalReportByDate@CMercury@@QAEJPBDHNN@Z 00421e30 f   cmercury.obj
 0001:00020e80       ?FiscalReportAll@CMercury@@QAEJPBD@Z 00421e80 f   cmercury.obj
 0001:00020ec0       ?FeedAndCut@CMercury@@QAEXJH@Z 00421ec0 f   cmercury.obj
 0001:00020f00       ?PrintNonFiscal@CMercury@@QAEXPBDHH@Z 00421f00 f   cmercury.obj
 0001:00020f40       ?ShowDisplay@CMercury@@QAEXPBDHH@Z 00421f40 f   cmercury.obj
 0001:00020f80       ?SetDisplayBaudRate@CMercury@@QAEXJ@Z 00421f80 f   cmercury.obj
 0001:00020fb0       ?ExternalPulse@CMercury@@QAEXJJJJ@Z 00421fb0 f   cmercury.obj
 0001:00020ff0       ?QueryDevExStatus@CMercury@@QAEXXZ 00421ff0 f   cmercury.obj
 0001:00021020       ?QueryFirmwareInfo@CMercury@@QAEXXZ 00422020 f   cmercury.obj
 0001:00021050       ?SetHeader@CMercury@@QAEXPBD000@Z 00422050 f   cmercury.obj
 0001:00021090       ?SetTax@CMercury@@QAEXJPBDJ@Z 00422090 f   cmercury.obj
 0001:000210d0       ?QueryTax@CMercury@@QAEJJ@Z 004220d0 f   cmercury.obj
 0001:00021110       ?QueryCounter@CMercury@@QAE?ATtagCY@@JH@Z 00422110 f   cmercury.obj
 0001:00021160       ?SynchronizeEcrDateTime@CMercury@@QAEXXZ 00422160 f   cmercury.obj
 0001:00021190       ?QueryResourceInfo@CMercury@@QAEXH@Z 00422190 f   cmercury.obj
 0001:000211c0       ?QueryLastDocInfo@CMercury@@QAEXXZ 004221c0 f   cmercury.obj
 0001:000211f0       ?SetParameters@CMercury@@QAEXJJ@Z 004221f0 f   cmercury.obj
 0001:00021230       ?GetEcrModel@CMercury@@QAEJXZ 00422230 f   cmercury.obj
 0001:00021260       ?GetEcrVersion@CMercury@@QAEJXZ 00422260 f   cmercury.obj
 0001:00021290       ?GetGeneration@CMercury@@QAEJXZ 00422290 f   cmercury.obj
 0001:000212c0       ?GetProtocol@CMercury@@QAEJXZ 004222c0 f   cmercury.obj
 0001:000212f0       ?GetEcrStatus@CMercury@@QAEJXZ 004222f0 f   cmercury.obj
 0001:00021320       ?GetEcrStatusMask@CMercury@@QAEJXZ 00422320 f   cmercury.obj
 0001:00021350       ?GetDevStatus@CMercury@@QAEJXZ 00422350 f   cmercury.obj
 0001:00021380       ?GetDevStatusMask@CMercury@@QAEJXZ 00422380 f   cmercury.obj
 0001:000213b0       ?GetDocStatus@CMercury@@QAEJXZ 004223b0 f   cmercury.obj
 0001:000213e0       ?GetCurrentOper@CMercury@@QAEJXZ 004223e0 f   cmercury.obj
 0001:00021410       ?GetPortNum@CMercury@@QAEJXZ 00422410 f   cmercury.obj
 0001:00021440       ?SetPortNum@CMercury@@QAEXJ@Z 00422440 f   cmercury.obj
 0001:00021470       ?GetBaudRate@CMercury@@QAEJXZ 00422470 f   cmercury.obj
 0001:000214a0       ?SetBaudRate@CMercury@@QAEXJ@Z 004224a0 f   cmercury.obj
 0001:000214d0       ?GetPassword@CMercury@@QAE?AV?$CStringT@DV?$StrTraitMFC_DLL@DV?$ChTraitsCRT@D@ATL@@@@@ATL@@XZ 004224d0 f   cmercury.obj
 0001:00021570       ?SetPassword@CMercury@@QAEXPBD@Z 00422570 f   cmercury.obj
 0001:000215a0       ?GetInternalTimeout@CMercury@@QAEJXZ 004225a0 f   cmercury.obj
 0001:000215d0       ?SetInternalTimeout@CMercury@@QAEXJ@Z 004225d0 f   cmercury.obj
 0001:00021600       ?GetExternalTimeout@CMercury@@QAEJXZ 00422600 f   cmercury.obj
 0001:00021630       ?SetExternalTimeout@CMercury@@QAEXJ@Z 00422630 f   cmercury.obj
 0001:00021660       ?QueryHeaderLine@CMercury@@QAE?AV?$CStringT@DV?$StrTraitMFC_DLL@DV?$ChTraitsCRT@D@ATL@@@@@ATL@@J@Z 00422660 f   cmercury.obj
 0001:00021700       ?QuerySerialNumber@CMercury@@QAE?AV?$CStringT@DV?$StrTraitMFC_DLL@DV?$ChTraitsCRT@D@ATL@@@@@ATL@@XZ 00422700 f   cmercury.obj
 0001:000217a0       ?SetSerialNumber@CMercury@@QAEXPBD@Z 004227a0 f   cmercury.obj
 0001:000217d0       ?QueryTaxPayerNumber@CMercury@@QAE?AV?$CStringT@DV?$StrTraitMFC_DLL@DV?$ChTraitsCRT@D@ATL@@@@@ATL@@XZ 004227d0 f   cmercury.obj
 0001:00021870       ?QueryRegNumber@CMercury@@QAE?AV?$CStringT@DV?$StrTraitMFC_DLL@DV?$ChTraitsCRT@D@ATL@@@@@ATL@@XZ 00422870 f   cmercury.obj
 0001:00021910       ?QueryEcrDateTime@CMercury@@QAENXZ 00422910 f   cmercury.obj
 0001:00021940       ?QueryDepartName@CMercury@@QAE?AV?$CStringT@DV?$StrTraitMFC_DLL@DV?$ChTraitsCRT@D@ATL@@@@@ATL@@J@Z 00422940 f   cmercury.obj
 0001:000219e0       ?SetDepartName@CMercury@@QAEXJPBD@Z 004229e0 f   cmercury.obj
 0001:00021a20       ?QueryTitle@CMercury@@QAE?AV?$CStringT@DV?$StrTraitMFC_DLL@DV?$ChTraitsCRT@D@ATL@@@@@ATL@@J@Z 00422a20 f   cmercury.obj
 0001:00021ac0       ?SetTitle@CMercury@@QAEXJPBD@Z 00422ac0 f   cmercury.obj
 0001:00021b00       ?GetActive@CMercury@@QAEHXZ 00422b00 f   cmercury.obj
 0001:00021b30       ?SetActive@CMercury@@QAEXH@Z 00422b30 f   cmercury.obj
 0001:00021b60       ?GetConnState@CMercury@@QAEJXZ 00422b60 f   cmercury.obj
 0001:00021b90       ?GetSaleSum@CMercury@@QAE?ATtagCY@@XZ 00422b90 f   cmercury.obj
 0001:00021bd0       ?GetBuyingSum@CMercury@@QAE?ATtagCY@@XZ 00422bd0 f   cmercury.obj
 0001:00021c10       ?GetSerialNumber@CMercury@@QAE?AV?$CStringT@DV?$StrTraitMFC_DLL@DV?$ChTraitsCRT@D@ATL@@@@@ATL@@XZ 00422c10 f   cmercury.obj
 0001:00021cb0       ?GetRegNumber@CMercury@@QAE?AV?$CStringT@DV?$StrTraitMFC_DLL@DV?$ChTraitsCRT@D@ATL@@@@@ATL@@XZ 00422cb0 f   cmercury.obj
 0001:00021d50       ?GetTaxPayerNumber@CMercury@@QAE?AV?$CStringT@DV?$StrTraitMFC_DLL@DV?$ChTraitsCRT@D@ATL@@@@@ATL@@XZ 00422d50 f   cmercury.obj
 0001:00021df0       ?GetHeaderLine1@CMercury@@QAE?AV?$CStringT@DV?$StrTraitMFC_DLL@DV?$ChTraitsCRT@D@ATL@@@@@ATL@@XZ 00422df0 f   cmercury.obj
 0001:00021e90       ?GetHeaderLine2@CMercury@@QAE?AV?$CStringT@DV?$StrTraitMFC_DLL@DV?$ChTraitsCRT@D@ATL@@@@@ATL@@XZ 00422e90 f   cmercury.obj
 0001:00021f30       ?GetHeaderLine3@CMercury@@QAE?AV?$CStringT@DV?$StrTraitMFC_DLL@DV?$ChTraitsCRT@D@ATL@@@@@ATL@@XZ 00422f30 f   cmercury.obj
 0001:00021fd0       ?GetHeaderLine4@CMercury@@QAE?AV?$CStringT@DV?$StrTraitMFC_DLL@DV?$ChTraitsCRT@D@ATL@@@@@ATL@@XZ 00422fd0 f   cmercury.obj
 0001:00022070       ?GetStartDate@CMercury@@QAENXZ 00423070 f   cmercury.obj
 0001:000220a0       ?GetEndDate@CMercury@@QAENXZ 004230a0 f   cmercury.obj
 0001:000220d0       ?GetStartNumber@CMercury@@QAEJXZ 004230d0 f   cmercury.obj
 0001:00022100       ?GetEndNumber@CMercury@@QAEJXZ 00423100 f   cmercury.obj
 0001:00022130       ?GetReportDate@CMercury@@QAENXZ 00423130 f   cmercury.obj
 0001:00022160       ?GetModelName@CMercury@@QAE?AV?$CStringT@DV?$StrTraitMFC_DLL@DV?$ChTraitsCRT@D@ATL@@@@@ATL@@XZ 00423160 f   cmercury.obj
 0001:00022200       ?GetManufacturer@CMercury@@QAE?AV?$CStringT@DV?$StrTraitMFC_DLL@DV?$ChTraitsCRT@D@ATL@@@@@ATL@@XZ 00423200 f   cmercury.obj
 0001:000222a0       ?GetFirmwareVersion@CMercury@@QAE?AV?$CStringT@DV?$StrTraitMFC_DLL@DV?$ChTraitsCRT@D@ATL@@@@@ATL@@XZ 004232a0 f   cmercury.obj
 0001:00022340       ?GetTaxName@CMercury@@QAE?AV?$CStringT@DV?$StrTraitMFC_DLL@DV?$ChTraitsCRT@D@ATL@@@@@ATL@@XZ 00423340 f   cmercury.obj
 0001:000223e0       ?GetTaxDate@CMercury@@QAENXZ 004233e0 f   cmercury.obj
 0001:00022410       ?GetCounterCount@CMercury@@QAEJXZ 00423410 f   cmercury.obj
 0001:00022440       ?GetRewritesRemain@CMercury@@QAEJXZ 00423440 f   cmercury.obj
 0001:00022470       ?GetDaysRemain@CMercury@@QAEJXZ 00423470 f   cmercury.obj
 0001:000224a0       ?GetLastFiscalReport@CMercury@@QAEJXZ 004234a0 f   cmercury.obj
 0001:000224d0       ?GetLastDayClosing@CMercury@@QAEJXZ 004234d0 f   cmercury.obj
 0001:00022500       ?GetDayDate@CMercury@@QAENXZ 00423500 f   cmercury.obj
 0001:00022530       ?GetLastDocOper@CMercury@@QAEJXZ 00423530 f   cmercury.obj
 0001:00022560       ?GetLastDocNumber@CMercury@@QAEJXZ 00423560 f   cmercury.obj
 0001:00022590       ?GetLastRecNumber@CMercury@@QAEJXZ 00423590 f   cmercury.obj
 0001:000225c0       ?GetLastDocType@CMercury@@QAEJXZ 004235c0 f   cmercury.obj
 0001:000225f0       ?GetLastDocSum@CMercury@@QAE?ATtagCY@@XZ 004235f0 f   cmercury.obj
 0001:00022630       ?GetLastDocDate@CMercury@@QAENXZ 00423630 f   cmercury.obj
 0001:00022660       ?GetRetryOperation@CMercury@@QAEHXZ 00423660 f   cmercury.obj
 0001:00022690       ?SetRetryOperation@CMercury@@QAEXH@Z 00423690 f   cmercury.obj
 0001:000226c0       ?GetErrCode@CMercury@@QAEJXZ 004236c0 f   cmercury.obj
 0001:000226f0       ?GetErrCodeEx@CMercury@@QAEJXZ 004236f0 f   cmercury.obj
 0001:00022720       ?GetErrMessage@CMercury@@QAE?AV?$CStringT@DV?$StrTraitMFC_DLL@DV?$ChTraitsCRT@D@ATL@@@@@ATL@@XZ 00423720 f   cmercury.obj
 0001:000227c0       ?CheckEcrStatus@CMercury@@QAEJJ@Z 004237c0 f   cmercury.obj
 0001:00022800       ?CheckDevStatus@CMercury@@QAEJJ@Z 00423800 f   cmercury.obj
 0001:00022840       ?GetEcrHour@CMercury@@QAEJXZ 00423840 f   cmercury.obj
 0001:00022870       ?GetEcrMin@CMercury@@QAEJXZ 00423870 f   cmercury.obj
 0001:000228a0       ?GetReportHour@CMercury@@QAEJXZ 004238a0 f   cmercury.obj
 0001:000228d0       ?GetReportMin@CMercury@@QAEJXZ 004238d0 f   cmercury.obj
 0001:00022900       ?GetDayHour@CMercury@@QAEJXZ 00423900 f   cmercury.obj
 0001:00022930       ?GetDayMin@CMercury@@QAEJXZ 00423930 f   cmercury.obj
 0001:00022960       ?GetLastDocHour@CMercury@@QAEJXZ 00423960 f   cmercury.obj
 0001:00022990       ?GetLastDocMin@CMercury@@QAEJXZ 00423990 f   cmercury.obj
 0001:000229c0       ?AddGraphicHeader@CMercury@@QAEXJJJ@Z 004239c0 f   cmercury.obj
 0001:00022a00       ?SetProtocol@CMercury@@QAEXJ@Z 00423a00 f   cmercury.obj
 0001:00022a30       ?SetPrinterTimeout@CMercury@@QAEXJ@Z 00423a30 f   cmercury.obj
 0001:00022a60       ?SetDisplayTimeout@CMercury@@QAEXJ@Z 00423a60 f   cmercury.obj
 0001:00022a90       ?SetPrinterContrast@CMercury@@QAEXJ@Z 00423a90 f   cmercury.obj
 0001:00022ac0       ?SetLeading@CMercury@@QAEXJ@Z 00423ac0 f   cmercury.obj
 0001:00022af0       ?SetCutterDisabled@CMercury@@QAEXH@Z 00423af0 f   cmercury.obj
 0001:00022b20       ?SetNarrowPaper@CMercury@@QAEXH@Z 00423b20 f   cmercury.obj
 0001:00022b50       ?QueryPrinterTimeout@CMercury@@QAEJXZ 00423b50 f   cmercury.obj
 0001:00022b80       ?QueryDisplayTimeout@CMercury@@QAEJXZ 00423b80 f   cmercury.obj
 0001:00022bb0       ?QueryPrinterContrast@CMercury@@QAEJXZ 00423bb0 f   cmercury.obj
 0001:00022be0       ?QueryLeading@CMercury@@QAEJXZ 00423be0 f   cmercury.obj
 0001:00022c10       ?EnableGraphicHeader@CMercury@@QAEXJJPBD@Z 00423c10 f   cmercury.obj
 0001:00022c50       ?DisableGraphicHeader@CMercury@@QAEXXZ 00423c50 f   cmercury.obj
 0001:00022c80       ?AddLicence@CMercury@@QAEXJPBD@Z 00423c80 f   cmercury.obj
 0001:00022cc0       ?XReport@CMercury@@QAEJJ@Z 00423cc0 f   cmercury.obj
 0001:00022d00       ?XReportByDep@CMercury@@QAEJJJ@Z 00423d00 f   cmercury.obj
 0001:00022d40       ?XReportByOper@CMercury@@QAEJJJ@Z 00423d40 f   cmercury.obj
 0001:00022d80       ?QueryHeaderAlignment@CMercury@@QAEHXZ 00423d80 f   cmercury.obj
 0001:00022db0       ?QueryOperNumber@CMercury@@QAEJXZ 00423db0 f   cmercury.obj
 0001:00022de0       ?QueryOperName@CMercury@@QAE?AV?$CStringT@DV?$StrTraitMFC_DLL@DV?$ChTraitsCRT@D@ATL@@@@@ATL@@J@Z 00423de0 f   cmercury.obj
 0001:00022e80       ?SetHeaderAlignment@CMercury@@QAEXH@Z 00423e80 f   cmercury.obj
 0001:00022eb0       ?TestConnection@CMercury@@QAEXXZ 00423eb0 f   cmercury.obj
 0001:00022ee0       ?GetVersionNumber@CMercury@@QAEJXZ 00423ee0 f   cmercury.obj
 0001:00022f10       ?GetBuildNumber@CMercury@@QAEJXZ 00423f10 f   cmercury.obj
 0001:00022f40       ?GetVersion@CMercury@@QAE?AV?$CStringT@DV?$StrTraitMFC_DLL@DV?$ChTraitsCRT@D@ATL@@@@@ATL@@XZ 00423f40 f   cmercury.obj
 0001:00022fe0       ?SetVersion@CMercury@@QAEXPBD@Z 00423fe0 f   cmercury.obj
 0001:00023010       ?GetBorderSize@CMercury@@QAEJXZ 00424010 f   cmercury.obj
 0001:00023040       ?SetBorderSize@CMercury@@QAEXJ@Z 00424040 f   cmercury.obj
 0001:00023070       ?GetShowState@CMercury@@QAEHXZ 00424070 f   cmercury.obj
 0001:000230a0       ?SetShowState@CMercury@@QAEXH@Z 004240a0 f   cmercury.obj
 0001:000230d0       ?GetEnabled@CMercury@@QAEHXZ 004240d0 f   cmercury.obj
 0001:00023100       ?SetEnabled@CMercury@@QAEXH@Z 00424100 f   cmercury.obj
 0001:00023130       ?AboutBox@CMercury@@QAEXXZ 00424130 f   cmercury.obj
 0001:00023160       ?QueryAutocut@CMercury@@QAEHXZ 00424160 f   cmercury.obj
 0001:00023190       ?SetAutocut@CMercury@@QAEXH@Z 00424190 f   cmercury.obj
 0001:000231c0       ?QueryEconomicMode@CMercury@@QAEHXZ 004241c0 f   cmercury.obj
 0001:000231f0       ?SetEconomicMode@CMercury@@QAEXH@Z 004241f0 f   cmercury.obj
 0001:00023220       ?GetEcrSubVersion@CMercury@@QAEJXZ 00424220 f   cmercury.obj
 0001:00023250       ?EKLZActivate@CMercury@@QAEXXZ 00424250 f   cmercury.obj
 0001:00023280       ?EKLZActivationReport@CMercury@@QAEXXZ 00424280 f   cmercury.obj
 0001:000232b0       ?EKLZDayReport@CMercury@@QAEXJ@Z 004242b0 f   cmercury.obj
 0001:000232e0       ?EKLZReportByNum@CMercury@@QAEXHJJ@Z 004242e0 f   cmercury.obj
 0001:00023320       ?EKLZReportByDate@CMercury@@QAEXHNN@Z 00424320 f   cmercury.obj
 0001:00023360       ?EKLZDocByNum@CMercury@@QAEXJ@Z 00424360 f   cmercury.obj
 0001:00023390       ?EKLZControlByNum@CMercury@@QAEXJ@Z 00424390 f   cmercury.obj
 0001:000233c0       ?EKLZCloseArchive@CMercury@@QAEXXZ 004243c0 f   cmercury.obj
 0001:000233f0       ?EKLZQueryStatus@CMercury@@QAEXXZ 004243f0 f   cmercury.obj
 0001:00023420       ?QueryPaperJournal@CMercury@@QAEHXZ 00424420 f   cmercury.obj
 0001:00023450       ?SetPaperJournal@CMercury@@QAEXH@Z 00424450 f   cmercury.obj
 0001:00023480       ?GetEKLZSupported@CMercury@@QAEHXZ 00424480 f   cmercury.obj
 0001:000234b0       ?GetEKLZActivated@CMercury@@QAEHXZ 004244b0 f   cmercury.obj
 0001:000234e0       ?GetEKLZOper@CMercury@@QAEJXZ 004244e0 f   cmercury.obj
 0001:00023510       ?GetEKLZArchiving@CMercury@@QAEHXZ 00424510 f   cmercury.obj
 0001:00023540       ?GetEKLZReporting@CMercury@@QAEHXZ 00424540 f   cmercury.obj
 0001:00023570       ?GetEKLZDayOpened@CMercury@@QAEHXZ 00424570 f   cmercury.obj
 0001:000235a0       ?GetEKLZFatalError@CMercury@@QAEHXZ 004245a0 f   cmercury.obj
 0001:000235d0       ?GetEKLZAttention@CMercury@@QAEHXZ 004245d0 f   cmercury.obj
 0001:00023600       ?QueryFullJournal@CMercury@@QAEHXZ 00424600 f   cmercury.obj
 0001:00023630       ?SetFullJournal@CMercury@@QAEXH@Z 00424630 f   cmercury.obj
 0001:00023660       ?AddEKLZData@CMercury@@QAEXJJJ@Z 00424660 f   cmercury.obj
 0001:000236a0       ?GetLastBuyingSum@CMercury@@QAE?ATtagCY@@XZ 004246a0 f   cmercury.obj
 0001:000236e0       ?AddRegNumber@CMercury@@QAEXJJJ@Z 004246e0 f   cmercury.obj
 0001:00023720       ?WriteGraphic@CMercury@@QAEXJJJPBD@Z 00424720 f   cmercury.obj
 0001:00023760       ?PrintGraphic@CMercury@@QAEXJJPBD@Z 00424760 f   cmercury.obj
 0001:000237a0       ?QueryParameterBool@CMercury@@QAEHJ@Z 004247a0 f   cmercury.obj
 0001:000237e0       ?QueryParameterInt@CMercury@@QAEJJ@Z 004247e0 f   cmercury.obj
 0001:00023820       ?SetParameterBool@CMercury@@QAEXJH@Z 00424820 f   cmercury.obj
 0001:00023860       ?SetParameterInt@CMercury@@QAEXJJ@Z 00424860 f   cmercury.obj
 0001:000238a0       ?PrintHeader@CMercury@@QAEXXZ 004248a0 f   cmercury.obj
 0001:000238d0       ?SetOperPassword@CMercury@@QAEXJPBD0@Z 004248d0 f   cmercury.obj
 0001:00023910       ?PrintEKL@CMercury@@QAEJJ@Z 00424910 f   cmercury.obj
 0001:00023950       ?QueryEKLState@CMercury@@QAEJXZ 00424950 f   cmercury.obj
 0001:00023980       ?ReprintDocument@CMercury@@QAEXXZ 00424980 f   cmercury.obj
 0001:000239b0       ?CreateFromStatic@CMercury@@QAEHIPAVCWnd@@@Z 004249b0 f   cmercury.obj
 0001:00023ae0       ?PrintCheck@CMercury@@QAEXPAUIUnknown@@N@Z 00424ae0 f   cmercury.obj
 0001:000240a0       ??0CMercury@@QAE@XZ        004250a0 f i cmercury.obj
 0001:000240c0       ?Create@CMercury@@UAEHPBD0KABUtagRECT@@PAVCWnd@@IPAUCCreateContext@@@Z 004250c0 f i cmercury.obj
 0001:00024100       ?GetClsid@CMercury@@QAEABU_GUID@@XZ 00425100 f i cmercury.obj
 0001:00024110       ??_GCDTPicker@@UAEPAXI@Z   00425110 f i DlgSetPeriod.obj
 0001:00024110       ??_ECMercury@@UAEPAXI@Z    00425110 f i cmercury.obj
 0001:00024110       ??_ECDTPicker@@UAEPAXI@Z   00425110 f i DlgSetPeriod.obj
 0001:00024110       ??_ECVSFlexGrid@@UAEPAXI@Z 00425110 f i GoodsGrid.obj
 0001:00024110       ??_GCMercury@@UAEPAXI@Z    00425110 f i cmercury.obj
 0001:00024110       ??_GCVSFlexGrid@@UAEPAXI@Z 00425110 f i GoodsGrid.obj
 0001:00024140       ?Create@CMercury@@QAEHPBDKABUtagRECT@@PAVCWnd@@IPAVCFile@@HPA_W@Z 00425140 f i cmercury.obj
 0001:00024180       ?GetWindowRect@CWnd@@QBEXPAUtagRECT@@@Z 00425180 f i cmercury.obj
 0001:000241a0       ??0CStatic@@QAE@XZ         004251a0 f i cmercury.obj
 0001:000241c0       ??_ECStatic@@UAEPAXI@Z     004251c0 f i cmercury.obj
 0001:000241c0       ??_GCStatic@@UAEPAXI@Z     004251c0 f i cmercury.obj
 0001:000241f0       ??0COleCurrency@@QAE@XZ    004251f0 f i cmercury.obj
 0001:00024220       ?SetStatus@COleCurrency@@QAEXW4CurrencyStatus@1@@Z 00425220 f i cmercury.obj
 0001:00024240       ??BCOleCurrency@@QBE?ATtagCY@@XZ 00425240 f i cmercury.obj
 0001:00024260       ??0_variant_t@@QAE@NG@Z    00425260 f i cmercury.obj
 0001:000242d0       ??0CComPortDlg@@QAE@PAVCWnd@@@Z 004252d0 f   ComPortDlg.obj
 0001:00024360       ?DoDataExchange@CComPortDlg@@MAEXPAVCDataExchange@@@Z 00425360 f   ComPortDlg.obj
 0001:000243a0       ?GetMessageMap@CComPortDlg@@MBEPBUAFX_MSGMAP@@XZ 004253a0 f   ComPortDlg.obj
 0001:000243b0       ?GetThisMessageMap@CComPortDlg@@KGPBUAFX_MSGMAP@@XZ 004253b0 f   ComPortDlg.obj
 0001:000243c0       ?OnInitDialog@CComPortDlg@@MAEHXZ 004253c0 f   ComPortDlg.obj
 0001:000244d0       ?OnOK@CComPortDlg@@MAEXXZ  004254d0 f   ComPortDlg.obj
 0001:000245d0       ??_GCComPortDlg@@UAEPAXI@Z 004255d0 f i ComPortDlg.obj
 0001:000245d0       ??_ECComPortDlg@@UAEPAXI@Z 004255d0 f i ComPortDlg.obj
 0001:00024600       ??1CComPortDlg@@UAE@XZ     00425600 f i ComPortDlg.obj
 0001:00024630       ?Create@CDialog@@UAEHIPAVCWnd@@@Z 00425630 f i ComPortDlg.obj
 0001:00024650       ?GetCurSel@CComboBox@@QBEHXZ 00425650 f i ComPortDlg.obj
 0001:00024680       ?SetCurSel@CComboBox@@QAEHH@Z 00425680 f i ComPortDlg.obj
 0001:000246b0       ?AddString@CComboBox@@QAEHPBD@Z 004256b0 f i ComPortDlg.obj
 0001:000246e0       ?CreateObject@CDBDoc@@SGPAVCObject@@XZ 004256e0 f   DBDoc.obj
 0001:00024760       ?_GetBaseClass@CDBDoc@@KGPAUCRuntimeClass@@XZ 00425760 f   DBDoc.obj
 0001:00024770       ?GetThisClass@CDBDoc@@SGPAUCRuntimeClass@@XZ 00425770 f   DBDoc.obj
 0001:00024780       ?GetRuntimeClass@CDBDoc@@UBEPAUCRuntimeClass@@XZ 00425780 f   DBDoc.obj
 0001:00024790       ??0CDBDoc@@IAE@XZ          00425790 f   DBDoc.obj
 0001:000248c0       ?OnNewDocument@CDBDoc@@MAEHXZ 004258c0 f   DBDoc.obj
 0001:000248e0       ??1CDBDoc@@UAE@XZ          004258e0 f   DBDoc.obj
 0001:000249d0       ?GetMessageMap@CDBDoc@@MBEPBUAFX_MSGMAP@@XZ 004259d0 f   DBDoc.obj
 0001:000249e0       ?GetThisMessageMap@CDBDoc@@KGPBUAFX_MSGMAP@@XZ 004259e0 f   DBDoc.obj
 0001:000249f0       ?Serialize@CDBDoc@@UAEXAAVCArchive@@@Z 004259f0 f   DBDoc.obj
 0001:00024a10       ?SetPointFont@CDBDoc@@QAEXV?$CStringT@DV?$StrTraitMFC_DLL@DV?$ChTraitsCRT@D@ATL@@@@@ATL@@H@Z 00425a10 f   DBDoc.obj
 0001:00024ac0       ?ReadFont@CDBDoc@@IAEXXZ   00425ac0 f   DBDoc.obj
 0001:00024bf0       ?SaveFont@CDBDoc@@IAEXXZ   00425bf0 f   DBDoc.obj
 0001:00024d00       ?OnCloseDocument@CDBDoc@@UAEXXZ 00425d00 f   DBDoc.obj
 0001:00024d30       ?GetFont@CDBDoc@@QAEAAVCFont@@XZ 00425d30 f   DBDoc.obj
 0001:00024d50       ?ReadPeriod@CDBDoc@@IAEXXZ 00425d50 f   DBDoc.obj
 0001:00024ea0       ?SavePeriod@CDBDoc@@IAEXXZ 00425ea0 f   DBDoc.obj
 0001:00024f60       ?ReadComPort@CDBDoc@@QAEXXZ 00425f60 f   DBDoc.obj
 0001:00024fd0       ?SaveComPort@CDBDoc@@QAEXXZ 00425fd0 f   DBDoc.obj
 0001:00025020       ?OnOpenDocument@CDBDoc@@UAEHPBD@Z 00426020 f   DBDoc.obj
 0001:00025050       ?UpdateCashMove@CDBDoc@@QAEHXZ 00426050 f   DBDoc.obj
 0001:00025390       ??_GCDBDoc@@UAEPAXI@Z      00426390 f i DBDoc.obj
 0001:00025390       ??_ECDBDoc@@UAEPAXI@Z      00426390 f i DBDoc.obj
 0001:000253c0       ??0?$_com_ptr_t@V?$_com_IIID@U_Connection@@$1?_GUID_00000550_0000_0010_8000_00aa006d2ea4@@3U__s_GUID@@B@@@@QAE@ABV_variant_t@@@Z 004263c0 f i DBDoc.obj
 0001:00025410       ?QueryStdInterfaces@?$_com_ptr_t@V?$_com_IIID@U_Connection@@$1?_GUID_00000550_0000_0010_8000_00aa006d2ea4@@3U__s_GUID@@B@@@@AAEJABV_variant_t@@@Z 00426410 f i DBDoc.obj
 0001:000254e0       ?GetIID@?$_com_ptr_t@V?$_com_IIID@U_Connection@@$1?_GUID_00000550_0000_0010_8000_00aa006d2ea4@@3U__s_GUID@@B@@@@SAABU_GUID@@XZ 004264e0 f i DBDoc.obj
 0001:000254f0       ?GetIID@?$_com_IIID@U_Connection@@$1?_GUID_00000550_0000_0010_8000_00aa006d2ea4@@3U__s_GUID@@B@@SAABU_GUID@@XZ 004264f0 f i DBDoc.obj
 0001:00025500       ??$_QueryInterface@PAUIDispatch@@@?$_com_ptr_t@V?$_com_IIID@U_Connection@@$1?_GUID_00000550_0000_0010_8000_00aa006d2ea4@@3U__s_GUID@@B@@@@AAEJPAUIDispatch@@@Z 00426500 f i DBDoc.obj
 0001:00025500       ??$_QueryInterface@PAUIUnknown@@@?$_com_ptr_t@V?$_com_IIID@U_Connection@@$1?_GUID_00000550_0000_0010_8000_00aa006d2ea4@@3U__s_GUID@@B@@@@AAEJPAUIUnknown@@@Z 00426500 f i DBDoc.obj
 0001:00025560       ?Attach@?$_com_ptr_t@V?$_com_IIID@UIVSFlexGrid@@$1?_GUID_d76d712b_4a96_11d3_bd95_d296dc2dd072@@3U__s_GUID@@B@@@@QAEXPAUIVSFlexGrid@@@Z 00426560 f i CashPrinter.obj
 0001:00025560       ?Attach@?$_com_ptr_t@V?$_com_IIID@U_Connection@@$1?_GUID_00000550_0000_0010_8000_00aa006d2ea4@@3U__s_GUID@@B@@@@QAEXPAU_Connection@@@Z 00426560 f i DBDoc.obj
 0001:00025560       ?Attach@?$_com_ptr_t@V?$_com_IIID@U_Recordset@@$1?_GUID_00000556_0000_0010_8000_00aa006d2ea4@@3U__s_GUID@@B@@@@QAEXPAU_Recordset@@@Z 00426560 f i ZReportDoc.obj
 0001:00025580       ??0COleDateTime@ATL@@QAE@HHHHHH@Z 00426580 f i DBDoc.obj
 0001:000255b0       ?SetDateTime@COleDateTime@ATL@@QAEHHHHHHH@Z 004265b0 f i DBDoc.obj
 0001:00025640       ??0_variant_t@@QAE@PAUIDispatch@@_N@Z 00426640 f i DBDoc.obj
 0001:00025690       ?GetActiveConnection@Recordset15@@QAE?AV_variant_t@@XZ 00426690 f i DBDoc.obj
 0001:00025700       ?GetRecordCount@Recordset15@@QAEJXZ 00426700 f i DBDoc.obj
 0001:00025740       ?Open@Recordset15@@QAEJABV_variant_t@@0W4CursorTypeEnum@@W4LockTypeEnum@@J@Z 00426740 f i DBDoc.obj
 0001:00025800       ?CreateObject@CDialogView@@SGPAVCObject@@XZ 00426800 f   DialogView.obj
 0001:00025880       ?_GetBaseClass@CDialogView@@KGPAUCRuntimeClass@@XZ 00426880 f   DialogView.obj
 0001:00025890       ?GetThisClass@CDialogView@@SGPAUCRuntimeClass@@XZ 00426890 f   DialogView.obj
 0001:000258a0       ?GetRuntimeClass@CDialogView@@UBEPAUCRuntimeClass@@XZ 004268a0 f   DialogView.obj
 0001:000258b0       ??0CDialogView@@IAE@XZ     004268b0 f   DialogView.obj
 0001:00025930       ??1CDialogView@@MAE@XZ     00426930 f   DialogView.obj
 0001:000259a0       ?DoDataExchange@CDialogView@@MAEXPAVCDataExchange@@@Z 004269a0 f   DialogView.obj
 0001:000259c0       ?GetMessageMap@CDialogView@@MBEPBUAFX_MSGMAP@@XZ 004269c0 f   DialogView.obj
 0001:000259d0       ?GetThisMessageMap@CDialogView@@KGPBUAFX_MSGMAP@@XZ 004269d0 f   DialogView.obj
 0001:000259e0       ?GetThisEventSinkMap@CDialogView@@KGPBUAFX_EVENTSINKMAP@@XZ 004269e0 f   DialogView.obj
 0001:000259f0       ?GetEventSinkMap@CDialogView@@MBEPBUAFX_EVENTSINKMAP@@XZ 004269f0 f   DialogView.obj
 0001:00025a00       ?OnInitialUpdate@CDialogView@@UAEXXZ 00426a00 f   DialogView.obj
 0001:00025a70       ?GetDocument@CDialogView@@QAEPAVCDBDoc@@XZ 00426a70 f   DialogView.obj
 0001:00025a90       ?OnClose@CDialogView@@IAEXXZ 00426a90 f   DialogView.obj
 0001:00025ab0       ?OnCreate@CDialogView@@IAEHPAUtagCREATESTRUCTA@@@Z 00426ab0 f   DialogView.obj
 0001:00025b70       ?OnSize@CDialogView@@IAEXIHH@Z 00426b70 f   DialogView.obj
 0001:00025c00       ?OnUpdate@CDialogView@@UAEXPAVCView@@JPAVCObject@@@Z 00426c00 f   DialogView.obj
 0001:000266a0       ?OnPaint@CDialogView@@IAEXXZ 004276a0 f   DialogView.obj
 0001:000266e0       ?OnAfterDataRefresh@CDialogView@@IAEXXZ 004276e0 f   DialogView.obj
 0001:00026fe0       ?OnDblClickGrid@CDialogView@@IAEXXZ 00427fe0 f   DialogView.obj
 0001:00027350       ?OnMouseWheel@CDialogView@@IAEHIFVCPoint@@@Z 00428350 f   DialogView.obj
 0001:000273d0       ?DestroyWindow@CDialogView@@UAEHXZ 004283d0 f   DialogView.obj
 0001:000273f0       ??_GCDialogView@@MAEPAXI@Z 004283f0 f i DialogView.obj
 0001:000273f0       ??_ECDialogView@@MAEPAXI@Z 004283f0 f i DialogView.obj
 0001:00027420       ?Create@CVSFlexGrid@@QAEHPBDKABUtagRECT@@PAVCWnd@@IPAVCFile@@HPA_W@Z 00428420 f i DialogView.obj
 0001:00027460       ?GetClsid@CVSFlexGrid@@QAEABU_GUID@@XZ 00428460 f i DialogView.obj
 0001:00027470       ?AfxGetInstanceHandle@@YGPAUHINSTANCE__@@XZ 00428470 f i DialogView.obj
 0001:00027480       ?GetDeviceCaps@CDC@@QBEHH@Z 00428480 f i DialogView.obj
 0001:000274a0       ?MoveWindow@CWnd@@QAEXPBUtagRECT@@H@Z 004284a0 f i DialogView.obj
 0001:000274e0       ?GetClientRect@CWnd@@QBEXPAUtagRECT@@@Z 004284e0 f i DialogView.obj
 0001:00027500       ?OnClose@CWnd@@IAEXXZ      00428500 f i DialogView.obj
 0001:00027520       ?SetTitle@CFrameWnd@@QAEXPBD@Z 00428520 f i DialogView.obj
 0001:00027540       ??0CWaitCursor@@QAE@XZ     00428540 f i DialogView.obj
 0001:00027560       ??1CWaitCursor@@QAE@XZ     00428560 f i DialogView.obj
 0001:000276f0       ?get_accChild@CFormView@@UAEJUtagVARIANT@@PAPAUIDispatch@@@Z 004286f0 f i DialogView.obj
 0001:00027730       ?get_accChildCount@CFormView@@UAEJPAJ@Z 00428730 f i DialogView.obj
 0001:00027750       ?get_accName@CFormView@@UAEJUtagVARIANT@@PAPA_W@Z 00428750 f i DialogView.obj
 0001:00027790       ?accLocation@CFormView@@UAEJPAJ000UtagVARIANT@@@Z 00428790 f i DialogView.obj
 0001:000277e0       ?accHitTest@CFormView@@UAEJJJPAUtagVARIANT@@@Z 004287e0 f i DialogView.obj
 0001:00027810       ?Format@COleDateTime@ATL@@QBE?AV?$CStringT@DV?$StrTraitMFC_DLL@DV?$ChTraitsCRT@D@ATL@@@@@2@PBD@Z 00428810 f i DialogView.obj
 0001:00027ab0       ??0_variant_t@@QAE@JG@Z    00428ab0 f i DialogView.obj
 0001:00027b40       ?GetCount@_Collection@@QAEJXZ 00428b40 f i DialogView.obj
 0001:00027b90       ?MoveFirst@Recordset15@@QAEJXZ 00428b90 f i DialogView.obj
 0001:00027bd0       ?MoveLast@Recordset15@@QAEJXZ 00428bd0 f i DialogView.obj
 0001:00027c10       ?CreateObject@CDictGoodsFrame@@SGPAVCObject@@XZ 00428c10 f   DictGoodsFrame.obj
 0001:00027c90       ?_GetBaseClass@CDictGoodsFrame@@KGPAUCRuntimeClass@@XZ 00428c90 f   DictGoodsFrame.obj
 0001:00027ca0       ?GetThisClass@CDictGoodsFrame@@SGPAUCRuntimeClass@@XZ 00428ca0 f   DictGoodsFrame.obj
 0001:00027cb0       ?GetRuntimeClass@CDictGoodsFrame@@UBEPAUCRuntimeClass@@XZ 00428cb0 f   DictGoodsFrame.obj
 0001:00027cc0       ??0CDictGoodsFrame@@IAE@XZ 00428cc0 f   DictGoodsFrame.obj
 0001:00027d40       ??1CDictGoodsFrame@@MAE@XZ 00428d40 f   DictGoodsFrame.obj
 0001:00027dc0       ?GetMessageMap@CDictGoodsFrame@@MBEPBUAFX_MSGMAP@@XZ 00428dc0 f   DictGoodsFrame.obj
 0001:00027dd0       ?GetThisMessageMap@CDictGoodsFrame@@KGPBUAFX_MSGMAP@@XZ 00428dd0 f   DictGoodsFrame.obj
 0001:00027de0       ?OnCreateClient@CDictGoodsFrame@@MAEHPAUtagCREATESTRUCTA@@PAUCCreateContext@@@Z 00428de0 f   DictGoodsFrame.obj
 0001:00027f90       ?OnClose@CDictGoodsFrame@@IAEXXZ 00428f90 f   DictGoodsFrame.obj
 0001:00028060       ?OnCreate@CDictGoodsFrame@@IAEHPAUtagCREATESTRUCTA@@@Z 00429060 f   DictGoodsFrame.obj
 0001:000280b0       ?LoadToolBar@CDictGoodsFrame@@IAEHIPAVCWnd@@@Z 004290b0 f   DictGoodsFrame.obj
 0001:000284e0       ?OnFolderViewShow@CDictGoodsFrame@@IAEXXZ 004294e0 f   DictGoodsFrame.obj
 0001:00028510       ?OnUpdateFolderViewShow@CDictGoodsFrame@@IAEXPAVCCmdUI@@@Z 00429510 f   DictGoodsFrame.obj
 0001:00028540       ?OnFindViewShow@CDictGoodsFrame@@IAEXXZ 00429540 f   DictGoodsFrame.obj
 0001:00028570       ?OnUpdateFindViewShow@CDictGoodsFrame@@IAEXPAVCCmdUI@@@Z 00429570 f   DictGoodsFrame.obj
 0001:000286b0       ??_ECDictGoodsFrame@@MAEPAXI@Z 004296b0 f i DictGoodsFrame.obj
 0001:000286b0       ??_GCDictGoodsFrame@@MAEPAXI@Z 004296b0 f i DictGoodsFrame.obj
 0001:000286e0       ??HCSize@@QBE?AV0@UtagSIZE@@@Z 004296e0 f i DictGoodsFrame.obj
 0001:00028710       ??0CPoint@@QAE@XZ          00429710 f i DictGoodsFrame.obj
 0001:00028710       ??0?$_Ptr_base@VCFont@@@tr1@std@@QAE@XZ 00429710 f i DlgEnterCash.obj
 0001:00028710       ??0CSize@@QAE@XZ           00429710 f i DialogView.obj
 0001:00028740       ?capacity@?$vector@DV?$allocator@D@std@@@std@@QBEIXZ 00429740 f i DlgSetQuantity.obj
 0001:00028740       ?Width@CRect@@QBEHXZ       00429740 f i DictGoodsFrame.obj
 0001:00028760       ?Height@CRect@@QBEHXZ      00429760 f i DictGoodsFrame.obj
 0001:00028780       ?GetNext@CPtrList@@QAEAAPAXAAPAU__POSITION@@@Z 00429780 f i MainChildFrame.obj
 0001:00028780       ?GetNext@CStringList@@QAEAAV?$CStringT@DV?$StrTraitMFC_DLL@DV?$ChTraitsCRT@D@ATL@@@@@ATL@@AAPAU__POSITION@@@Z 00429780 f i DictGoodsFrame.obj
 0001:00028780       ?GetNext@CObList@@QAEAAPAVCObject@@AAPAU__POSITION@@@Z 00429780 f i TableValue1.obj
 0001:000287c0       ?Add@CImageList@@QAEHPAUHICON__@@@Z 004297c0 f i DictGoodsFrame.obj
 0001:000287e0       ?AfxImageList_ReplaceIcon@@YGHPAU_IMAGELIST@@HPAUHICON__@@@Z 004297e0 f i DictGoodsFrame.obj
 0001:00028810       ?_ImageList_ReplaceIcon@CComCtlWrapper@@QAEHPAU_IMAGELIST@@HPAUHICON__@@@Z 00429810 f i DictGoodsFrame.obj
 0001:00028940       ?GetProcAddress_ImageList_ReplaceIcon@CComCtlWrapper@@QAE?AUImageList_ReplaceIcon_Type@1@XZ 00429940 f i DictGoodsFrame.obj
 0001:00028990       ?GetModuleHandleA@CDllIsolationWrapperBase@@QAEPAUHINSTANCE__@@XZ 00429990 f i DictGoodsFrame.obj
 0001:00028a00       ??4ImageList_GetIcon_Type@CComCtlWrapper@@QAEXP6GPAUHICON__@@PAU_IMAGELIST@@HI@Z@Z 00429a00 f i PopupMenu.obj
 0001:00028a00       ??4ImageList_ReplaceIcon_Type@CComCtlWrapper@@QAEXP6GHPAU_IMAGELIST@@HPAUHICON__@@@Z@Z 00429a00 f i DictGoodsFrame.obj
 0001:00028a00       ??4ImageList_GetImageInfo_Type@CComCtlWrapper@@QAEXP6GHPAU_IMAGELIST@@HPAU_IMAGEINFO@@@Z@Z 00429a00 f i MyTabCtrl.obj
 0001:00028a00       ??4ImageList_AddMasked_Type@CComCtlWrapper@@QAEXP6GHPAU_IMAGELIST@@PAUHBITMAP__@@K@Z@Z 00429a00 f i PopupMenu.obj
 0001:00028a00       ??4ImageList_Draw_Type@CComCtlWrapper@@QAEXP6GHPAU_IMAGELIST@@HPAUHDC__@@HHI@Z@Z 00429a00 f i MyTabCtrl.obj
 0001:00028a00       ??4ImageList_SetBkColor_Type@CComCtlWrapper@@QAEXP6GKPAU_IMAGELIST@@K@Z@Z 00429a00 f i DictGoodsFrame.obj
 0001:00028a20       ?SetBkColor@CImageList@@QAEKK@Z 00429a20 f i DictGoodsFrame.obj
 0001:00028a40       ?AfxImageList_SetBkColor@@YGKPAU_IMAGELIST@@K@Z 00429a40 f i DictGoodsFrame.obj
 0001:00028a70       ?_ImageList_SetBkColor@CComCtlWrapper@@QAEKPAU_IMAGELIST@@K@Z 00429a70 f i DictGoodsFrame.obj
 0001:00028b90       ?GetProcAddress_ImageList_SetBkColor@CComCtlWrapper@@QAE?AUImageList_SetBkColor_Type@1@XZ 00429b90 f i DictGoodsFrame.obj
 0001:00028be0       ?SendMessageA@CWnd@@QBEJIIJ@Z 00429be0 f i DictGoodsFrame.obj
 0001:00028c10       ?GetNextWindow@CWnd@@QBEPAV1@I@Z 00429c10 f i DictGoodsFrame.obj
 0001:00028c40       ?GetNextWindow@@YAPAUHWND__@@PAU1@I@Z 00429c40 f i DictGoodsFrame.obj
 0001:00028c60       ?GetWindow@CWnd@@QBEPAV1@I@Z 00429c60 f i DictGoodsFrame.obj
 0001:00028c90       ?LoadIconA@CWinApp@@QBEPAUHICON__@@I@Z 00429c90 f i DictGoodsFrame.obj
 0001:00028cc0       ?LoadToolBar@CToolBar@@QAEHI@Z 00429cc0 f i DictGoodsFrame.obj
 0001:00028ce0       ??8ATL@@YA_NABV?$CStringT@DV?$StrTraitMFC_DLL@DV?$ChTraitsCRT@D@ATL@@@@@0@PBD@Z 00429ce0 f i DictGoodsFrame.obj
 0001:00028d00       ??0CDlgEnterCash@@QAE@PAVCWnd@@@Z 00429d00 f   DlgEnterCash.obj
 0001:00028dd0       ?DoDataExchange@CDlgEnterCash@@MAEXPAVCDataExchange@@@Z 00429dd0 f   DlgEnterCash.obj
 0001:00028e50       ?GetMessageMap@CDlgEnterCash@@MBEPBUAFX_MSGMAP@@XZ 00429e50 f   DlgEnterCash.obj
 0001:00028e60       ?GetThisMessageMap@CDlgEnterCash@@KGPBUAFX_MSGMAP@@XZ 00429e60 f   DlgEnterCash.obj
 0001:00028e70       ?OnInitDialog@CDlgEnterCash@@MAEHXZ 00429e70 f   DlgEnterCash.obj
 0001:00029370       ?OnChangeCash@CDlgEnterCash@@IAEXXZ 0042a370 f   DlgEnterCash.obj
 0001:00029420       ?DoModal@CDlgEnterCash@@UAEHXZ 0042a420 f   DlgEnterCash.obj
 0001:000295b0       ?OnOk@CDlgEnterCash@@IAEXXZ 0042a5b0 f   DlgEnterCash.obj
 0001:00029630       ??_ECDlgEnterCash@@UAEPAXI@Z 0042a630 f i DlgEnterCash.obj
 0001:00029630       ??_GCDlgEnterCash@@UAEPAXI@Z 0042a630 f i DlgEnterCash.obj
 0001:00029660       ??1CDlgEnterCash@@UAE@XZ   0042a660 f i DlgEnterCash.obj
 0001:000296f0       ??A?$map@V?$CStringT@DV?$StrTraitMFC_DLL@DV?$ChTraitsCRT@D@ATL@@@@@ATL@@V?$shared_ptr@VCFont@@@tr1@std@@U?$less@V?$CStringT@DV?$StrTraitMFC_DLL@DV?$ChTraitsCRT@D@ATL@@@@@ATL@@@5@V?$allocator@U?$pair@$$CBV?$CStringT@DV?$StrTraitMFC_DLL@DV?$ChTraitsCRT@D@ATL@@@@@ATL@@V?$shared_ptr@VCFont@@@tr1@std@@@std@@@5@@std@@QAEAAV?$shared_ptr@VCFont@@@tr1@1@ABV?$CStringT@DV?$StrTraitMFC_DLL@DV?$ChTraitsCRT@D@ATL@@@@@ATL@@@Z 0042a6f0 f i DlgEnterCash.obj
 0001:00029800       ?get@?$shared_ptr@VCFont@@@tr1@std@@QBEPAVCFont@@XZ 0042a800 f i DlgEnterCash.obj
 0001:00029800       ??C?$shared_ptr@VCFont@@@tr1@std@@QBEPAVCFont@@XZ 0042a800 f i DlgEnterCash.obj
 0001:00029820       ?end@?$_Tree@V?$_Tmap_traits@V?$basic_string@_WU?$char_traits@_W@std@@V?$allocator@_W@2@@std@@PAU_TREEITEM@@U?$less@V?$basic_string@_WU?$char_traits@_W@std@@V?$allocator@_W@2@@std@@@2@V?$allocator@U?$pair@$$CBV?$basic_string@_WU?$char_traits@_W@std@@V?$allocator@_W@2@@std@@PAU_TREEITEM@@@std@@@2@$0A@@std@@@std@@QAE?AV?$_Tree_iterator@V?$_Tree_val@V?$_Tmap_traits@V?$basic_string@_WU?$char_traits@_W@std@@V?$allocator@_W@2@@std@@PAU_TREEITEM@@U?$less@V?$basic_string@_WU?$char_traits@_W@std@@V?$allocator@_W@2@@std@@@2@V?$allocator@U?$pair@$$CBV?$basic_string@_WU?$char_traits@_W@std@@V?$allocator@_W@2@@std@@PAU_TREEITEM@@@std@@@2@$0A@@std@@@std@@@2@XZ 0042a820 f i SuperTree.obj
 0001:00029820       ?end@?$_Tree@V?$_Tmap_traits@PAVCWnd@@IU?$less@PAVCWnd@@@std@@V?$allocator@U?$pair@QAVCWnd@@I@std@@@3@$0A@@std@@@std@@QAE?AV?$_Tree_iterator@V?$_Tree_val@V?$_Tmap_traits@PAVCWnd@@IU?$less@PAVCWnd@@@std@@V?$allocator@U?$pair@QAVCWnd@@I@std@@@3@$0A@@std@@@std@@@2@XZ 0042a820 f i MultiSplitterView.obj
 0001:00029820       ?end@?$_Tree@V?$_Tmap_traits@V?$basic_string@_WU?$char_traits@_W@std@@V?$allocator@_W@2@@std@@V?$tuple@V?$basic_string@_WU?$char_traits@_W@std@@V?$allocator@_W@2@@std@@V12@Unull_type@tuples@boost@@U345@U345@U345@U345@U345@U345@U345@@tuples@boost@@U?$less@V?$basic_string@_WU?$char_traits@_W@std@@V?$allocator@_W@2@@std@@@2@V?$allocator@U?$pair@$$CBV?$basic_string@_WU?$char_traits@_W@std@@V?$allocator@_W@2@@std@@V?$tuple@V?$basic_string@_WU?$char_traits@_W@std@@V?$allocator@_W@2@@std@@V12@Unull_type@tuples@boost@@U345@U345@U345@U345@U345@U345@U345@@tuples@boost@@@std@@@2@$00@std@@@std@@QAE?AV?$_Tree_iterator@V?$_Tree_val@V?$_Tmap_traits@V?$basic_string@_WU?$char_traits@_W@std@@V?$allocator@_W@2@@std@@V?$tuple@V?$basic_string@_WU?$char_traits@_W@std@@V?$allocator@_W@2@@std@@V12@Unull_type@tuples@boost@@U345@U345@U345@U345@U345@U345@U345@@tuples@boost@@U?$less@V?$basic_string@_WU?$char_traits@_W@std@@V?$allocator@_W@2@@std@@@2@V?$allocator@U?$pair@$$CBV?$basic_string@_WU?$char_traits@_W@std@@V?$allocator@_W@2@@std@@V?$tuple@V?$basic_string@_WU?$char_traits@_W@std@@V?$allocator@_W@2@@std@@V12@Unull_type@tuples@boost@@U345@U345@U345@U345@U345@U345@U345@@tuples@boost@@@std@@@2@$00@std@@@std@@@2@XZ 0042a820 f i SuperTree.obj
 0001:00029820       ?end@?$_Tree@V?$_Tmap_traits@V?$CStringT@DV?$StrTraitMFC_DLL@DV?$ChTraitsCRT@D@ATL@@@@@ATL@@V?$shared_ptr@VCFont@@@tr1@std@@U?$less@V?$CStringT@DV?$StrTraitMFC_DLL@DV?$ChTraitsCRT@D@ATL@@@@@ATL@@@5@V?$allocator@U?$pair@$$CBV?$CStringT@DV?$StrTraitMFC_DLL@DV?$ChTraitsCRT@D@ATL@@@@@ATL@@V?$shared_ptr@VCFont@@@tr1@std@@@std@@@5@$0A@@std@@@std@@QAE?AV?$_Tree_iterator@V?$_Tree_val@V?$_Tmap_traits@V?$CStringT@DV?$StrTraitMFC_DLL@DV?$ChTraitsCRT@D@ATL@@@@@ATL@@V?$shared_ptr@VCFont@@@tr1@std@@U?$less@V?$CStringT@DV?$StrTraitMFC_DLL@DV?$ChTraitsCRT@D@ATL@@@@@ATL@@@5@V?$allocator@U?$pair@$$CBV?$CStringT@DV?$StrTraitMFC_DLL@DV?$ChTraitsCRT@D@ATL@@@@@ATL@@V?$shared_ptr@VCFont@@@tr1@std@@@std@@@5@$0A@@std@@@std@@@2@XZ 0042a820 f i DlgEnterCash.obj
 0001:00029820       ?end@?$_Tree@V?$_Tmap_traits@V?$basic_string@_WU?$char_traits@_W@std@@V?$allocator@_W@2@@std@@V12@U?$less@V?$basic_string@_WU?$char_traits@_W@std@@V?$allocator@_W@2@@std@@@2@V?$allocator@U?$pair@$$CBV?$basic_string@_WU?$char_traits@_W@std@@V?$allocator@_W@2@@std@@V12@@std@@@2@$0A@@std@@@std@@QAE?AV?$_Tree_iterator@V?$_Tree_val@V?$_Tmap_traits@V?$basic_string@_WU?$char_traits@_W@std@@V?$allocator@_W@2@@std@@V12@U?$less@V?$basic_string@_WU?$char_traits@_W@std@@V?$allocator@_W@2@@std@@@2@V?$allocator@U?$pair@$$CBV?$basic_string@_WU?$char_traits@_W@std@@V?$allocator@_W@2@@std@@V12@@std@@@2@$0A@@std@@@std@@@2@XZ 0042a820 f i CheckDoc.obj
 0001:00029820       ?end@?$_Tree@V?$_Tmap_traits@$$CBV?$basic_string@_WU?$char_traits@_W@std@@V?$allocator@_W@2@@std@@V_variant_t@@U?$less@$$CBV?$basic_string@_WU?$char_traits@_W@std@@V?$allocator@_W@2@@std@@@2@V?$allocator@U?$pair@$$CBV?$basic_string@_WU?$char_traits@_W@std@@V?$allocator@_W@2@@std@@V_variant_t@@@std@@@2@$0A@@std@@@std@@QAE?AV?$_Tree_iterator@V?$_Tree_val@V?$_Tmap_traits@$$CBV?$basic_string@_WU?$char_traits@_W@std@@V?$allocator@_W@2@@std@@V_variant_t@@U?$less@$$CBV?$basic_string@_WU?$char_traits@_W@std@@V?$allocator@_W@2@@std@@@2@V?$allocator@U?$pair@$$CBV?$basic_string@_WU?$char_traits@_W@std@@V?$allocator@_W@2@@std@@V_variant_t@@@std@@@2@$0A@@std@@@std@@@2@XZ 0042a820 f i CheckDoc.obj
 0001:00029820       ?end@?$_Tree@V?$_Tmap_traits@V?$CStringT@DV?$StrTraitMFC_DLL@DV?$ChTraitsCRT@D@ATL@@@@@ATL@@V?$CAdapt@V?$CComPtr@UIDispatch@@@ATL@@@2@U?$less@V?$CStringT@DV?$StrTraitMFC_DLL@DV?$ChTraitsCRT@D@ATL@@@@@ATL@@@std@@V?$allocator@U?$pair@$$CBV?$CStringT@DV?$StrTraitMFC_DLL@DV?$ChTraitsCRT@D@ATL@@@@@ATL@@V?$CAdapt@V?$CComPtr@UIDispatch@@@ATL@@@2@@std@@@5@$0A@@std@@@std@@QAE?AV?$_Tree_iterator@V?$_Tree_val@V?$_Tmap_traits@V?$CStringT@DV?$StrTraitMFC_DLL@DV?$ChTraitsCRT@D@ATL@@@@@ATL@@V?$CAdapt@V?$CComPtr@UIDispatch@@@ATL@@@2@U?$less@V?$CStringT@DV?$StrTraitMFC_DLL@DV?$ChTraitsCRT@D@ATL@@@@@ATL@@@std@@V?$allocator@U?$pair@$$CBV?$CStringT@DV?$StrTraitMFC_DLL@DV?$ChTraitsCRT@D@ATL@@@@@ATL@@V?$CAdapt@V?$CComPtr@UIDispatch@@@ATL@@@2@@std@@@5@$0A@@std@@@std@@@2@XZ 0042a820 f i DlgSelectGood.obj
 0001:00029850       ?lower_bound@?$_Tree@V?$_Tmap_traits@V?$CStringT@DV?$StrTraitMFC_DLL@DV?$ChTraitsCRT@D@ATL@@@@@ATL@@V?$shared_ptr@VCFont@@@tr1@std@@U?$less@V?$CStringT@DV?$StrTraitMFC_DLL@DV?$ChTraitsCRT@D@ATL@@@@@ATL@@@5@V?$allocator@U?$pair@$$CBV?$CStringT@DV?$StrTraitMFC_DLL@DV?$ChTraitsCRT@D@ATL@@@@@ATL@@V?$shared_ptr@VCFont@@@tr1@std@@@std@@@5@$0A@@std@@@std@@QAE?AV?$_Tree_iterator@V?$_Tree_val@V?$_Tmap_traits@V?$CStringT@DV?$StrTraitMFC_DLL@DV?$ChTraitsCRT@D@ATL@@@@@ATL@@V?$shared_ptr@VCFont@@@tr1@std@@U?$less@V?$CStringT@DV?$StrTraitMFC_DLL@DV?$ChTraitsCRT@D@ATL@@@@@ATL@@@5@V?$allocator@U?$pair@$$CBV?$CStringT@DV?$StrTraitMFC_DLL@DV?$ChTraitsCRT@D@ATL@@@@@ATL@@V?$shared_ptr@VCFont@@@tr1@std@@@std@@@5@$0A@@std@@@std@@@2@ABV?$CStringT@DV?$StrTraitMFC_DLL@DV?$ChTraitsCRT@D@ATL@@@@@ATL@@@Z 0042a850 f i DlgEnterCash.obj
 0001:00029880       ??R?$less@V?$CStringT@DV?$StrTraitMFC_DLL@DV?$ChTraitsCRT@D@ATL@@@@@ATL@@@std@@QBE_NABV?$CStringT@DV?$StrTraitMFC_DLL@DV?$ChTraitsCRT@D@ATL@@@@@ATL@@0@Z 0042a880 f i DlgEnterCash.obj
 0001:000298a0       ??0?$shared_ptr@VCFont@@@tr1@std@@QAE@XZ 0042a8a0 f i DlgEnterCash.obj
 0001:000298c0       ??1?$shared_ptr@VCFont@@@tr1@std@@QAE@XZ 0042a8c0 f i DlgEnterCash.obj
 0001:000298e0       ??0?$pair@$$CBV?$CStringT@DV?$StrTraitMFC_DLL@DV?$ChTraitsCRT@D@ATL@@@@@ATL@@V?$shared_ptr@VCFont@@@tr1@std@@@std@@QAE@ABV?$CStringT@DV?$StrTraitMFC_DLL@DV?$ChTraitsCRT@D@ATL@@@@@ATL@@$$QAV?$shared_ptr@VCFont@@@tr1@1@@Z 0042a8e0 f i DlgEnterCash.obj
 0001:00029910       ??MATL@@YA_NABV?$CStringT@DV?$StrTraitMFC_DLL@DV?$ChTraitsCRT@D@ATL@@@@@0@0@Z 0042a910 f i DlgEnterCash.obj
 0001:00029940       ?_Lbound@?$_Tree@V?$_Tmap_traits@V?$CStringT@DV?$StrTraitMFC_DLL@DV?$ChTraitsCRT@D@ATL@@@@@ATL@@V?$shared_ptr@VCFont@@@tr1@std@@U?$less@V?$CStringT@DV?$StrTraitMFC_DLL@DV?$ChTraitsCRT@D@ATL@@@@@ATL@@@5@V?$allocator@U?$pair@$$CBV?$CStringT@DV?$StrTraitMFC_DLL@DV?$ChTraitsCRT@D@ATL@@@@@ATL@@V?$shared_ptr@VCFont@@@tr1@std@@@std@@@5@$0A@@std@@@std@@IAEPAU_Node@?$_Tree_nod@V?$_Tmap_traits@V?$CStringT@DV?$StrTraitMFC_DLL@DV?$ChTraitsCRT@D@ATL@@@@@ATL@@V?$shared_ptr@VCFont@@@tr1@std@@U?$less@V?$CStringT@DV?$StrTraitMFC_DLL@DV?$ChTraitsCRT@D@ATL@@@@@ATL@@@5@V?$allocator@U?$pair@$$CBV?$CStringT@DV?$StrTraitMFC_DLL@DV?$ChTraitsCRT@D@ATL@@@@@ATL@@V?$shared_ptr@VCFont@@@tr1@std@@@std@@@5@$0A@@std@@@2@ABV?$CStringT@DV?$StrTraitMFC_DLL@DV?$ChTraitsCRT@D@ATL@@@@@ATL@@@Z 0042a940 f i DlgEnterCash.obj
 0001:000299d0       ?_Decref@?$_Ptr_base@VCFont@@@tr1@std@@QAEXXZ 0042a9d0 f i DlgEnterCash.obj
 0001:000299f0       ?_Decref@_Ref_count_base@tr1@std@@QAEXXZ 0042a9f0 f i DlgEnterCash.obj
 0001:00029a20       ?_Decwref@_Ref_count_base@tr1@std@@QAEXXZ 0042aa20 f i DlgEnterCash.obj
 0001:00029a50       ??0?$_Pair_base@$$CBV?$CStringT@DV?$StrTraitMFC_DLL@DV?$ChTraitsCRT@D@ATL@@@@@ATL@@V?$shared_ptr@VCFont@@@tr1@std@@@std@@QAE@ABV?$CStringT@DV?$StrTraitMFC_DLL@DV?$ChTraitsCRT@D@ATL@@@@@ATL@@$$QAV?$shared_ptr@VCFont@@@tr1@1@@Z 0042aa50 f i DlgEnterCash.obj
 0001:00029ac0       ?_Root@?$_Tree@V?$_Tmap_traits@V?$basic_string@_WU?$char_traits@_W@std@@V?$allocator@_W@2@@std@@V?$tuple@V?$basic_string@_WU?$char_traits@_W@std@@V?$allocator@_W@2@@std@@V12@Unull_type@tuples@boost@@U345@U345@U345@U345@U345@U345@U345@@tuples@boost@@U?$less@V?$basic_string@_WU?$char_traits@_W@std@@V?$allocator@_W@2@@std@@@2@V?$allocator@U?$pair@$$CBV?$basic_string@_WU?$char_traits@_W@std@@V?$allocator@_W@2@@std@@V?$tuple@V?$basic_string@_WU?$char_traits@_W@std@@V?$allocator@_W@2@@std@@V12@Unull_type@tuples@boost@@U345@U345@U345@U345@U345@U345@U345@@tuples@boost@@@std@@@2@$00@std@@@std@@IBEAAPAU_Node@?$_Tree_nod@V?$_Tmap_traits@V?$basic_string@_WU?$char_traits@_W@std@@V?$allocator@_W@2@@std@@V?$tuple@V?$basic_string@_WU?$char_traits@_W@std@@V?$allocator@_W@2@@std@@V12@Unull_type@tuples@boost@@U345@U345@U345@U345@U345@U345@U345@@tuples@boost@@U?$less@V?$basic_string@_WU?$char_traits@_W@std@@V?$allocator@_W@2@@std@@@2@V?$allocator@U?$pair@$$CBV?$basic_string@_WU?$char_traits@_W@std@@V?$allocator@_W@2@@std@@V?$tuple@V?$basic_string@_WU?$char_traits@_W@std@@V?$allocator@_W@2@@std@@V12@Unull_type@tuples@boost@@U345@U345@U345@U345@U345@U345@U345@@tuples@boost@@@std@@@2@$00@std@@@2@XZ 0042aac0 f i SuperTree.obj
 0001:00029ac0       ?_Root@?$_Tree@V?$_Tmap_traits@PAVCWnd@@IU?$less@PAVCWnd@@@std@@V?$allocator@U?$pair@QAVCWnd@@I@std@@@3@$0A@@std@@@std@@IBEAAPAU_Node@?$_Tree_nod@V?$_Tmap_traits@PAVCWnd@@IU?$less@PAVCWnd@@@std@@V?$allocator@U?$pair@QAVCWnd@@I@std@@@3@$0A@@std@@@2@XZ 0042aac0 f i MultiSplitterView.obj
 0001:00029ac0       ?_Root@?$_Tree@V?$_Tmap_traits@V?$CStringT@DV?$StrTraitMFC_DLL@DV?$ChTraitsCRT@D@ATL@@@@@ATL@@V?$shared_ptr@VCFont@@@tr1@std@@U?$less@V?$CStringT@DV?$StrTraitMFC_DLL@DV?$ChTraitsCRT@D@ATL@@@@@ATL@@@5@V?$allocator@U?$pair@$$CBV?$CStringT@DV?$StrTraitMFC_DLL@DV?$ChTraitsCRT@D@ATL@@@@@ATL@@V?$shared_ptr@VCFont@@@tr1@std@@@std@@@5@$0A@@std@@@std@@IBEAAPAU_Node@?$_Tree_nod@V?$_Tmap_traits@V?$CStringT@DV?$StrTraitMFC_DLL@DV?$ChTraitsCRT@D@ATL@@@@@ATL@@V?$shared_ptr@VCFont@@@tr1@std@@U?$less@V?$CStringT@DV?$StrTraitMFC_DLL@DV?$ChTraitsCRT@D@ATL@@@@@ATL@@@5@V?$allocator@U?$pair@$$CBV?$CStringT@DV?$StrTraitMFC_DLL@DV?$ChTraitsCRT@D@ATL@@@@@ATL@@V?$shared_ptr@VCFont@@@tr1@std@@@std@@@5@$0A@@std@@@2@XZ 0042aac0 f i DlgEnterCash.obj
 0001:00029ac0       ?_Root@?$_Tree@V?$_Tmap_traits@$$CBV?$basic_string@_WU?$char_traits@_W@std@@V?$allocator@_W@2@@std@@V_variant_t@@U?$less@$$CBV?$basic_string@_WU?$char_traits@_W@std@@V?$allocator@_W@2@@std@@@2@V?$allocator@U?$pair@$$CBV?$basic_string@_WU?$char_traits@_W@std@@V?$allocator@_W@2@@std@@V_variant_t@@@std@@@2@$0A@@std@@@std@@IBEAAPAU_Node@?$_Tree_nod@V?$_Tmap_traits@$$CBV?$basic_string@_WU?$char_traits@_W@std@@V?$allocator@_W@2@@std@@V_variant_t@@U?$less@$$CBV?$basic_string@_WU?$char_traits@_W@std@@V?$allocator@_W@2@@std@@@2@V?$allocator@U?$pair@$$CBV?$basic_string@_WU?$char_traits@_W@std@@V?$allocator@_W@2@@std@@V_variant_t@@@std@@@2@$0A@@std@@@2@XZ 0042aac0 f i CheckDoc.obj
 0001:00029ac0       ?_Root@?$_Tree@V?$_Tmap_traits@V?$CStringT@DV?$StrTraitMFC_DLL@DV?$ChTraitsCRT@D@ATL@@@@@ATL@@V?$CAdapt@V?$CComPtr@UIDispatch@@@ATL@@@2@U?$less@V?$CStringT@DV?$StrTraitMFC_DLL@DV?$ChTraitsCRT@D@ATL@@@@@ATL@@@std@@V?$allocator@U?$pair@$$CBV?$CStringT@DV?$StrTraitMFC_DLL@DV?$ChTraitsCRT@D@ATL@@@@@ATL@@V?$CAdapt@V?$CComPtr@UIDispatch@@@ATL@@@2@@std@@@5@$0A@@std@@@std@@IBEAAPAU_Node@?$_Tree_nod@V?$_Tmap_traits@V?$CStringT@DV?$StrTraitMFC_DLL@DV?$ChTraitsCRT@D@ATL@@@@@ATL@@V?$CAdapt@V?$CComPtr@UIDispatch@@@ATL@@@2@U?$less@V?$CStringT@DV?$StrTraitMFC_DLL@DV?$ChTraitsCRT@D@ATL@@@@@ATL@@@std@@V?$allocator@U?$pair@$$CBV?$CStringT@DV?$StrTraitMFC_DLL@DV?$ChTraitsCRT@D@ATL@@@@@ATL@@V?$CAdapt@V?$CComPtr@UIDispatch@@@ATL@@@2@@std@@@5@$0A@@std@@@2@XZ 0042aac0 f i DlgSelectGood.obj
 0001:00029ac0       ?_Root@?$_Tree@V?$_Tmap_traits@V?$basic_string@_WU?$char_traits@_W@std@@V?$allocator@_W@2@@std@@PAU_TREEITEM@@U?$less@V?$basic_string@_WU?$char_traits@_W@std@@V?$allocator@_W@2@@std@@@2@V?$allocator@U?$pair@$$CBV?$basic_string@_WU?$char_traits@_W@std@@V?$allocator@_W@2@@std@@PAU_TREEITEM@@@std@@@2@$0A@@std@@@std@@IBEAAPAU_Node@?$_Tree_nod@V?$_Tmap_traits@V?$basic_string@_WU?$char_traits@_W@std@@V?$allocator@_W@2@@std@@PAU_TREEITEM@@U?$less@V?$basic_string@_WU?$char_traits@_W@std@@V?$allocator@_W@2@@std@@@2@V?$allocator@U?$pair@$$CBV?$basic_string@_WU?$char_traits@_W@std@@V?$allocator@_W@2@@std@@PAU_TREEITEM@@@std@@@2@$0A@@std@@@2@XZ 0042aac0 f i SuperTree.obj
 0001:00029ac0       ?_Root@?$_Tree@V?$_Tmap_traits@V?$basic_string@_WU?$char_traits@_W@std@@V?$allocator@_W@2@@std@@V12@U?$less@V?$basic_string@_WU?$char_traits@_W@std@@V?$allocator@_W@2@@std@@@2@V?$allocator@U?$pair@$$CBV?$basic_string@_WU?$char_traits@_W@std@@V?$allocator@_W@2@@std@@V12@@std@@@2@$0A@@std@@@std@@IBEAAPAU_Node@?$_Tree_nod@V?$_Tmap_traits@V?$basic_string@_WU?$char_traits@_W@std@@V?$allocator@_W@2@@std@@V12@U?$less@V?$basic_string@_WU?$char_traits@_W@std@@V?$allocator@_W@2@@std@@@2@V?$allocator@U?$pair@$$CBV?$basic_string@_WU?$char_traits@_W@std@@V?$allocator@_W@2@@std@@V12@@std@@@2@$0A@@std@@@2@XZ 0042aac0 f i CheckDoc.obj
 0001:00029ae0       ?_Isnil@?$_Tree_val@V?$_Tmap_traits@V?$CStringT@DV?$StrTraitMFC_DLL@DV?$ChTraitsCRT@D@ATL@@@@@ATL@@V?$shared_ptr@VCFont@@@tr1@std@@U?$less@V?$CStringT@DV?$StrTraitMFC_DLL@DV?$ChTraitsCRT@D@ATL@@@@@ATL@@@5@V?$allocator@U?$pair@$$CBV?$CStringT@DV?$StrTraitMFC_DLL@DV?$ChTraitsCRT@D@ATL@@@@@ATL@@V?$shared_ptr@VCFont@@@tr1@std@@@std@@@5@$0A@@std@@@std@@SAAADPAU_Node@?$_Tree_nod@V?$_Tmap_traits@V?$CStringT@DV?$StrTraitMFC_DLL@DV?$ChTraitsCRT@D@ATL@@@@@ATL@@V?$shared_ptr@VCFont@@@tr1@std@@U?$less@V?$CStringT@DV?$StrTraitMFC_DLL@DV?$ChTraitsCRT@D@ATL@@@@@ATL@@@5@V?$allocator@U?$pair@$$CBV?$CStringT@DV?$StrTraitMFC_DLL@DV?$ChTraitsCRT@D@ATL@@@@@ATL@@V?$shared_ptr@VCFont@@@tr1@std@@@std@@@5@$0A@@std@@@2@@Z 0042aae0 f i DlgEnterCash.obj
 0001:00029af0       ??0?$shared_ptr@VCFont@@@tr1@std@@QAE@$$QAV012@@Z 0042aaf0 f i DlgEnterCash.obj
 0001:00029b20       ?GetLogFont@CFont@@QAEHPAUtagLOGFONTA@@@Z 0042ab20 f i DlgEnterCash.obj
 0001:00029b40       ??0?$_Ptr_base@VCFont@@@tr1@std@@QAE@$$QAV012@@Z 0042ab40 f i DlgEnterCash.obj
 0001:00029b80       ?_Assign_rv@?$_Ptr_base@VCFont@@@tr1@std@@QAEX$$QAV123@@Z 0042ab80 f i DlgEnterCash.obj
 0001:00029bb0       ?_Swap@?$_Ptr_base@VCFont@@@tr1@std@@QAEXAAV123@@Z 0042abb0 f i DlgEnterCash.obj
 0001:00029bf0       ?GetTextMetricsA@CDC@@QBEHPAUtagTEXTMETRICA@@@Z 0042abf0 f i DlgEnterCash.obj
 0001:00029c10       ??$insert@U?$pair@$$CBV?$CStringT@DV?$StrTraitMFC_DLL@DV?$ChTraitsCRT@D@ATL@@@@@ATL@@V?$shared_ptr@VCFont@@@tr1@std@@@std@@@?$_Tree@V?$_Tmap_traits@V?$CStringT@DV?$StrTraitMFC_DLL@DV?$ChTraitsCRT@D@ATL@@@@@ATL@@V?$shared_ptr@VCFont@@@tr1@std@@U?$less@V?$CStringT@DV?$StrTraitMFC_DLL@DV?$ChTraitsCRT@D@ATL@@@@@ATL@@@5@V?$allocator@U?$pair@$$CBV?$CStringT@DV?$StrTraitMFC_DLL@DV?$ChTraitsCRT@D@ATL@@@@@ATL@@V?$shared_ptr@VCFont@@@tr1@std@@@std@@@5@$0A@@std@@@std@@QAE?AV?$_Tree_iterator@V?$_Tree_val@V?$_Tmap_traits@V?$CStringT@DV?$StrTraitMFC_DLL@DV?$ChTraitsCRT@D@ATL@@@@@ATL@@V?$shared_ptr@VCFont@@@tr1@std@@U?$less@V?$CStringT@DV?$StrTraitMFC_DLL@DV?$ChTraitsCRT@D@ATL@@@@@ATL@@@5@V?$allocator@U?$pair@$$CBV?$CStringT@DV?$StrTraitMFC_DLL@DV?$ChTraitsCRT@D@ATL@@@@@ATL@@V?$shared_ptr@VCFont@@@tr1@std@@@std@@@5@$0A@@std@@@std@@@1@V?$_Tree_const_iterator@V?$_Tree_val@V?$_Tmap_traits@V?$CStringT@DV?$StrTraitMFC_DLL@DV?$ChTraitsCRT@D@ATL@@@@@ATL@@V?$shared_ptr@VCFont@@@tr1@std@@U?$less@V?$CStringT@DV?$StrTraitMFC_DLL@DV?$ChTraitsCRT@D@ATL@@@@@ATL@@@5@V?$allocator@U?$pair@$$CBV?$CStringT@DV?$StrTraitMFC_DLL@DV?$ChTraitsCRT@D@ATL@@@@@ATL@@V?$shared_ptr@VCFont@@@tr1@std@@@std@@@5@$0A@@std@@@std@@@1@$$QAU?$pair@$$CBV?$CStringT@DV?$StrTraitMFC_DLL@DV?$ChTraitsCRT@D@ATL@@@@@ATL@@V?$shared_ptr@VCFont@@@tr1@std@@@1@@Z 0042ac10 f i DlgEnterCash.obj
 0001:00029c50       ?SetFont@CWnd@@QAEXPAVCFont@@H@Z 0042ac50 f i DlgEnterCash.obj
 0001:00029c80       ?GetDC@CWnd@@QAEPAVCDC@@XZ 0042ac80 f i DlgEnterCash.obj
 0001:00029ca0       ?_Insert@?$_Tree@V?$_Tmap_traits@V?$CStringT@DV?$StrTraitMFC_DLL@DV?$ChTraitsCRT@D@ATL@@@@@ATL@@V?$shared_ptr@VCFont@@@tr1@std@@U?$less@V?$CStringT@DV?$StrTraitMFC_DLL@DV?$ChTraitsCRT@D@ATL@@@@@ATL@@@5@V?$allocator@U?$pair@$$CBV?$CStringT@DV?$StrTraitMFC_DLL@DV?$ChTraitsCRT@D@ATL@@@@@ATL@@V?$shared_ptr@VCFont@@@tr1@std@@@std@@@5@$0A@@std@@@std@@QAE?AV?$_Tree_iterator@V?$_Tree_val@V?$_Tmap_traits@V?$CStringT@DV?$StrTraitMFC_DLL@DV?$ChTraitsCRT@D@ATL@@@@@ATL@@V?$shared_ptr@VCFont@@@tr1@std@@U?$less@V?$CStringT@DV?$StrTraitMFC_DLL@DV?$ChTraitsCRT@D@ATL@@@@@ATL@@@5@V?$allocator@U?$pair@$$CBV?$CStringT@DV?$StrTraitMFC_DLL@DV?$ChTraitsCRT@D@ATL@@@@@ATL@@V?$shared_ptr@VCFont@@@tr1@std@@@std@@@5@$0A@@std@@@std@@@2@V?$_Tree_const_iterator@V?$_Tree_val@V?$_Tmap_traits@V?$CStringT@DV?$StrTraitMFC_DLL@DV?$ChTraitsCRT@D@ATL@@@@@ATL@@V?$shared_ptr@VCFont@@@tr1@std@@U?$less@V?$CStringT@DV?$StrTraitMFC_DLL@DV?$ChTraitsCRT@D@ATL@@@@@ATL@@@5@V?$allocator@U?$pair@$$CBV?$CStringT@DV?$StrTraitMFC_DLL@DV?$ChTraitsCRT@D@ATL@@@@@ATL@@V?$shared_ptr@VCFont@@@tr1@std@@@std@@@5@$0A@@std@@@std@@@2@PAU_Node@?$_Tree_nod@V?$_Tmap_traits@V?$CStringT@DV?$StrTraitMFC_DLL@DV?$ChTraitsCRT@D@ATL@@@@@ATL@@V?$shared_ptr@VCFont@@@tr1@std@@U?$less@V?$CStringT@DV?$StrTraitMFC_DLL@DV?$ChTraitsCRT@D@ATL@@@@@ATL@@@5@V?$allocator@U?$pair@$$CBV?$CStringT@DV?$StrTraitMFC_DLL@DV?$ChTraitsCRT@D@ATL@@@@@ATL@@V?$shared_ptr@VCFont@@@tr1@std@@@std@@@5@$0A@@std@@@2@@Z 0042aca0 f i DlgEnterCash.obj
 0001:0002a2a0       ?_Linsert@?$_Tree@V?$_Tmap_traits@V?$CStringT@DV?$StrTraitMFC_DLL@DV?$ChTraitsCRT@D@ATL@@@@@ATL@@V?$shared_ptr@VCFont@@@tr1@std@@U?$less@V?$CStringT@DV?$StrTraitMFC_DLL@DV?$ChTraitsCRT@D@ATL@@@@@ATL@@@5@V?$allocator@U?$pair@$$CBV?$CStringT@DV?$StrTraitMFC_DLL@DV?$ChTraitsCRT@D@ATL@@@@@ATL@@V?$shared_ptr@VCFont@@@tr1@std@@@std@@@5@$0A@@std@@@std@@QAE?AU?$pair@V?$_Tree_iterator@V?$_Tree_val@V?$_Tmap_traits@V?$CStringT@DV?$StrTraitMFC_DLL@DV?$ChTraitsCRT@D@ATL@@@@@ATL@@V?$shared_ptr@VCFont@@@tr1@std@@U?$less@V?$CStringT@DV?$StrTraitMFC_DLL@DV?$ChTraitsCRT@D@ATL@@@@@ATL@@@5@V?$allocator@U?$pair@$$CBV?$CStringT@DV?$StrTraitMFC_DLL@DV?$ChTraitsCRT@D@ATL@@@@@ATL@@V?$shared_ptr@VCFont@@@tr1@std@@@std@@@5@$0A@@std@@@std@@@std@@_N@2@PAU_Node@?$_Tree_nod@V?$_Tmap_traits@V?$CStringT@DV?$StrTraitMFC_DLL@DV?$ChTraitsCRT@D@ATL@@@@@ATL@@V?$shared_ptr@VCFont@@@tr1@std@@U?$less@V?$CStringT@DV?$StrTraitMFC_DLL@DV?$ChTraitsCRT@D@ATL@@@@@ATL@@@5@V?$allocator@U?$pair@$$CBV?$CStringT@DV?$StrTraitMFC_DLL@DV?$ChTraitsCRT@D@ATL@@@@@ATL@@V?$shared_ptr@VCFont@@@tr1@std@@@std@@@5@$0A@@std@@@2@_N@Z 0042b2a0 f i DlgEnterCash.obj
 0001:0002a4e0       ?_Insert@?$_Tree@V?$_Tmap_traits@V?$CStringT@DV?$StrTraitMFC_DLL@DV?$ChTraitsCRT@D@ATL@@@@@ATL@@V?$shared_ptr@VCFont@@@tr1@std@@U?$less@V?$CStringT@DV?$StrTraitMFC_DLL@DV?$ChTraitsCRT@D@ATL@@@@@ATL@@@5@V?$allocator@U?$pair@$$CBV?$CStringT@DV?$StrTraitMFC_DLL@DV?$ChTraitsCRT@D@ATL@@@@@ATL@@V?$shared_ptr@VCFont@@@tr1@std@@@std@@@5@$0A@@std@@@std@@IAE?AV?$_Tree_iterator@V?$_Tree_val@V?$_Tmap_traits@V?$CStringT@DV?$StrTraitMFC_DLL@DV?$ChTraitsCRT@D@ATL@@@@@ATL@@V?$shared_ptr@VCFont@@@tr1@std@@U?$less@V?$CStringT@DV?$StrTraitMFC_DLL@DV?$ChTraitsCRT@D@ATL@@@@@ATL@@@5@V?$allocator@U?$pair@$$CBV?$CStringT@DV?$StrTraitMFC_DLL@DV?$ChTraitsCRT@D@ATL@@@@@ATL@@V?$shared_ptr@VCFont@@@tr1@std@@@std@@@5@$0A@@std@@@std@@@2@_NPAU_Node@?$_Tree_nod@V?$_Tmap_traits@V?$CStringT@DV?$StrTraitMFC_DLL@DV?$ChTraitsCRT@D@ATL@@@@@ATL@@V?$shared_ptr@VCFont@@@tr1@std@@U?$less@V?$CStringT@DV?$StrTraitMFC_DLL@DV?$ChTraitsCRT@D@ATL@@@@@ATL@@@5@V?$allocator@U?$pair@$$CBV?$CStringT@DV?$StrTraitMFC_DLL@DV?$ChTraitsCRT@D@ATL@@@@@ATL@@V?$shared_ptr@VCFont@@@tr1@std@@@std@@@5@$0A@@std@@@2@1@Z 0042b4e0 f i DlgEnterCash.obj
 0001:0002a920       ??E?$_Tree_const_iterator@V?$_Tree_val@V?$_Tmap_traits@V?$CStringT@DV?$StrTraitMFC_DLL@DV?$ChTraitsCRT@D@ATL@@@@@ATL@@V?$shared_ptr@VCFont@@@tr1@std@@U?$less@V?$CStringT@DV?$StrTraitMFC_DLL@DV?$ChTraitsCRT@D@ATL@@@@@ATL@@@5@V?$allocator@U?$pair@$$CBV?$CStringT@DV?$StrTraitMFC_DLL@DV?$ChTraitsCRT@D@ATL@@@@@ATL@@V?$shared_ptr@VCFont@@@tr1@std@@@std@@@5@$0A@@std@@@std@@@std@@QAEAAV01@XZ 0042b920 f i DlgEnterCash.obj
 0001:0002a920       ??E?$_Tree_unchecked_iterator@V?$_Tree_val@V?$_Tmap_traits@V?$CStringT@DV?$StrTraitMFC_DLL@DV?$ChTraitsCRT@D@ATL@@@@@ATL@@V?$shared_ptr@VCFont@@@tr1@std@@U?$less@V?$CStringT@DV?$StrTraitMFC_DLL@DV?$ChTraitsCRT@D@ATL@@@@@ATL@@@5@V?$allocator@U?$pair@$$CBV?$CStringT@DV?$StrTraitMFC_DLL@DV?$ChTraitsCRT@D@ATL@@@@@ATL@@V?$shared_ptr@VCFont@@@tr1@std@@@std@@@5@$0A@@std@@@std@@@std@@QAEAAV01@XZ 0042b920 f i FontDlgPage.obj
 0001:0002a940       ??F?$_Tree_const_iterator@V?$_Tree_val@V?$_Tmap_traits@V?$CStringT@DV?$StrTraitMFC_DLL@DV?$ChTraitsCRT@D@ATL@@@@@ATL@@V?$shared_ptr@VCFont@@@tr1@std@@U?$less@V?$CStringT@DV?$StrTraitMFC_DLL@DV?$ChTraitsCRT@D@ATL@@@@@ATL@@@5@V?$allocator@U?$pair@$$CBV?$CStringT@DV?$StrTraitMFC_DLL@DV?$ChTraitsCRT@D@ATL@@@@@ATL@@V?$shared_ptr@VCFont@@@tr1@std@@@std@@@5@$0A@@std@@@std@@@std@@QAEAAV01@XZ 0042b940 f i DlgEnterCash.obj
 0001:0002a960       ?max_size@?$_Tree@V?$_Tmap_traits@V?$CStringT@DV?$StrTraitMFC_DLL@DV?$ChTraitsCRT@D@ATL@@@@@ATL@@V?$shared_ptr@VCFont@@@tr1@std@@U?$less@V?$CStringT@DV?$StrTraitMFC_DLL@DV?$ChTraitsCRT@D@ATL@@@@@ATL@@@5@V?$allocator@U?$pair@$$CBV?$CStringT@DV?$StrTraitMFC_DLL@DV?$ChTraitsCRT@D@ATL@@@@@ATL@@V?$shared_ptr@VCFont@@@tr1@std@@@std@@@5@$0A@@std@@@std@@QBEIXZ 0042b960 f i DlgEnterCash.obj
 0001:0002a980       ?_Lmost@?$_Tree@V?$_Tmap_traits@V?$basic_string@_WU?$char_traits@_W@std@@V?$allocator@_W@2@@std@@V?$tuple@V?$basic_string@_WU?$char_traits@_W@std@@V?$allocator@_W@2@@std@@V12@Unull_type@tuples@boost@@U345@U345@U345@U345@U345@U345@U345@@tuples@boost@@U?$less@V?$basic_string@_WU?$char_traits@_W@std@@V?$allocator@_W@2@@std@@@2@V?$allocator@U?$pair@$$CBV?$basic_string@_WU?$char_traits@_W@std@@V?$allocator@_W@2@@std@@V?$tuple@V?$basic_string@_WU?$char_traits@_W@std@@V?$allocator@_W@2@@std@@V12@Unull_type@tuples@boost@@U345@U345@U345@U345@U345@U345@U345@@tuples@boost@@@std@@@2@$00@std@@@std@@IBEAAPAU_Node@?$_Tree_nod@V?$_Tmap_traits@V?$basic_string@_WU?$char_traits@_W@std@@V?$allocator@_W@2@@std@@V?$tuple@V?$basic_string@_WU?$char_traits@_W@std@@V?$allocator@_W@2@@std@@V12@Unull_type@tuples@boost@@U345@U345@U345@U345@U345@U345@U345@@tuples@boost@@U?$less@V?$basic_string@_WU?$char_traits@_W@std@@V?$allocator@_W@2@@std@@@2@V?$allocator@U?$pair@$$CBV?$basic_string@_WU?$char_traits@_W@std@@V?$allocator@_W@2@@std@@V?$tuple@V?$basic_string@_WU?$char_traits@_W@std@@V?$allocator@_W@2@@std@@V12@Unull_type@tuples@boost@@U345@U345@U345@U345@U345@U345@U345@@tuples@boost@@@std@@@2@$00@std@@@2@XZ 0042b980 f i SuperTree.obj
 0001:0002a980       ?_Lmost@?$_Tree@V?$_Tmap_traits@V?$basic_string@_WU?$char_traits@_W@std@@V?$allocator@_W@2@@std@@V12@U?$less@V?$basic_string@_WU?$char_traits@_W@std@@V?$allocator@_W@2@@std@@@2@V?$allocator@U?$pair@$$CBV?$basic_string@_WU?$char_traits@_W@std@@V?$allocator@_W@2@@std@@V12@@std@@@2@$0A@@std@@@std@@IBEAAPAU_Node@?$_Tree_nod@V?$_Tmap_traits@V?$basic_string@_WU?$char_traits@_W@std@@V?$allocator@_W@2@@std@@V12@U?$less@V?$basic_string@_WU?$char_traits@_W@std@@V?$allocator@_W@2@@std@@@2@V?$allocator@U?$pair@$$CBV?$basic_string@_WU?$char_traits@_W@std@@V?$allocator@_W@2@@std@@V12@@std@@@2@$0A@@std@@@2@XZ 0042b980 f i CheckDoc.obj
 0001:0002a980       ?_Lmost@?$_Tree@V?$_Tmap_traits@V?$basic_string@_WU?$char_traits@_W@std@@V?$allocator@_W@2@@std@@PAU_TREEITEM@@U?$less@V?$basic_string@_WU?$char_traits@_W@std@@V?$allocator@_W@2@@std@@@2@V?$allocator@U?$pair@$$CBV?$basic_string@_WU?$char_traits@_W@std@@V?$allocator@_W@2@@std@@PAU_TREEITEM@@@std@@@2@$0A@@std@@@std@@IBEAAPAU_Node@?$_Tree_nod@V?$_Tmap_traits@V?$basic_string@_WU?$char_traits@_W@std@@V?$allocator@_W@2@@std@@PAU_TREEITEM@@U?$less@V?$basic_string@_WU?$char_traits@_W@std@@V?$allocator@_W@2@@std@@@2@V?$allocator@U?$pair@$$CBV?$basic_string@_WU?$char_traits@_W@std@@V?$allocator@_W@2@@std@@PAU_TREEITEM@@@std@@@2@$0A@@std@@@2@XZ 0042b980 f i SuperTree.obj
 0001:0002a980       ?_Lmost@?$_Tree@V?$_Tmap_traits@V?$CStringT@DV?$StrTraitMFC_DLL@DV?$ChTraitsCRT@D@ATL@@@@@ATL@@V?$shared_ptr@VCFont@@@tr1@std@@U?$less@V?$CStringT@DV?$StrTraitMFC_DLL@DV?$ChTraitsCRT@D@ATL@@@@@ATL@@@5@V?$allocator@U?$pair@$$CBV?$CStringT@DV?$StrTraitMFC_DLL@DV?$ChTraitsCRT@D@ATL@@@@@ATL@@V?$shared_ptr@VCFont@@@tr1@std@@@std@@@5@$0A@@std@@@std@@IBEAAPAU_Node@?$_Tree_nod@V?$_Tmap_traits@V?$CStringT@DV?$StrTraitMFC_DLL@DV?$ChTraitsCRT@D@ATL@@@@@ATL@@V?$shared_ptr@VCFont@@@tr1@std@@U?$less@V?$CStringT@DV?$StrTraitMFC_DLL@DV?$ChTraitsCRT@D@ATL@@@@@ATL@@@5@V?$allocator@U?$pair@$$CBV?$CStringT@DV?$StrTraitMFC_DLL@DV?$ChTraitsCRT@D@ATL@@@@@ATL@@V?$shared_ptr@VCFont@@@tr1@std@@@std@@@5@$0A@@std@@@2@XZ 0042b980 f i DlgEnterCash.obj
 0001:0002a980       ?_Lmost@?$_Tree@V?$_Tmap_traits@$$CBV?$basic_string@_WU?$char_traits@_W@std@@V?$allocator@_W@2@@std@@V_variant_t@@U?$less@$$CBV?$basic_string@_WU?$char_traits@_W@std@@V?$allocator@_W@2@@std@@@2@V?$allocator@U?$pair@$$CBV?$basic_string@_WU?$char_traits@_W@std@@V?$allocator@_W@2@@std@@V_variant_t@@@std@@@2@$0A@@std@@@std@@IBEAAPAU_Node@?$_Tree_nod@V?$_Tmap_traits@$$CBV?$basic_string@_WU?$char_traits@_W@std@@V?$allocator@_W@2@@std@@V_variant_t@@U?$less@$$CBV?$basic_string@_WU?$char_traits@_W@std@@V?$allocator@_W@2@@std@@@2@V?$allocator@U?$pair@$$CBV?$basic_string@_WU?$char_traits@_W@std@@V?$allocator@_W@2@@std@@V_variant_t@@@std@@@2@$0A@@std@@@2@XZ 0042b980 f i CheckDoc.obj
 0001:0002a980       ?_Lmost@?$_Tree@V?$_Tmap_traits@V?$CStringT@DV?$StrTraitMFC_DLL@DV?$ChTraitsCRT@D@ATL@@@@@ATL@@V?$CAdapt@V?$CComPtr@UIDispatch@@@ATL@@@2@U?$less@V?$CStringT@DV?$StrTraitMFC_DLL@DV?$ChTraitsCRT@D@ATL@@@@@ATL@@@std@@V?$allocator@U?$pair@$$CBV?$CStringT@DV?$StrTraitMFC_DLL@DV?$ChTraitsCRT@D@ATL@@@@@ATL@@V?$CAdapt@V?$CComPtr@UIDispatch@@@ATL@@@2@@std@@@5@$0A@@std@@@std@@IBEAAPAU_Node@?$_Tree_nod@V?$_Tmap_traits@V?$CStringT@DV?$StrTraitMFC_DLL@DV?$ChTraitsCRT@D@ATL@@@@@ATL@@V?$CAdapt@V?$CComPtr@UIDispatch@@@ATL@@@2@U?$less@V?$CStringT@DV?$StrTraitMFC_DLL@DV?$ChTraitsCRT@D@ATL@@@@@ATL@@@std@@V?$allocator@U?$pair@$$CBV?$CStringT@DV?$StrTraitMFC_DLL@DV?$ChTraitsCRT@D@ATL@@@@@ATL@@V?$CAdapt@V?$CComPtr@UIDispatch@@@ATL@@@2@@std@@@5@$0A@@std@@@2@XZ 0042b980 f i DlgSelectGood.obj
 0001:0002a980       ?_Lmost@?$_Tree@V?$_Tmap_traits@PAVCWnd@@IU?$less@PAVCWnd@@@std@@V?$allocator@U?$pair@QAVCWnd@@I@std@@@3@$0A@@std@@@std@@IBEAAPAU_Node@?$_Tree_nod@V?$_Tmap_traits@PAVCWnd@@IU?$less@PAVCWnd@@@std@@V?$allocator@U?$pair@QAVCWnd@@I@std@@@3@$0A@@std@@@2@XZ 0042b980 f i MultiSplitterView.obj
 0001:0002a9a0       ?_Lrotate@?$_Tree@V?$_Tmap_traits@V?$CStringT@DV?$StrTraitMFC_DLL@DV?$ChTraitsCRT@D@ATL@@@@@ATL@@V?$shared_ptr@VCFont@@@tr1@std@@U?$less@V?$CStringT@DV?$StrTraitMFC_DLL@DV?$ChTraitsCRT@D@ATL@@@@@ATL@@@5@V?$allocator@U?$pair@$$CBV?$CStringT@DV?$StrTraitMFC_DLL@DV?$ChTraitsCRT@D@ATL@@@@@ATL@@V?$shared_ptr@VCFont@@@tr1@std@@@std@@@5@$0A@@std@@@std@@IAEXPAU_Node@?$_Tree_nod@V?$_Tmap_traits@V?$CStringT@DV?$StrTraitMFC_DLL@DV?$ChTraitsCRT@D@ATL@@@@@ATL@@V?$shared_ptr@VCFont@@@tr1@std@@U?$less@V?$CStringT@DV?$StrTraitMFC_DLL@DV?$ChTraitsCRT@D@ATL@@@@@ATL@@@5@V?$allocator@U?$pair@$$CBV?$CStringT@DV?$StrTraitMFC_DLL@DV?$ChTraitsCRT@D@ATL@@@@@ATL@@V?$shared_ptr@VCFont@@@tr1@std@@@std@@@5@$0A@@std@@@2@@Z 0042b9a0 f i DlgEnterCash.obj
 0001:0002aad0       ?_Rrotate@?$_Tree@V?$_Tmap_traits@V?$CStringT@DV?$StrTraitMFC_DLL@DV?$ChTraitsCRT@D@ATL@@@@@ATL@@V?$shared_ptr@VCFont@@@tr1@std@@U?$less@V?$CStringT@DV?$StrTraitMFC_DLL@DV?$ChTraitsCRT@D@ATL@@@@@ATL@@@5@V?$allocator@U?$pair@$$CBV?$CStringT@DV?$StrTraitMFC_DLL@DV?$ChTraitsCRT@D@ATL@@@@@ATL@@V?$shared_ptr@VCFont@@@tr1@std@@@std@@@5@$0A@@std@@@std@@IAEXPAU_Node@?$_Tree_nod@V?$_Tmap_traits@V?$CStringT@DV?$StrTraitMFC_DLL@DV?$ChTraitsCRT@D@ATL@@@@@ATL@@V?$shared_ptr@VCFont@@@tr1@std@@U?$less@V?$CStringT@DV?$StrTraitMFC_DLL@DV?$ChTraitsCRT@D@ATL@@@@@ATL@@@5@V?$allocator@U?$pair@$$CBV?$CStringT@DV?$StrTraitMFC_DLL@DV?$ChTraitsCRT@D@ATL@@@@@ATL@@V?$shared_ptr@VCFont@@@tr1@std@@@std@@@5@$0A@@std@@@2@@Z 0042bad0 f i DlgEnterCash.obj
 0001:0002ac00       ?_Color@?$_Tree_val@V?$_Tmap_traits@V?$CStringT@DV?$StrTraitMFC_DLL@DV?$ChTraitsCRT@D@ATL@@@@@ATL@@V?$shared_ptr@VCFont@@@tr1@std@@U?$less@V?$CStringT@DV?$StrTraitMFC_DLL@DV?$ChTraitsCRT@D@ATL@@@@@ATL@@@5@V?$allocator@U?$pair@$$CBV?$CStringT@DV?$StrTraitMFC_DLL@DV?$ChTraitsCRT@D@ATL@@@@@ATL@@V?$shared_ptr@VCFont@@@tr1@std@@@std@@@5@$0A@@std@@@std@@SAAADPAU_Node@?$_Tree_nod@V?$_Tmap_traits@V?$CStringT@DV?$StrTraitMFC_DLL@DV?$ChTraitsCRT@D@ATL@@@@@ATL@@V?$shared_ptr@VCFont@@@tr1@std@@U?$less@V?$CStringT@DV?$StrTraitMFC_DLL@DV?$ChTraitsCRT@D@ATL@@@@@ATL@@@5@V?$allocator@U?$pair@$$CBV?$CStringT@DV?$StrTraitMFC_DLL@DV?$ChTraitsCRT@D@ATL@@@@@ATL@@V?$shared_ptr@VCFont@@@tr1@std@@@std@@@5@$0A@@std@@@2@@Z 0042bc00 f i DlgEnterCash.obj
 0001:0002ac10       ??F?$_Tree_iterator@V?$_Tree_val@V?$_Tmap_traits@V?$CStringT@DV?$StrTraitMFC_DLL@DV?$ChTraitsCRT@D@ATL@@@@@ATL@@V?$shared_ptr@VCFont@@@tr1@std@@U?$less@V?$CStringT@DV?$StrTraitMFC_DLL@DV?$ChTraitsCRT@D@ATL@@@@@ATL@@@5@V?$allocator@U?$pair@$$CBV?$CStringT@DV?$StrTraitMFC_DLL@DV?$ChTraitsCRT@D@ATL@@@@@ATL@@V?$shared_ptr@VCFont@@@tr1@std@@@std@@@5@$0A@@std@@@std@@@std@@QAEAAV01@XZ 0042bc10 f i DlgEnterCash.obj
 0001:0002ac30       ??E?$_Tree_unchecked_const_iterator@V?$_Tree_val@V?$_Tmap_traits@V?$CStringT@DV?$StrTraitMFC_DLL@DV?$ChTraitsCRT@D@ATL@@@@@ATL@@V?$shared_ptr@VCFont@@@tr1@std@@U?$less@V?$CStringT@DV?$StrTraitMFC_DLL@DV?$ChTraitsCRT@D@ATL@@@@@ATL@@@5@V?$allocator@U?$pair@$$CBV?$CStringT@DV?$StrTraitMFC_DLL@DV?$ChTraitsCRT@D@ATL@@@@@ATL@@V?$shared_ptr@VCFont@@@tr1@std@@@std@@@5@$0A@@std@@@std@@U_Iterator_base0@2@@std@@QAEAAV01@XZ 0042bc30 f i DlgEnterCash.obj
 0001:0002acf0       ??F?$_Tree_unchecked_const_iterator@V?$_Tree_val@V?$_Tmap_traits@V?$CStringT@DV?$StrTraitMFC_DLL@DV?$ChTraitsCRT@D@ATL@@@@@ATL@@V?$shared_ptr@VCFont@@@tr1@std@@U?$less@V?$CStringT@DV?$StrTraitMFC_DLL@DV?$ChTraitsCRT@D@ATL@@@@@ATL@@@5@V?$allocator@U?$pair@$$CBV?$CStringT@DV?$StrTraitMFC_DLL@DV?$ChTraitsCRT@D@ATL@@@@@ATL@@V?$shared_ptr@VCFont@@@tr1@std@@@std@@@5@$0A@@std@@@std@@U_Iterator_base0@2@@std@@QAEAAV01@XZ 0042bcf0 f i DlgEnterCash.obj
 0001:0002ade0       ?_Max@?$_Tree_val@V?$_Tmap_traits@V?$CStringT@DV?$StrTraitMFC_DLL@DV?$ChTraitsCRT@D@ATL@@@@@ATL@@V?$shared_ptr@VCFont@@@tr1@std@@U?$less@V?$CStringT@DV?$StrTraitMFC_DLL@DV?$ChTraitsCRT@D@ATL@@@@@ATL@@@5@V?$allocator@U?$pair@$$CBV?$CStringT@DV?$StrTraitMFC_DLL@DV?$ChTraitsCRT@D@ATL@@@@@ATL@@V?$shared_ptr@VCFont@@@tr1@std@@@std@@@5@$0A@@std@@@std@@SAPAU_Node@?$_Tree_nod@V?$_Tmap_traits@V?$CStringT@DV?$StrTraitMFC_DLL@DV?$ChTraitsCRT@D@ATL@@@@@ATL@@V?$shared_ptr@VCFont@@@tr1@std@@U?$less@V?$CStringT@DV?$StrTraitMFC_DLL@DV?$ChTraitsCRT@D@ATL@@@@@ATL@@@5@V?$allocator@U?$pair@$$CBV?$CStringT@DV?$StrTraitMFC_DLL@DV?$ChTraitsCRT@D@ATL@@@@@ATL@@V?$shared_ptr@VCFont@@@tr1@std@@@std@@@5@$0A@@std@@@2@PAU342@@Z 0042bde0 f i DlgEnterCash.obj
 0001:0002ae20       ?_Min@?$_Tree_val@V?$_Tmap_traits@V?$CStringT@DV?$StrTraitMFC_DLL@DV?$ChTraitsCRT@D@ATL@@@@@ATL@@V?$shared_ptr@VCFont@@@tr1@std@@U?$less@V?$CStringT@DV?$StrTraitMFC_DLL@DV?$ChTraitsCRT@D@ATL@@@@@ATL@@@5@V?$allocator@U?$pair@$$CBV?$CStringT@DV?$StrTraitMFC_DLL@DV?$ChTraitsCRT@D@ATL@@@@@ATL@@V?$shared_ptr@VCFont@@@tr1@std@@@std@@@5@$0A@@std@@@std@@SAPAU_Node@?$_Tree_nod@V?$_Tmap_traits@V?$CStringT@DV?$StrTraitMFC_DLL@DV?$ChTraitsCRT@D@ATL@@@@@ATL@@V?$shared_ptr@VCFont@@@tr1@std@@U?$less@V?$CStringT@DV?$StrTraitMFC_DLL@DV?$ChTraitsCRT@D@ATL@@@@@ATL@@@5@V?$allocator@U?$pair@$$CBV?$CStringT@DV?$StrTraitMFC_DLL@DV?$ChTraitsCRT@D@ATL@@@@@ATL@@V?$shared_ptr@VCFont@@@tr1@std@@@std@@@5@$0A@@std@@@2@PAU342@@Z 0042be20 f i DlgEnterCash.obj
 0001:0002ae60       ?max_size@?$allocator@U?$pair@$$CBV?$CStringT@DV?$StrTraitMFC_DLL@DV?$ChTraitsCRT@D@ATL@@@@@ATL@@V?$shared_ptr@VCFont@@@tr1@std@@@std@@@std@@QBEIXZ 0042be60 f i DlgEnterCash.obj
 0001:0002ae90       ??$_Buynode@U?$pair@$$CBV?$CStringT@DV?$StrTraitMFC_DLL@DV?$ChTraitsCRT@D@ATL@@@@@ATL@@V?$shared_ptr@VCFont@@@tr1@std@@@std@@@?$_Tree_val@V?$_Tmap_traits@V?$CStringT@DV?$StrTraitMFC_DLL@DV?$ChTraitsCRT@D@ATL@@@@@ATL@@V?$shared_ptr@VCFont@@@tr1@std@@U?$less@V?$CStringT@DV?$StrTraitMFC_DLL@DV?$ChTraitsCRT@D@ATL@@@@@ATL@@@5@V?$allocator@U?$pair@$$CBV?$CStringT@DV?$StrTraitMFC_DLL@DV?$ChTraitsCRT@D@ATL@@@@@ATL@@V?$shared_ptr@VCFont@@@tr1@std@@@std@@@5@$0A@@std@@@std@@QAEPAU_Node@?$_Tree_nod@V?$_Tmap_traits@V?$CStringT@DV?$StrTraitMFC_DLL@DV?$ChTraitsCRT@D@ATL@@@@@ATL@@V?$shared_ptr@VCFont@@@tr1@std@@U?$less@V?$CStringT@DV?$StrTraitMFC_DLL@DV?$ChTraitsCRT@D@ATL@@@@@ATL@@@5@V?$allocator@U?$pair@$$CBV?$CStringT@DV?$StrTraitMFC_DLL@DV?$ChTraitsCRT@D@ATL@@@@@ATL@@V?$shared_ptr@VCFont@@@tr1@std@@@std@@@5@$0A@@std@@@1@$$QAU?$pair@$$CBV?$CStringT@DV?$StrTraitMFC_DLL@DV?$ChTraitsCRT@D@ATL@@@@@ATL@@V?$shared_ptr@VCFont@@@tr1@std@@@1@@Z 0042be90 f i DlgEnterCash.obj
 0001:0002af60       ??$_Dest_val@V?$allocator@U?$pair@$$CBV?$CStringT@DV?$StrTraitMFC_DLL@DV?$ChTraitsCRT@D@ATL@@@@@ATL@@V?$shared_ptr@VCFont@@@tr1@std@@@std@@@std@@U?$pair@$$CBV?$CStringT@DV?$StrTraitMFC_DLL@DV?$ChTraitsCRT@D@ATL@@@@@ATL@@V?$shared_ptr@VCFont@@@tr1@std@@@2@@std@@YAXAAV?$allocator@U?$pair@$$CBV?$CStringT@DV?$StrTraitMFC_DLL@DV?$ChTraitsCRT@D@ATL@@@@@ATL@@V?$shared_ptr@VCFont@@@tr1@std@@@std@@@0@PAU?$pair@$$CBV?$CStringT@DV?$StrTraitMFC_DLL@DV?$ChTraitsCRT@D@ATL@@@@@ATL@@V?$shared_ptr@VCFont@@@tr1@std@@@0@@Z 0042bf60 f i DlgEnterCash.obj
 0001:0002af80       ?_Buynode@?$_Tree_val@V?$_Tmap_traits@V?$CStringT@DV?$StrTraitMFC_DLL@DV?$ChTraitsCRT@D@ATL@@@@@ATL@@V?$shared_ptr@VCFont@@@tr1@std@@U?$less@V?$CStringT@DV?$StrTraitMFC_DLL@DV?$ChTraitsCRT@D@ATL@@@@@ATL@@@5@V?$allocator@U?$pair@$$CBV?$CStringT@DV?$StrTraitMFC_DLL@DV?$ChTraitsCRT@D@ATL@@@@@ATL@@V?$shared_ptr@VCFont@@@tr1@std@@@std@@@5@$0A@@std@@@std@@QAEPAU_Node@?$_Tree_nod@V?$_Tmap_traits@V?$CStringT@DV?$StrTraitMFC_DLL@DV?$ChTraitsCRT@D@ATL@@@@@ATL@@V?$shared_ptr@VCFont@@@tr1@std@@U?$less@V?$CStringT@DV?$StrTraitMFC_DLL@DV?$ChTraitsCRT@D@ATL@@@@@ATL@@@5@V?$allocator@U?$pair@$$CBV?$CStringT@DV?$StrTraitMFC_DLL@DV?$ChTraitsCRT@D@ATL@@@@@ATL@@V?$shared_ptr@VCFont@@@tr1@std@@@std@@@5@$0A@@std@@@2@XZ 0042bf80 f i DlgEnterCash.obj
 0001:0002b000       ?SetSel@CEdit@@QAEXHHH@Z   0042c000 f i DlgEnterCash.obj
 0001:0002b050       ?destroy@?$allocator@U?$pair@$$CBV?$CStringT@DV?$StrTraitMFC_DLL@DV?$ChTraitsCRT@D@ATL@@@@@ATL@@V?$shared_ptr@VCFont@@@tr1@std@@@std@@@std@@QAEXPAU?$pair@$$CBV?$CStringT@DV?$StrTraitMFC_DLL@DV?$ChTraitsCRT@D@ATL@@@@@ATL@@V?$shared_ptr@VCFont@@@tr1@std@@@2@@Z 0042c050 f i DlgEnterCash.obj
 0001:0002b070       ?Clear@CEdit@@QAEXXZ       0042c070 f i DlgEnterCash.obj
 0001:0002b0a0       ?allocate@?$allocator@U_Node@?$_Tree_nod@V?$_Tmap_traits@V?$CStringT@DV?$StrTraitMFC_DLL@DV?$ChTraitsCRT@D@ATL@@@@@ATL@@V?$shared_ptr@VCFont@@@tr1@std@@U?$less@V?$CStringT@DV?$StrTraitMFC_DLL@DV?$ChTraitsCRT@D@ATL@@@@@ATL@@@5@V?$allocator@U?$pair@$$CBV?$CStringT@DV?$StrTraitMFC_DLL@DV?$ChTraitsCRT@D@ATL@@@@@ATL@@V?$shared_ptr@VCFont@@@tr1@std@@@std@@@5@$0A@@std@@@std@@@std@@QAEPAU_Node@?$_Tree_nod@V?$_Tmap_traits@V?$CStringT@DV?$StrTraitMFC_DLL@DV?$ChTraitsCRT@D@ATL@@@@@ATL@@V?$shared_ptr@VCFont@@@tr1@std@@U?$less@V?$CStringT@DV?$StrTraitMFC_DLL@DV?$ChTraitsCRT@D@ATL@@@@@ATL@@@5@V?$allocator@U?$pair@$$CBV?$CStringT@DV?$StrTraitMFC_DLL@DV?$ChTraitsCRT@D@ATL@@@@@ATL@@V?$shared_ptr@VCFont@@@tr1@std@@@std@@@5@$0A@@std@@@2@I@Z 0042c0a0 f i DlgEnterCash.obj
 0001:0002b0c0       ??$_Cons_val@V?$allocator@U?$pair@$$CBV?$CStringT@DV?$StrTraitMFC_DLL@DV?$ChTraitsCRT@D@ATL@@@@@ATL@@V?$shared_ptr@VCFont@@@tr1@std@@@std@@@std@@U?$pair@$$CBV?$CStringT@DV?$StrTraitMFC_DLL@DV?$ChTraitsCRT@D@ATL@@@@@ATL@@V?$shared_ptr@VCFont@@@tr1@std@@@2@U32@@std@@YAXAAV?$allocator@U?$pair@$$CBV?$CStringT@DV?$StrTraitMFC_DLL@DV?$ChTraitsCRT@D@ATL@@@@@ATL@@V?$shared_ptr@VCFont@@@tr1@std@@@std@@@0@PAU?$pair@$$CBV?$CStringT@DV?$StrTraitMFC_DLL@DV?$ChTraitsCRT@D@ATL@@@@@ATL@@V?$shared_ptr@VCFont@@@tr1@std@@@0@$$QAU20@@Z 0042c0c0 f i DlgEnterCash.obj
 0001:0002b0e0       ??$_Destroy@U?$pair@$$CBV?$CStringT@DV?$StrTraitMFC_DLL@DV?$ChTraitsCRT@D@ATL@@@@@ATL@@V?$shared_ptr@VCFont@@@tr1@std@@@std@@@std@@YAXPAU?$pair@$$CBV?$CStringT@DV?$StrTraitMFC_DLL@DV?$ChTraitsCRT@D@ATL@@@@@ATL@@V?$shared_ptr@VCFont@@@tr1@std@@@0@@Z 0042c0e0 f i DlgEnterCash.obj
 0001:0002b0f0       ??$_Allocate@U_Node@?$_Tree_nod@V?$_Tmap_traits@V?$CStringT@DV?$StrTraitMFC_DLL@DV?$ChTraitsCRT@D@ATL@@@@@ATL@@V?$shared_ptr@VCFont@@@tr1@std@@U?$less@V?$CStringT@DV?$StrTraitMFC_DLL@DV?$ChTraitsCRT@D@ATL@@@@@ATL@@@5@V?$allocator@U?$pair@$$CBV?$CStringT@DV?$StrTraitMFC_DLL@DV?$ChTraitsCRT@D@ATL@@@@@ATL@@V?$shared_ptr@VCFont@@@tr1@std@@@std@@@5@$0A@@std@@@std@@@std@@YAPAU_Node@?$_Tree_nod@V?$_Tmap_traits@V?$CStringT@DV?$StrTraitMFC_DLL@DV?$ChTraitsCRT@D@ATL@@@@@ATL@@V?$shared_ptr@VCFont@@@tr1@std@@U?$less@V?$CStringT@DV?$StrTraitMFC_DLL@DV?$ChTraitsCRT@D@ATL@@@@@ATL@@@5@V?$allocator@U?$pair@$$CBV?$CStringT@DV?$StrTraitMFC_DLL@DV?$ChTraitsCRT@D@ATL@@@@@ATL@@V?$shared_ptr@VCFont@@@tr1@std@@@std@@@5@$0A@@std@@@0@IPAU120@@Z 0042c0f0 f i DlgEnterCash.obj
 0001:0002b150       ??_G?$pair@$$CBV?$CStringT@DV?$StrTraitMFC_DLL@DV?$ChTraitsCRT@D@ATL@@@@@ATL@@V?$shared_ptr@VCFont@@@tr1@std@@@std@@QAEPAXI@Z 0042c150 f i DlgEnterCash.obj
 0001:0002b180       ?construct@?$allocator@U?$pair@$$CBV?$CStringT@DV?$StrTraitMFC_DLL@DV?$ChTraitsCRT@D@ATL@@@@@ATL@@V?$shared_ptr@VCFont@@@tr1@std@@@std@@@std@@QAEXPAU?$pair@$$CBV?$CStringT@DV?$StrTraitMFC_DLL@DV?$ChTraitsCRT@D@ATL@@@@@ATL@@V?$shared_ptr@VCFont@@@tr1@std@@@2@$$QAU32@@Z 0042c180 f i DlgEnterCash.obj
 0001:0002b210       ??$?0$$CBV?$CStringT@DV?$StrTraitMFC_DLL@DV?$ChTraitsCRT@D@ATL@@@@@ATL@@V?$shared_ptr@VCFont@@@tr1@std@@@?$pair@$$CBV?$CStringT@DV?$StrTraitMFC_DLL@DV?$ChTraitsCRT@D@ATL@@@@@ATL@@V?$shared_ptr@VCFont@@@tr1@std@@@std@@QAE@$$QAU01@@Z 0042c210 f i DlgEnterCash.obj
 0001:0002b250       ??0?$_Pair_base@$$CBV?$CStringT@DV?$StrTraitMFC_DLL@DV?$ChTraitsCRT@D@ATL@@@@@ATL@@V?$shared_ptr@VCFont@@@tr1@std@@@std@@QAE@$$QBV?$CStringT@DV?$StrTraitMFC_DLL@DV?$ChTraitsCRT@D@ATL@@@@@ATL@@$$QAV?$shared_ptr@VCFont@@@tr1@1@@Z 0042c250 f i DlgEnterCash.obj
 0001:0002b2d0       ?CreateObject@CDlgFindAll@@SGPAVCObject@@XZ 0042c2d0 f   DlgFindAll.obj
 0001:0002b350       ?_GetBaseClass@CDlgFindAll@@KGPAUCRuntimeClass@@XZ 0042c350 f   DlgFindAll.obj
 0001:0002b360       ?GetThisClass@CDlgFindAll@@SGPAUCRuntimeClass@@XZ 0042c360 f   DlgFindAll.obj
 0001:0002b370       ?GetRuntimeClass@CDlgFindAll@@UBEPAUCRuntimeClass@@XZ 0042c370 f   DlgFindAll.obj
 0001:0002b380       ??0CDlgFindAll@@QAE@PAVCView@@@Z 0042c380 f   DlgFindAll.obj
 0001:0002b470       ??0CDlgFindAll@@QAE@XZ     0042c470 f   DlgFindAll.obj
 0001:0002b540       ??1CDlgFindAll@@UAE@XZ     0042c540 f   DlgFindAll.obj
 0001:0002b600       ?DoDataExchange@CDlgFindAll@@MAEXPAVCDataExchange@@@Z 0042c600 f   DlgFindAll.obj
 0001:0002b660       ?GetMessageMap@CDlgFindAll@@MBEPBUAFX_MSGMAP@@XZ 0042c660 f   DlgFindAll.obj
 0001:0002b670       ?GetThisMessageMap@CDlgFindAll@@KGPBUAFX_MSGMAP@@XZ 0042c670 f   DlgFindAll.obj
 0001:0002b680       ?GetThisEventSinkMap@CDlgFindAll@@KGPBUAFX_EVENTSINKMAP@@XZ 0042c680 f   DlgFindAll.obj
 0001:0002b690       ?GetEventSinkMap@CDlgFindAll@@MBEPBUAFX_EVENTSINKMAP@@XZ 0042c690 f   DlgFindAll.obj
 0001:0002b6a0       ?OnInitDialog@CDlgFindAll@@MAEHXZ 0042c6a0 f   DlgFindAll.obj
 0001:0002b860       ?SetupGrid@CDlgFindAll@@AAEXXZ 0042c860 f   DlgFindAll.obj
 0001:0002b960       ?LoadSelectedProducts@CDlgFindAll@@AAEXABV?$basic_string@_WU?$char_traits@_W@std@@V?$allocator@_W@2@@std@@@Z 0042c960 f   DlgFindAll.obj
 0001:0002bd20       ?LoadItemsInGrid@CDlgFindAll@@AAEXJ@Z 0042cd20 f   DlgFindAll.obj
 0001:0002c890       ?AfterScroll@CDlgFindAll@@AAEXJJJJ@Z 0042d890 f   DlgFindAll.obj
 0001:0002c8c0       ?UpdateLayout@CDlgFindAll@@AAEXXZ 0042d8c0 f   DlgFindAll.obj
 0001:0002cd00       ?OnSize@CDlgFindAll@@IAEXIHH@Z 0042dd00 f   DlgFindAll.obj
 0001:0002cd30       ?OnEditReturnPressed@CDlgFindAll@@IAEXPAUtagNMHDR@@PAJ@Z 0042dd30 f   DlgFindAll.obj
 0001:0002cf00       ?OnGridKeyDown@CDlgFindAll@@IAEXPAFF@Z 0042df00 f   DlgFindAll.obj
 0001:0002cfb0       ?OnEnterCell@CDlgFindAll@@IAEXXZ 0042dfb0 f   DlgFindAll.obj
 0001:0002d160       ?OnSetActive@CDlgFindAll@@UAEHXZ 0042e160 f   DlgFindAll.obj
 0001:0002d190       ?OnTimer@CDlgFindAll@@IAEXI@Z 0042e190 f   DlgFindAll.obj
 0001:0002d1e0       ?OnBnClickedButton@CDlgFindAll@@IAEXXZ 0042e1e0 f   DlgFindAll.obj
 0001:0002d3b0       ?PreTranslateMessage@CDlgFindAll@@UAEHPAUtagMSG@@@Z 0042e3b0 f   DlgFindAll.obj
 0001:0002d420       ??_ECDlgFindAll@@UAEPAXI@Z 0042e420 f i DlgFindAll.obj
 0001:0002d420       ??_GCDlgFindAll@@UAEPAXI@Z 0042e420 f i DlgFindAll.obj
 0001:0002d450       ?Descr@ListOfAttr@IReference@@SA?BV?$basic_string@_WU?$char_traits@_W@std@@V?$allocator@_W@2@@std@@XZ 0042e450 f i DlgFindAll.obj
 0001:0002d480       ??1?$tuple@V?$basic_string@_WU?$char_traits@_W@std@@V?$allocator@_W@2@@std@@V12@V12@Unull_type@tuples@boost@@U345@U345@U345@U345@U345@U345@@tuples@boost@@QAE@XZ 0042e480 f i DlgFindAll.obj
 0001:0002d4a0       ??1?$cons@V?$basic_string@_WU?$char_traits@_W@std@@V?$allocator@_W@2@@std@@U?$cons@V?$basic_string@_WU?$char_traits@_W@std@@V?$allocator@_W@2@@std@@U?$cons@V?$basic_string@_WU?$char_traits@_W@std@@V?$allocator@_W@2@@std@@Unull_type@tuples@boost@@@tuples@boost@@@tuples@boost@@@tuples@boost@@QAE@XZ 0042e4a0 f i DlgFindAll.obj
 0001:0002d500       ??1?$cons@V?$basic_string@_WU?$char_traits@_W@std@@V?$allocator@_W@2@@std@@U?$cons@V?$basic_string@_WU?$char_traits@_W@std@@V?$allocator@_W@2@@std@@Unull_type@tuples@boost@@@tuples@boost@@@tuples@boost@@QAE@XZ 0042e500 f i DlgFindAll.obj
 0001:0002d560       ?getProductRest@Repository@@QBE?AV?$shared_ptr@V?$RestRegistry@UProductsRestRegs@@VSQLStrategy@@@@@boost@@XZ 0042e560 f i DlgFindAll.obj
 0001:0002d5a0       ??0?$tuple@V?$basic_string@_WU?$char_traits@_W@std@@V?$allocator@_W@2@@std@@V12@V12@Unull_type@tuples@boost@@U345@U345@U345@U345@U345@U345@@tuples@boost@@QAE@ABV012@@Z 0042e5a0 f i DlgFindAll.obj
 0001:0002d5c0       ??0?$cons@V?$basic_string@_WU?$char_traits@_W@std@@V?$allocator@_W@2@@std@@U?$cons@V?$basic_string@_WU?$char_traits@_W@std@@V?$allocator@_W@2@@std@@U?$cons@V?$basic_string@_WU?$char_traits@_W@std@@V?$allocator@_W@2@@std@@Unull_type@tuples@boost@@@tuples@boost@@@tuples@boost@@@tuples@boost@@QAE@ABU012@@Z 0042e5c0 f i DlgFindAll.obj
 0001:0002d630       ??0?$cons@V?$basic_string@_WU?$char_traits@_W@std@@V?$allocator@_W@2@@std@@U?$cons@V?$basic_string@_WU?$char_traits@_W@std@@V?$allocator@_W@2@@std@@Unull_type@tuples@boost@@@tuples@boost@@@tuples@boost@@QAE@ABU012@@Z 0042e630 f i DlgFindAll.obj
 0001:0002d6a0       ?IsFolder@?$RefItemT@UVariantType@@V?$RefItemTraits@UVariantType@@@@@@QAE_NXZ 0042e6a0 f i DlgFindAll.obj
 0001:0002d6f0       ?SelectItemsByAttribute@?$HierarchyReference@UProducts@@@@QAEHABV?$basic_string@_WU?$char_traits@_W@std@@V?$allocator@_W@2@@std@@0H_N@Z 0042e6f0 f i DlgFindAll.obj
 0001:0002da40       ?getNext@?$SlaveReference@UUnits@@UProducts@@@@QAEHXZ 0042ea40 f i DlgInsert.obj
 0001:0002da40       ?getNext@?$HierarchyReference@UProducts@@@@QAEHXZ 0042ea40 f i DlgFindAll.obj
 0001:0002da60       ??1?$vector@V?$tuple@V?$basic_string@_WU?$char_traits@_W@std@@V?$allocator@_W@2@@std@@V12@V12@Unull_type@tuples@boost@@U345@U345@U345@U345@U345@U345@@tuples@boost@@V?$allocator@V?$tuple@V?$basic_string@_WU?$char_traits@_W@std@@V?$allocator@_W@2@@std@@V12@V12@Unull_type@tuples@boost@@U345@U345@U345@U345@U345@U345@@tuples@boost@@@std@@@std@@QAE@XZ 0042ea60 f i DlgFindAll.obj
 0001:0002dac0       ?begin@?$vector@V?$shared_ptr@VRefItemV@@@boost@@V?$allocator@V?$shared_ptr@VRefItemV@@@boost@@@std@@@std@@QAE?AV?$_Vector_iterator@V?$_Vector_val@V?$shared_ptr@VRefItemV@@@boost@@V?$allocator@V?$shared_ptr@VRefItemV@@@boost@@@std@@@std@@@2@XZ 0042eac0 f i CheckDoc.obj
 0001:0002dac0       ?end@?$list@USalesItemLine@CCheckDoc@@V?$allocator@USalesItemLine@CCheckDoc@@@std@@@std@@QBE?AV?$_List_const_iterator@V?$_List_val@USalesItemLine@CCheckDoc@@V?$allocator@USalesItemLine@CCheckDoc@@@std@@@std@@@2@XZ 0042eac0 f i CashPrinter.obj
 0001:0002dac0       ?begin@?$vector@V?$tuple@V?$basic_string@_WU?$char_traits@_W@std@@V?$allocator@_W@2@@std@@V12@V12@Unull_type@tuples@boost@@U345@U345@U345@U345@U345@U345@@tuples@boost@@V?$allocator@V?$tuple@V?$basic_string@_WU?$char_traits@_W@std@@V?$allocator@_W@2@@std@@V12@V12@Unull_type@tuples@boost@@U345@U345@U345@U345@U345@U345@@tuples@boost@@@std@@@std@@QAE?AV?$_Vector_iterator@V?$_Vector_val@V?$tuple@V?$basic_string@_WU?$char_traits@_W@std@@V?$allocator@_W@2@@std@@V12@V12@Unull_type@tuples@boost@@U345@U345@U345@U345@U345@U345@@tuples@boost@@V?$allocator@V?$tuple@V?$basic_string@_WU?$char_traits@_W@std@@V?$allocator@_W@2@@std@@V12@V12@Unull_type@tuples@boost@@U345@U345@U345@U345@U345@U345@@tuples@boost@@@std@@@std@@@2@XZ 0042eac0 f i DlgFindAll.obj
 0001:0002dac0       ?begin@?$vector@V?$tuple@HV?$basic_string@_WU?$char_traits@_W@std@@V?$allocator@_W@2@@std@@V12@V12@Unull_type@tuples@boost@@U345@U345@U345@U345@U345@@tuples@boost@@V?$allocator@V?$tuple@HV?$basic_string@_WU?$char_traits@_W@std@@V?$allocator@_W@2@@std@@V12@V12@Unull_type@tuples@boost@@U345@U345@U345@U345@U345@@tuples@boost@@@std@@@std@@QAE?AV?$_Vector_iterator@V?$_Vector_val@V?$tuple@HV?$basic_string@_WU?$char_traits@_W@std@@V?$allocator@_W@2@@std@@V12@V12@Unull_type@tuples@boost@@U345@U345@U345@U345@U345@@tuples@boost@@V?$allocator@V?$tuple@HV?$basic_string@_WU?$char_traits@_W@std@@V?$allocator@_W@2@@std@@V12@V12@Unull_type@tuples@boost@@U345@U345@U345@U345@U345@@tuples@boost@@@std@@@std@@@2@XZ 0042eac0 f i DlgSelectGood.obj
 0001:0002dac0       ?begin@?$vector@DV?$allocator@D@std@@@std@@QAE?AV?$_Vector_iterator@V?$_Vector_val@DV?$allocator@D@std@@@std@@@2@XZ 0042eac0 f i DlgSetQuantity.obj
 0001:0002dac0       ?begin@?$vector@V?$CStringT@DV?$StrTraitMFC_DLL@DV?$ChTraitsCRT@D@ATL@@@@@ATL@@V?$allocator@V?$CStringT@DV?$StrTraitMFC_DLL@DV?$ChTraitsCRT@D@ATL@@@@@ATL@@@std@@@std@@QAE?AV?$_Vector_iterator@V?$_Vector_val@V?$CStringT@DV?$StrTraitMFC_DLL@DV?$ChTraitsCRT@D@ATL@@@@@ATL@@V?$allocator@V?$CStringT@DV?$StrTraitMFC_DLL@DV?$ChTraitsCRT@D@ATL@@@@@ATL@@@std@@@std@@@2@XZ 0042eac0 f i OutputWnd.obj
 0001:0002dac0       ?begin@?$vector@V?$tuple@V?$basic_string@_WU?$char_traits@_W@std@@V?$allocator@_W@2@@std@@V12@_NV12@V?$shared_ptr@VRefItemV@@@boost@@Unull_type@tuples@4@U564@U564@U564@U564@@tuples@boost@@V?$allocator@V?$tuple@V?$basic_string@_WU?$char_traits@_W@std@@V?$allocator@_W@2@@std@@V12@_NV12@V?$shared_ptr@VRefItemV@@@boost@@Unull_type@tuples@4@U564@U564@U564@U564@@tuples@boost@@@std@@@std@@QAE?AV?$_Vector_iterator@V?$_Vector_val@V?$tuple@V?$basic_string@_WU?$char_traits@_W@std@@V?$allocator@_W@2@@std@@V12@_NV12@V?$shared_ptr@VRefItemV@@@boost@@Unull_type@tuples@4@U564@U564@U564@U564@@tuples@boost@@V?$allocator@V?$tuple@V?$basic_string@_WU?$char_traits@_W@std@@V?$allocator@_W@2@@std@@V12@_NV12@V?$shared_ptr@VRefItemV@@@boost@@Unull_type@tuples@4@U564@U564@U564@U564@@tuples@boost@@@std@@@std@@@2@XZ 0042eac0 f i CheckDoc.obj
 0001:0002dac0       ?begin@?$vector@V?$tuple@V?$basic_string@_WU?$char_traits@_W@std@@V?$allocator@_W@2@@std@@V12@V12@V12@Unull_type@tuples@boost@@U345@U345@U345@U345@U345@@tuples@boost@@V?$allocator@V?$tuple@V?$basic_string@_WU?$char_traits@_W@std@@V?$allocator@_W@2@@std@@V12@V12@V12@Unull_type@tuples@boost@@U345@U345@U345@U345@U345@@tuples@boost@@@std@@@std@@QAE?AV?$_Vector_iterator@V?$_Vector_val@V?$tuple@V?$basic_string@_WU?$char_traits@_W@std@@V?$allocator@_W@2@@std@@V12@V12@V12@Unull_type@tuples@boost@@U345@U345@U345@U345@U345@@tuples@boost@@V?$allocator@V?$tuple@V?$basic_string@_WU?$char_traits@_W@std@@V?$allocator@_W@2@@std@@V12@V12@V12@Unull_type@tuples@boost@@U345@U345@U345@U345@U345@@tuples@boost@@@std@@@std@@@2@XZ 0042eac0 f i DlgInsert.obj
 0001:0002dac0       ?begin@?$vector@V?$tuple@V?$basic_string@_WU?$char_traits@_W@std@@V?$allocator@_W@2@@std@@V12@V12@V?$shared_ptr@VRefItemV@@@boost@@Unull_type@tuples@4@U564@U564@U564@U564@U564@@tuples@boost@@V?$allocator@V?$tuple@V?$basic_string@_WU?$char_traits@_W@std@@V?$allocator@_W@2@@std@@V12@V12@V?$shared_ptr@VRefItemV@@@boost@@Unull_type@tuples@4@U564@U564@U564@U564@U564@@tuples@boost@@@std@@@std@@QAE?AV?$_Vector_iterator@V?$_Vector_val@V?$tuple@V?$basic_string@_WU?$char_traits@_W@std@@V?$allocator@_W@2@@std@@V12@V12@V?$shared_ptr@VRefItemV@@@boost@@Unull_type@tuples@4@U564@U564@U564@U564@U564@@tuples@boost@@V?$allocator@V?$tuple@V?$basic_string@_WU?$char_traits@_W@std@@V?$allocator@_W@2@@std@@V12@V12@V?$shared_ptr@VRefItemV@@@boost@@Unull_type@tuples@4@U564@U564@U564@U564@U564@@tuples@boost@@@std@@@std@@@2@XZ 0042eac0 f i CheckDoc.obj
 0001:0002daf0       ?end@?$vector@V?$tuple@V?$basic_string@_WU?$char_traits@_W@std@@V?$allocator@_W@2@@std@@V12@_NV12@V?$shared_ptr@VRefItemV@@@boost@@Unull_type@tuples@4@U564@U564@U564@U564@@tuples@boost@@V?$allocator@V?$tuple@V?$basic_string@_WU?$char_traits@_W@std@@V?$allocator@_W@2@@std@@V12@_NV12@V?$shared_ptr@VRefItemV@@@boost@@Unull_type@tuples@4@U564@U564@U564@U564@@tuples@boost@@@std@@@std@@QAE?AV?$_Vector_iterator@V?$_Vector_val@V?$tuple@V?$basic_string@_WU?$char_traits@_W@std@@V?$allocator@_W@2@@std@@V12@_NV12@V?$shared_ptr@VRefItemV@@@boost@@Unull_type@tuples@4@U564@U564@U564@U564@@tuples@boost@@V?$allocator@V?$tuple@V?$basic_string@_WU?$char_traits@_W@std@@V?$allocator@_W@2@@std@@V12@_NV12@V?$shared_ptr@VRefItemV@@@boost@@Unull_type@tuples@4@U564@U564@U564@U564@@tuples@boost@@@std@@@std@@@2@XZ 0042eaf0 f i CheckDoc.obj
 0001:0002daf0       ?end@?$_Tree@V?$_Tmap_traits@V?$basic_string@_WU?$char_traits@_W@std@@V?$allocator@_W@2@@std@@PAU_TREEITEM@@U?$less@V?$basic_string@_WU?$char_traits@_W@std@@V?$allocator@_W@2@@std@@@2@V?$allocator@U?$pair@$$CBV?$basic_string@_WU?$char_traits@_W@std@@V?$allocator@_W@2@@std@@PAU_TREEITEM@@@std@@@2@$0A@@std@@@std@@QBE?AV?$_Tree_const_iterator@V?$_Tree_val@V?$_Tmap_traits@V?$basic_string@_WU?$char_traits@_W@std@@V?$allocator@_W@2@@std@@PAU_TREEITEM@@U?$less@V?$basic_string@_WU?$char_traits@_W@std@@V?$allocator@_W@2@@std@@@2@V?$allocator@U?$pair@$$CBV?$basic_string@_WU?$char_traits@_W@std@@V?$allocator@_W@2@@std@@PAU_TREEITEM@@@std@@@2@$0A@@std@@@std@@@2@XZ 0042eaf0 f i SuperTree.obj
 0001:0002daf0       ?end@?$vector@V?$tuple@V?$basic_string@_WU?$char_traits@_W@std@@V?$allocator@_W@2@@std@@V12@V12@V12@Unull_type@tuples@boost@@U345@U345@U345@U345@U345@@tuples@boost@@V?$allocator@V?$tuple@V?$basic_string@_WU?$char_traits@_W@std@@V?$allocator@_W@2@@std@@V12@V12@V12@Unull_type@tuples@boost@@U345@U345@U345@U345@U345@@tuples@boost@@@std@@@std@@QAE?AV?$_Vector_iterator@V?$_Vector_val@V?$tuple@V?$basic_string@_WU?$char_traits@_W@std@@V?$allocator@_W@2@@std@@V12@V12@V12@Unull_type@tuples@boost@@U345@U345@U345@U345@U345@@tuples@boost@@V?$allocator@V?$tuple@V?$basic_string@_WU?$char_traits@_W@std@@V?$allocator@_W@2@@std@@V12@V12@V12@Unull_type@tuples@boost@@U345@U345@U345@U345@U345@@tuples@boost@@@std@@@std@@@2@XZ 0042eaf0 f i DlgInsert.obj
 0001:0002daf0       ?end@?$vector@V?$shared_ptr@VRefItemV@@@boost@@V?$allocator@V?$shared_ptr@VRefItemV@@@boost@@@std@@@std@@QAE?AV?$_Vector_iterator@V?$_Vector_val@V?$shared_ptr@VRefItemV@@@boost@@V?$allocator@V?$shared_ptr@VRefItemV@@@boost@@@std@@@std@@@2@XZ 0042eaf0 f i CheckDoc.obj
 0001:0002daf0       ?end@?$vector@V?$tuple@V?$basic_string@_WU?$char_traits@_W@std@@V?$allocator@_W@2@@std@@V12@V12@V?$shared_ptr@VRefItemV@@@boost@@Unull_type@tuples@4@U564@U564@U564@U564@U564@@tuples@boost@@V?$allocator@V?$tuple@V?$basic_string@_WU?$char_traits@_W@std@@V?$allocator@_W@2@@std@@V12@V12@V?$shared_ptr@VRefItemV@@@boost@@Unull_type@tuples@4@U564@U564@U564@U564@U564@@tuples@boost@@@std@@@std@@QAE?AV?$_Vector_iterator@V?$_Vector_val@V?$tuple@V?$basic_string@_WU?$char_traits@_W@std@@V?$allocator@_W@2@@std@@V12@V12@V?$shared_ptr@VRefItemV@@@boost@@Unull_type@tuples@4@U564@U564@U564@U564@U564@@tuples@boost@@V?$allocator@V?$tuple@V?$basic_string@_WU?$char_traits@_W@std@@V?$allocator@_W@2@@std@@V12@V12@V?$shared_ptr@VRefItemV@@@boost@@Unull_type@tuples@4@U564@U564@U564@U564@U564@@tuples@boost@@@std@@@std@@@2@XZ 0042eaf0 f i CheckDoc.obj
 0001:0002daf0       ?end@?$vector@V?$tuple@HV?$basic_string@_WU?$char_traits@_W@std@@V?$allocator@_W@2@@std@@V12@V12@Unull_type@tuples@boost@@U345@U345@U345@U345@U345@@tuples@boost@@V?$allocator@V?$tuple@HV?$basic_string@_WU?$char_traits@_W@std@@V?$allocator@_W@2@@std@@V12@V12@Unull_type@tuples@boost@@U345@U345@U345@U345@U345@@tuples@boost@@@std@@@std@@QAE?AV?$_Vector_iterator@V?$_Vector_val@V?$tuple@HV?$basic_string@_WU?$char_traits@_W@std@@V?$allocator@_W@2@@std@@V12@V12@Unull_type@tuples@boost@@U345@U345@U345@U345@U345@@tuples@boost@@V?$allocator@V?$tuple@HV?$basic_string@_WU?$char_traits@_W@std@@V?$allocator@_W@2@@std@@V12@V12@Unull_type@tuples@boost@@U345@U345@U345@U345@U345@@tuples@boost@@@std@@@std@@@2@XZ 0042eaf0 f i DlgSelectGood.obj
 0001:0002daf0       ?end@?$vector@DV?$allocator@D@std@@@std@@QAE?AV?$_Vector_iterator@V?$_Vector_val@DV?$allocator@D@std@@@std@@@2@XZ 0042eaf0 f i DlgSetQuantity.obj
 0001:0002daf0       ?end@?$vector@V?$tuple@V?$basic_string@_WU?$char_traits@_W@std@@V?$allocator@_W@2@@std@@V12@V12@Unull_type@tuples@boost@@U345@U345@U345@U345@U345@U345@@tuples@boost@@V?$allocator@V?$tuple@V?$basic_string@_WU?$char_traits@_W@std@@V?$allocator@_W@2@@std@@V12@V12@Unull_type@tuples@boost@@U345@U345@U345@U345@U345@U345@@tuples@boost@@@std@@@std@@QAE?AV?$_Vector_iterator@V?$_Vector_val@V?$tuple@V?$basic_string@_WU?$char_traits@_W@std@@V?$allocator@_W@2@@std@@V12@V12@Unull_type@tuples@boost@@U345@U345@U345@U345@U345@U345@@tuples@boost@@V?$allocator@V?$tuple@V?$basic_string@_WU?$char_traits@_W@std@@V?$allocator@_W@2@@std@@V12@V12@Unull_type@tuples@boost@@U345@U345@U345@U345@U345@U345@@tuples@boost@@@std@@@std@@@2@XZ 0042eaf0 f i DlgFindAll.obj
 0001:0002daf0       ?end@?$vector@V?$CStringT@DV?$StrTraitMFC_DLL@DV?$ChTraitsCRT@D@ATL@@@@@ATL@@V?$allocator@V?$CStringT@DV?$StrTraitMFC_DLL@DV?$ChTraitsCRT@D@ATL@@@@@ATL@@@std@@@std@@QAE?AV?$_Vector_iterator@V?$_Vector_val@V?$CStringT@DV?$StrTraitMFC_DLL@DV?$ChTraitsCRT@D@ATL@@@@@ATL@@V?$allocator@V?$CStringT@DV?$StrTraitMFC_DLL@DV?$ChTraitsCRT@D@ATL@@@@@ATL@@@std@@@std@@@2@XZ 0042eaf0 f i OutputWnd.obj
 0001:0002db20       ?size@?$vector@V?$tuple@V?$basic_string@_WU?$char_traits@_W@std@@V?$allocator@_W@2@@std@@V12@V12@Unull_type@tuples@boost@@U345@U345@U345@U345@U345@U345@@tuples@boost@@V?$allocator@V?$tuple@V?$basic_string@_WU?$char_traits@_W@std@@V?$allocator@_W@2@@std@@V12@V12@Unull_type@tuples@boost@@U345@U345@U345@U345@U345@U345@@tuples@boost@@@std@@@std@@QBEIXZ 0042eb20 f i DlgFindAll.obj
 0001:0002db40       ?push_back@?$vector@V?$tuple@V?$basic_string@_WU?$char_traits@_W@std@@V?$allocator@_W@2@@std@@V12@V12@Unull_type@tuples@boost@@U345@U345@U345@U345@U345@U345@@tuples@boost@@V?$allocator@V?$tuple@V?$basic_string@_WU?$char_traits@_W@std@@V?$allocator@_W@2@@std@@V12@V12@Unull_type@tuples@boost@@U345@U345@U345@U345@U345@U345@@tuples@boost@@@std@@@std@@QAEXABV?$tuple@V?$basic_string@_WU?$char_traits@_W@std@@V?$allocator@_W@2@@std@@V12@V12@Unull_type@tuples@boost@@U345@U345@U345@U345@U345@U345@@tuples@boost@@@Z 0042eb40 f i DlgFindAll.obj
 0001:0002dc40       ?clear@?$vector@V?$tuple@V?$basic_string@_WU?$char_traits@_W@std@@V?$allocator@_W@2@@std@@V12@V12@Unull_type@tuples@boost@@U345@U345@U345@U345@U345@U345@@tuples@boost@@V?$allocator@V?$tuple@V?$basic_string@_WU?$char_traits@_W@std@@V?$allocator@_W@2@@std@@V12@V12@Unull_type@tuples@boost@@U345@U345@U345@U345@U345@U345@@tuples@boost@@@std@@@std@@QAEXXZ 0042ec40 f i DlgFindAll.obj
 0001:0002dc90       ??H?$_Vector_iterator@V?$_Vector_val@V?$tuple@V?$basic_string@_WU?$char_traits@_W@std@@V?$allocator@_W@2@@std@@V12@V12@Unull_type@tuples@boost@@U345@U345@U345@U345@U345@U345@@tuples@boost@@V?$allocator@V?$tuple@V?$basic_string@_WU?$char_traits@_W@std@@V?$allocator@_W@2@@std@@V12@V12@Unull_type@tuples@boost@@U345@U345@U345@U345@U345@U345@@tuples@boost@@@std@@@std@@@std@@QBE?AV01@H@Z 0042ec90 f i DlgFindAll.obj
 0001:0002dcc0       ??E?$_Vector_const_iterator@V?$_Vector_val@V?$tuple@V?$basic_string@_WU?$char_traits@_W@std@@V?$allocator@_W@2@@std@@V12@V12@Unull_type@tuples@boost@@U345@U345@U345@U345@U345@U345@@tuples@boost@@V?$allocator@V?$tuple@V?$basic_string@_WU?$char_traits@_W@std@@V?$allocator@_W@2@@std@@V12@V12@Unull_type@tuples@boost@@U345@U345@U345@U345@U345@U345@@tuples@boost@@@std@@@std@@@std@@QAEAAV01@XZ 0042ecc0 f i DlgFindAll.obj
 0001:0002dce0       ??H?$_Vector_const_iterator@V?$_Vector_val@V?$tuple@V?$basic_string@_WU?$char_traits@_W@std@@V?$allocator@_W@2@@std@@V12@V12@Unull_type@tuples@boost@@U345@U345@U345@U345@U345@U345@@tuples@boost@@V?$allocator@V?$tuple@V?$basic_string@_WU?$char_traits@_W@std@@V?$allocator@_W@2@@std@@V12@V12@Unull_type@tuples@boost@@U345@U345@U345@U345@U345@U345@@tuples@boost@@@std@@@std@@@std@@QBE?AV01@H@Z 0042ece0 f i DlgFindAll.obj
 0001:0002dd10       ?GetRest@?$RestRegistry@UProductsRestRegs@@VSQLStrategy@@@@QAEHAAV_variant_t@@@Z 0042ed10 f i DlgFindAll.obj
 0001:0002dd30       ?SetFilterValue@?$SQLStrategy@UProductsRestRegs@@@@QAEHV?$basic_string@_WU?$char_traits@_W@std@@V?$allocator@_W@2@@std@@0@Z 0042ed30 f i DlgFindAll.obj
 0001:0002ddd0       ??0?$vector@V?$tuple@V?$basic_string@_WU?$char_traits@_W@std@@V?$allocator@_W@2@@std@@V12@_NV12@V?$shared_ptr@VRefItemV@@@boost@@Unull_type@tuples@4@U564@U564@U564@U564@@tuples@boost@@V?$allocator@V?$tuple@V?$basic_string@_WU?$char_traits@_W@std@@V?$allocator@_W@2@@std@@V12@_NV12@V?$shared_ptr@VRefItemV@@@boost@@Unull_type@tuples@4@U564@U564@U564@U564@@tuples@boost@@@std@@@std@@QAE@ABV01@@Z 0042edd0 f i DlgFindAll.obj
 0001:0002ded0       ?erase@?$vector@V?$tuple@V?$basic_string@_WU?$char_traits@_W@std@@V?$allocator@_W@2@@std@@V12@V12@Unull_type@tuples@boost@@U345@U345@U345@U345@U345@U345@@tuples@boost@@V?$allocator@V?$tuple@V?$basic_string@_WU?$char_traits@_W@std@@V?$allocator@_W@2@@std@@V12@V12@Unull_type@tuples@boost@@U345@U345@U345@U345@U345@U345@@tuples@boost@@@std@@@std@@QAE?AV?$_Vector_iterator@V?$_Vector_val@V?$tuple@V?$basic_string@_WU?$char_traits@_W@std@@V?$allocator@_W@2@@std@@V12@V12@Unull_type@tuples@boost@@U345@U345@U345@U345@U345@U345@@tuples@boost@@V?$allocator@V?$tuple@V?$basic_string@_WU?$char_traits@_W@std@@V?$allocator@_W@2@@std@@V12@V12@Unull_type@tuples@boost@@U345@U345@U345@U345@U345@U345@@tuples@boost@@@std@@@std@@@2@V?$_Vector_const_iterator@V?$_Vector_val@V?$tuple@V?$basic_string@_WU?$char_traits@_W@std@@V?$allocator@_W@2@@std@@V12@V12@Unull_type@tuples@boost@@U345@U345@U345@U345@U345@U345@@tuples@boost@@V?$allocator@V?$tuple@V?$basic_string@_WU?$char_traits@_W@std@@V?$allocator@_W@2@@std@@V12@V12@Unull_type@tuples@boost@@U345@U345@U345@U345@U345@U345@@tuples@boost@@@std@@@std@@@2@0@Z 0042eed0 f i DlgFindAll.obj
 0001:0002df60       ?_Reserve@?$vector@V?$tuple@V?$basic_string@_WU?$char_traits@_W@std@@V?$allocator@_W@2@@std@@V12@V12@Unull_type@tuples@boost@@U345@U345@U345@U345@U345@U345@@tuples@boost@@V?$allocator@V?$tuple@V?$basic_string@_WU?$char_traits@_W@std@@V?$allocator@_W@2@@std@@V12@V12@Unull_type@tuples@boost@@U345@U345@U345@U345@U345@U345@@tuples@boost@@@std@@@std@@IAEXI@Z 0042ef60 f i DlgFindAll.obj
 0001:0002dfd0       ?_Tidy@?$vector@V?$tuple@V?$basic_string@_WU?$char_traits@_W@std@@V?$allocator@_W@2@@std@@V12@V12@Unull_type@tuples@boost@@U345@U345@U345@U345@U345@U345@@tuples@boost@@V?$allocator@V?$tuple@V?$basic_string@_WU?$char_traits@_W@std@@V?$allocator@_W@2@@std@@V12@V12@Unull_type@tuples@boost@@U345@U345@U345@U345@U345@U345@@tuples@boost@@@std@@@std@@IAEXXZ 0042efd0 f i DlgFindAll.obj
 0001:0002e050       ??Y?$_Vector_iterator@V?$_Vector_val@V?$tuple@V?$basic_string@_WU?$char_traits@_W@std@@V?$allocator@_W@2@@std@@V12@V12@Unull_type@tuples@boost@@U345@U345@U345@U345@U345@U345@@tuples@boost@@V?$allocator@V?$tuple@V?$basic_string@_WU?$char_traits@_W@std@@V?$allocator@_W@2@@std@@V12@V12@Unull_type@tuples@boost@@U345@U345@U345@U345@U345@U345@@tuples@boost@@@std@@@std@@@std@@QAEAAV01@H@Z 0042f050 f i DlgFindAll.obj
 0001:0002e070       ??Y?$_Vector_const_iterator@V?$_Vector_val@V?$tuple@V?$basic_string@_WU?$char_traits@_W@std@@V?$allocator@_W@2@@std@@V12@V12@Unull_type@tuples@boost@@U345@U345@U345@U345@U345@U345@@tuples@boost@@V?$allocator@V?$tuple@V?$basic_string@_WU?$char_traits@_W@std@@V?$allocator@_W@2@@std@@V12@V12@Unull_type@tuples@boost@@U345@U345@U345@U345@U345@U345@@tuples@boost@@@std@@@std@@@std@@QAEAAV01@H@Z 0042f070 f i DlgFindAll.obj
 0001:0002e090       ?GetRest@?$SQLStrategy@UProductsRestRegs@@@@QAEHAAV_variant_t@@@Z 0042f090 f i DlgFindAll.obj
 0001:0002e1a0       ?GetValueFromRegs@RegsValCreator@@SAHV?$shared_ptr@VDbContext@@@boost@@V?$basic_string@_WU?$char_traits@_W@std@@V?$allocator@_W@2@@std@@AAV_variant_t@@@Z 0042f1a0 f i DlgFindAll.obj
 0001:0002e530       ?AddExtraFilter@?$EntityMapper@UProductsRestRegs@@V?$Mapper@UProductsRestRegs@@@@@@QAE_NABV?$basic_string@_WU?$char_traits@_W@std@@V?$allocator@_W@2@@std@@0@Z 0042f530 f i DlgFindAll.obj
 0001:0002e5d0       ?SetExtraFilter@?$EntityMapper@UProductsRestRegs@@V?$Mapper@UProductsRestRegs@@@@@@QAE_NABV?$basic_string@_WU?$char_traits@_W@std@@V?$allocator@_W@2@@std@@0@Z 0042f5d0 f i DlgFindAll.obj
 0001:0002e630       ??E?$_Vector_const_iterator@V?$_Vector_val@V?$tuple@V?$basic_string@_WU?$char_traits@_W@std@@V?$allocator@_W@2@@std@@V12@_NV12@V?$shared_ptr@VRefItemV@@@boost@@Unull_type@tuples@4@U564@U564@U564@U564@@tuples@boost@@V?$allocator@V?$tuple@V?$basic_string@_WU?$char_traits@_W@std@@V?$allocator@_W@2@@std@@V12@_NV12@V?$shared_ptr@VRefItemV@@@boost@@Unull_type@tuples@4@U564@U564@U564@U564@@tuples@boost@@@std@@@std@@@std@@QAEAAV01@XZ 0042f630 f i DlgFindAll.obj
 0001:0002e650       ?find@?$_Tree@V?$_Tmap_traits@V?$basic_string@_WU?$char_traits@_W@std@@V?$allocator@_W@2@@std@@V12@U?$less@V?$basic_string@_WU?$char_traits@_W@std@@V?$allocator@_W@2@@std@@@2@V?$allocator@U?$pair@$$CBV?$basic_string@_WU?$char_traits@_W@std@@V?$allocator@_W@2@@std@@V12@@std@@@2@$0A@@std@@@std@@QAE?AV?$_Tree_iterator@V?$_Tree_val@V?$_Tmap_traits@V?$basic_string@_WU?$char_traits@_W@std@@V?$allocator@_W@2@@std@@V12@U?$less@V?$basic_string@_WU?$char_traits@_W@std@@V?$allocator@_W@2@@std@@@2@V?$allocator@U?$pair@$$CBV?$basic_string@_WU?$char_traits@_W@std@@V?$allocator@_W@2@@std@@V12@@std@@@2@$0A@@std@@@std@@@2@ABV?$basic_string@_WU?$char_traits@_W@std@@V?$allocator@_W@2@@2@@Z 0042f650 f i DlgFindAll.obj
 0001:0002e6e0       ??E?$_Vector_const_iterator@V?$_Vector_val@V?$shared_ptr@VRefItemV@@@boost@@V?$allocator@V?$shared_ptr@VRefItemV@@@boost@@@std@@@std@@@std@@QAE?AV01@H@Z 0042f6e0 f i DlgFindAll.obj
 0001:0002e710       ?reserve@?$vector@V?$tuple@V?$basic_string@_WU?$char_traits@_W@std@@V?$allocator@_W@2@@std@@V12@V12@Unull_type@tuples@boost@@U345@U345@U345@U345@U345@U345@@tuples@boost@@V?$allocator@V?$tuple@V?$basic_string@_WU?$char_traits@_W@std@@V?$allocator@_W@2@@std@@V12@V12@Unull_type@tuples@boost@@U345@U345@U345@U345@U345@U345@@tuples@boost@@@std@@@std@@QAEXI@Z 0042f710 f i DlgFindAll.obj
 0001:0002e860       ?capacity@?$vector@V?$tuple@V?$basic_string@_WU?$char_traits@_W@std@@V?$allocator@_W@2@@std@@V12@V12@Unull_type@tuples@boost@@U345@U345@U345@U345@U345@U345@@tuples@boost@@V?$allocator@V?$tuple@V?$basic_string@_WU?$char_traits@_W@std@@V?$allocator@_W@2@@std@@V12@V12@Unull_type@tuples@boost@@U345@U345@U345@U345@U345@U345@@tuples@boost@@@std@@@std@@QBEIXZ 0042f860 f i DlgFindAll.obj
 0001:0002e880       ?max_size@?$vector@V?$tuple@V?$basic_string@_WU?$char_traits@_W@std@@V?$allocator@_W@2@@std@@V12@V12@Unull_type@tuples@boost@@U345@U345@U345@U345@U345@U345@@tuples@boost@@V?$allocator@V?$tuple@V?$basic_string@_WU?$char_traits@_W@std@@V?$allocator@_W@2@@std@@V12@V12@Unull_type@tuples@boost@@U345@U345@U345@U345@U345@U345@@tuples@boost@@@std@@@std@@QBEIXZ 0042f880 f i DlgFindAll.obj
 0001:0002e8a0       ?_Destroy@?$vector@V?$tuple@V?$basic_string@_WU?$char_traits@_W@std@@V?$allocator@_W@2@@std@@V12@V12@Unull_type@tuples@boost@@U345@U345@U345@U345@U345@U345@@tuples@boost@@V?$allocator@V?$tuple@V?$basic_string@_WU?$char_traits@_W@std@@V?$allocator@_W@2@@std@@V12@V12@Unull_type@tuples@boost@@U345@U345@U345@U345@U345@U345@@tuples@boost@@@std@@@std@@IAEXPAV?$tuple@V?$basic_string@_WU?$char_traits@_W@std@@V?$allocator@_W@2@@std@@V12@V12@Unull_type@tuples@boost@@U345@U345@U345@U345@U345@U345@@tuples@boost@@0@Z 0042f8a0 f i DlgFindAll.obj
 0001:0002e8d0       ?_Grow_to@?$vector@V?$tuple@V?$basic_string@_WU?$char_traits@_W@std@@V?$allocator@_W@2@@std@@V12@V12@Unull_type@tuples@boost@@U345@U345@U345@U345@U345@U345@@tuples@boost@@V?$allocator@V?$tuple@V?$basic_string@_WU?$char_traits@_W@std@@V?$allocator@_W@2@@std@@V12@V12@Unull_type@tuples@boost@@U345@U345@U345@U345@U345@U345@@tuples@boost@@@std@@@std@@IBEII@Z 0042f8d0 f i DlgFindAll.obj
 0001:0002e930       ?GetExtraFilterStmt@?$EntityMapper@UProductsRestRegs@@V?$Mapper@UProductsRestRegs@@@@@@QAE?BV?$basic_string@_WU?$char_traits@_W@std@@V?$allocator@_W@2@@std@@XZ 0042f930 f i DlgFindAll.obj
 0001:0002eaf0       ??0?$pair@V?$_Tree_iterator@V?$_Tree_val@V?$_Tmap_traits@V?$basic_string@_WU?$char_traits@_W@std@@V?$allocator@_W@2@@std@@V12@U?$less@V?$basic_string@_WU?$char_traits@_W@std@@V?$allocator@_W@2@@std@@@2@V?$allocator@U?$pair@$$CBV?$basic_string@_WU?$char_traits@_W@std@@V?$allocator@_W@2@@std@@V12@@std@@@2@$0A@@std@@@std@@@std@@_N@std@@QAE@XZ 0042faf0 f i DlgFindAll.obj
 0001:0002eb10       ??4?$pair@V?$_Tree_iterator@V?$_Tree_val@V?$_Tmap_traits@V?$basic_string@_WU?$char_traits@_W@std@@V?$allocator@_W@2@@std@@V12@U?$less@V?$basic_string@_WU?$char_traits@_W@std@@V?$allocator@_W@2@@std@@@2@V?$allocator@U?$pair@$$CBV?$basic_string@_WU?$char_traits@_W@std@@V?$allocator@_W@2@@std@@V12@@std@@@2@$0A@@std@@@std@@@std@@_N@std@@QAEAAU01@$$QAU01@@Z 0042fb10 f i DlgFindAll.obj
 0001:0002eb50       ??E?$_Vector_const_iterator@V?$_Vector_val@V?$shared_ptr@VRefItemV@@@boost@@V?$allocator@V?$shared_ptr@VRefItemV@@@boost@@@std@@@std@@@std@@QAEAAV01@XZ 0042fb50 f i DlgFindAll.obj
 0001:0002eb70       ?allocate@?$allocator@V?$tuple@V?$basic_string@_WU?$char_traits@_W@std@@V?$allocator@_W@2@@std@@V12@V12@Unull_type@tuples@boost@@U345@U345@U345@U345@U345@U345@@tuples@boost@@@std@@QAEPAV?$tuple@V?$basic_string@_WU?$char_traits@_W@std@@V?$allocator@_W@2@@std@@V12@V12@Unull_type@tuples@boost@@U345@U345@U345@U345@U345@U345@@tuples@boost@@I@Z 0042fb70 f i DlgFindAll.obj
 0001:0002eb90       ?AndClause@?$EntityMapper@UTypePrice@@V?$Mapper@UTypePrice@@@@@@AAE?BV?$basic_string@_WU?$char_traits@_W@std@@V?$allocator@_W@2@@std@@XZ 0042fb90 f i CheckDoc.obj
 0001:0002eb90       ?AndClause@?$EntityMapper@UPoints@@V?$Mapper@UPoints@@@@@@AAE?BV?$basic_string@_WU?$char_traits@_W@std@@V?$allocator@_W@2@@std@@XZ 0042fb90 f i DlgLogin.obj
 0001:0002eb90       ?AndClause@?$EntityMapper@UProductsRestRegs@@V?$Mapper@UProductsRestRegs@@@@@@AAE?BV?$basic_string@_WU?$char_traits@_W@std@@V?$allocator@_W@2@@std@@XZ 0042fb90 f i DlgFindAll.obj
 0001:0002eb90       ?AndClause@?$EntityMapper@UContragents@@V?$Mapper@UContragents@@@@@@AAE?BV?$basic_string@_WU?$char_traits@_W@std@@V?$allocator@_W@2@@std@@XZ 0042fb90 f i MainDocument.obj
 0001:0002ebc0       ??0?$_Pair_base@V?$_Tree_iterator@V?$_Tree_val@V?$_Tmap_traits@V?$basic_string@_WU?$char_traits@_W@std@@V?$allocator@_W@2@@std@@V12@U?$less@V?$basic_string@_WU?$char_traits@_W@std@@V?$allocator@_W@2@@std@@@2@V?$allocator@U?$pair@$$CBV?$basic_string@_WU?$char_traits@_W@std@@V?$allocator@_W@2@@std@@V12@@std@@@2@$0A@@std@@@std@@@std@@_N@std@@QAE@XZ 0042fbc0 f i DlgFindAll.obj
 0001:0002ebe0       ?SetTimer@CWnd@@QAEIIIP6GXPAUHWND__@@IIK@Z@Z 0042fbe0 f i DlgFindAll.obj
 0001:0002ec10       ?KillTimer@CWnd@@QAEHI@Z   0042fc10 f i DlgFindAll.obj
 0001:0002ec30       ??$make_tuple@V?$basic_string@_WU?$char_traits@_W@std@@V?$allocator@_W@2@@std@@V12@V12@@tuples@boost@@YA?AV?$tuple@V?$basic_string@_WU?$char_traits@_W@std@@V?$allocator@_W@2@@std@@V12@V12@Unull_type@tuples@boost@@U345@U345@U345@U345@U345@U345@@01@ABV?$basic_string@_WU?$char_traits@_W@std@@V?$allocator@_W@2@@std@@00@Z 0042fc30 f i DlgFindAll.obj
 0001:0002ec60       ??$sort@V?$_Vector_iterator@V?$_Vector_val@V?$tuple@V?$basic_string@_WU?$char_traits@_W@std@@V?$allocator@_W@2@@std@@V12@V12@Unull_type@tuples@boost@@U345@U345@U345@U345@U345@U345@@tuples@boost@@V?$allocator@V?$tuple@V?$basic_string@_WU?$char_traits@_W@std@@V?$allocator@_W@2@@std@@V12@V12@Unull_type@tuples@boost@@U345@U345@U345@U345@U345@U345@@tuples@boost@@@std@@@std@@@std@@V<lambda0>@?A0xa417b150@@@std@@YAXV?$_Vector_iterator@V?$_Vector_val@V?$tuple@V?$basic_string@_WU?$char_traits@_W@std@@V?$allocator@_W@2@@std@@V12@V12@Unull_type@tuples@boost@@U345@U345@U345@U345@U345@U345@@tuples@boost@@V?$allocator@V?$tuple@V?$basic_string@_WU?$char_traits@_W@std@@V?$allocator@_W@2@@std@@V12@V12@Unull_type@tuples@boost@@U345@U345@U345@U345@U345@U345@@tuples@boost@@@std@@@std@@@0@0V<lambda0>@?A0xa417b150@@@Z 0042fc60 f i DlgFindAll.obj
 0001:0002eca0       ??$get@$00@?$cons@V?$basic_string@_WU?$char_traits@_W@std@@V?$allocator@_W@2@@std@@U?$cons@V?$basic_string@_WU?$char_traits@_W@std@@V?$allocator@_W@2@@std@@U?$cons@V?$basic_string@_WU?$char_traits@_W@std@@V?$allocator@_W@2@@std@@U?$cons@V?$basic_string@_WU?$char_traits@_W@std@@V?$allocator@_W@2@@std@@Unull_type@tuples@boost@@@tuples@boost@@@tuples@boost@@@tuples@boost@@@tuples@boost@@QAEAAV?$basic_string@_WU?$char_traits@_W@std@@V?$allocator@_W@2@@std@@XZ 0042fca0 f i DlgInsert.obj
 0001:0002eca0       ??$get@$00@?$cons@V?$basic_string@_WU?$char_traits@_W@std@@V?$allocator@_W@2@@std@@U?$cons@V?$basic_string@_WU?$char_traits@_W@std@@V?$allocator@_W@2@@std@@Unull_type@tuples@boost@@@tuples@boost@@@tuples@boost@@QAEAAV?$basic_string@_WU?$char_traits@_W@std@@V?$allocator@_W@2@@std@@XZ 0042fca0 f i SuperTree.obj
 0001:0002eca0       ??$get@$00@?$cons@V?$basic_string@_WU?$char_traits@_W@std@@V?$allocator@_W@2@@std@@U?$cons@V?$basic_string@_WU?$char_traits@_W@std@@V?$allocator@_W@2@@std@@U?$cons@_NU?$cons@V?$basic_string@_WU?$char_traits@_W@std@@V?$allocator@_W@2@@std@@U?$cons@V?$shared_ptr@VRefItemV@@@boost@@Unull_type@tuples@2@@tuples@boost@@@tuples@boost@@@tuples@boost@@@tuples@boost@@@tuples@boost@@QAEAAV?$basic_string@_WU?$char_traits@_W@std@@V?$allocator@_W@2@@std@@XZ 0042fca0 f i DlgSelectGood.obj
 0001:0002eca0       ??$get@$00@?$cons@V?$basic_string@_WU?$char_traits@_W@std@@V?$allocator@_W@2@@std@@U?$cons@V?$basic_string@_WU?$char_traits@_W@std@@V?$allocator@_W@2@@std@@U?$cons@V?$basic_string@_WU?$char_traits@_W@std@@V?$allocator@_W@2@@std@@Unull_type@tuples@boost@@@tuples@boost@@@tuples@boost@@@tuples@boost@@QAEAAV?$basic_string@_WU?$char_traits@_W@std@@V?$allocator@_W@2@@std@@XZ 0042fca0 f i DlgFindAll.obj
 0001:0002ecc0       ??$?8VRefItemV@@@boost@@YA_NABV?$shared_ptr@VRefItemV@@@0@$$T@Z 0042fcc0 f i DlgFindAll.obj
 0001:0002ece0       ??$remove_if@V?$_Vector_iterator@V?$_Vector_val@V?$tuple@V?$basic_string@_WU?$char_traits@_W@std@@V?$allocator@_W@2@@std@@V12@_NV12@V?$shared_ptr@VRefItemV@@@boost@@Unull_type@tuples@4@U564@U564@U564@U564@@tuples@boost@@V?$allocator@V?$tuple@V?$basic_string@_WU?$char_traits@_W@std@@V?$allocator@_W@2@@std@@V12@_NV12@V?$shared_ptr@VRefItemV@@@boost@@Unull_type@tuples@4@U564@U564@U564@U564@@tuples@boost@@@std@@@std@@@std@@V<lambda6>@?A0xfa0d1c7f@@@std@@YA?AV?$_Vector_iterator@V?$_Vector_val@V?$tuple@V?$basic_string@_WU?$char_traits@_W@std@@V?$allocator@_W@2@@std@@V12@_NV12@V?$shared_ptr@VRefItemV@@@boost@@Unull_type@tuples@4@U564@U564@U564@U564@@tuples@boost@@V?$allocator@V?$tuple@V?$basic_string@_WU?$char_traits@_W@std@@V?$allocator@_W@2@@std@@V12@_NV12@V?$shared_ptr@VRefItemV@@@boost@@Unull_type@tuples@4@U564@U564@U564@U564@@tuples@boost@@@std@@@std@@@0@V10@0V<lambda6>@?A0xfa0d1c7f@@@Z 0042fce0 f i DlgSelectGood.obj
 0001:0002ece0       ??$remove_if@V?$_Vector_iterator@V?$_Vector_val@V?$tuple@V?$basic_string@_WU?$char_traits@_W@std@@V?$allocator@_W@2@@std@@V12@_NV12@V?$shared_ptr@VRefItemV@@@boost@@Unull_type@tuples@4@U564@U564@U564@U564@@tuples@boost@@V?$allocator@V?$tuple@V?$basic_string@_WU?$char_traits@_W@std@@V?$allocator@_W@2@@std@@V12@_NV12@V?$shared_ptr@VRefItemV@@@boost@@Unull_type@tuples@4@U564@U564@U564@U564@@tuples@boost@@@std@@@std@@@std@@V<lambda2>@?A0xa417b150@@@std@@YA?AV?$_Vector_iterator@V?$_Vector_val@V?$tuple@V?$basic_string@_WU?$char_traits@_W@std@@V?$allocator@_W@2@@std@@V12@_NV12@V?$shared_ptr@VRefItemV@@@boost@@Unull_type@tuples@4@U564@U564@U564@U564@@tuples@boost@@V?$allocator@V?$tuple@V?$basic_string@_WU?$char_traits@_W@std@@V?$allocator@_W@2@@std@@V12@_NV12@V?$shared_ptr@VRefItemV@@@boost@@Unull_type@tuples@4@U564@U564@U564@U564@@tuples@boost@@@std@@@std@@@0@V10@0V<lambda2>@?A0xa417b150@@@Z 0042fce0 f i DlgFindAll.obj
 0001:0002ee10       ??$remove_if@V?$_Vector_iterator@V?$_Vector_val@V?$tuple@V?$basic_string@_WU?$char_traits@_W@std@@V?$allocator@_W@2@@std@@V12@_NV12@V?$shared_ptr@VRefItemV@@@boost@@Unull_type@tuples@4@U564@U564@U564@U564@@tuples@boost@@V?$allocator@V?$tuple@V?$basic_string@_WU?$char_traits@_W@std@@V?$allocator@_W@2@@std@@V12@_NV12@V?$shared_ptr@VRefItemV@@@boost@@Unull_type@tuples@4@U564@U564@U564@U564@@tuples@boost@@@std@@@std@@@std@@V<lambda3>@?A0xa417b150@@@std@@YA?AV?$_Vector_iterator@V?$_Vector_val@V?$tuple@V?$basic_string@_WU?$char_traits@_W@std@@V?$allocator@_W@2@@std@@V12@_NV12@V?$shared_ptr@VRefItemV@@@boost@@Unull_type@tuples@4@U564@U564@U564@U564@@tuples@boost@@V?$allocator@V?$tuple@V?$basic_string@_WU?$char_traits@_W@std@@V?$allocator@_W@2@@std@@V12@_NV12@V?$shared_ptr@VRefItemV@@@boost@@Unull_type@tuples@4@U564@U564@U564@U564@@tuples@boost@@@std@@@std@@@0@V10@0V<lambda3>@?A0xa417b150@@@Z 0042fe10 f i DlgFindAll.obj
 0001:0002ef40       ??$_Cons_val@V?$allocator@V?$tuple@V?$basic_string@_WU?$char_traits@_W@std@@V?$allocator@_W@2@@std@@V12@V12@Unull_type@tuples@boost@@U345@U345@U345@U345@U345@U345@@tuples@boost@@@std@@V?$tuple@V?$basic_string@_WU?$char_traits@_W@std@@V?$allocator@_W@2@@std@@V12@V12@Unull_type@tuples@boost@@U345@U345@U345@U345@U345@U345@@tuples@boost@@ABV345@@std@@YAXAAV?$allocator@V?$tuple@V?$basic_string@_WU?$char_traits@_W@std@@V?$allocator@_W@2@@std@@V12@V12@Unull_type@tuples@boost@@U345@U345@U345@U345@U345@U345@@tuples@boost@@@0@PAV?$tuple@V?$basic_string@_WU?$char_traits@_W@std@@V?$allocator@_W@2@@std@@V12@V12@Unull_type@tuples@boost@@U345@U345@U345@U345@U345@U345@@tuples@boost@@ABV234@@Z 0042ff40 f i DlgFindAll.obj
 0001:0002ef60       ??$_Ucopy@V?$_Vector_const_iterator@V?$_Vector_val@V?$tuple@V?$basic_string@_WU?$char_traits@_W@std@@V?$allocator@_W@2@@std@@V12@_NV12@V?$shared_ptr@VRefItemV@@@boost@@Unull_type@tuples@4@U564@U564@U564@U564@@tuples@boost@@V?$allocator@V?$tuple@V?$basic_string@_WU?$char_traits@_W@std@@V?$allocator@_W@2@@std@@V12@_NV12@V?$shared_ptr@VRefItemV@@@boost@@Unull_type@tuples@4@U564@U564@U564@U564@@tuples@boost@@@std@@@std@@@std@@@?$vector@V?$tuple@V?$basic_string@_WU?$char_traits@_W@std@@V?$allocator@_W@2@@std@@V12@_NV12@V?$shared_ptr@VRefItemV@@@boost@@Unull_type@tuples@4@U564@U564@U564@U564@@tuples@boost@@V?$allocator@V?$tuple@V?$basic_string@_WU?$char_traits@_W@std@@V?$allocator@_W@2@@std@@V12@_NV12@V?$shared_ptr@VRefItemV@@@boost@@Unull_type@tuples@4@U564@U564@U564@U564@@tuples@boost@@@std@@@std@@IAEPAV?$tuple@V?$basic_string@_WU?$char_traits@_W@std@@V?$allocator@_W@2@@std@@V12@_NV12@V?$shared_ptr@VRefItemV@@@boost@@Unull_type@tuples@4@U564@U564@U564@U564@@tuples@boost@@V?$_Vector_const_iterator@V?$_Vector_val@V?$tuple@V?$basic_string@_WU?$char_traits@_W@std@@V?$allocator@_W@2@@std@@V12@_NV12@V?$shared_ptr@VRefItemV@@@boost@@Unull_type@tuples@4@U564@U564@U564@U564@@tuples@boost@@V?$allocator@V?$tuple@V?$basic_string@_WU?$char_traits@_W@std@@V?$allocator@_W@2@@std@@V12@_NV12@V?$shared_ptr@VRefItemV@@@boost@@Unull_type@tuples@4@U564@U564@U564@U564@@tuples@boost@@@std@@@std@@@1@0PAV234@@Z 0042ff60 f i DlgFindAll.obj
 0001:0002ef90       ??$_Move@PAV?$tuple@V?$basic_string@_WU?$char_traits@_W@std@@V?$allocator@_W@2@@std@@V12@V12@Unull_type@tuples@boost@@U345@U345@U345@U345@U345@U345@@tuples@boost@@PAV123@@std@@YAPAV?$tuple@V?$basic_string@_WU?$char_traits@_W@std@@V?$allocator@_W@2@@std@@V12@V12@Unull_type@tuples@boost@@U345@U345@U345@U345@U345@U345@@tuples@boost@@PAV123@00@Z 0042ff90 f i DlgFindAll.obj
 0001:0002efd0       ??$_Umove@PAV?$tuple@V?$basic_string@_WU?$char_traits@_W@std@@V?$allocator@_W@2@@std@@V12@V12@Unull_type@tuples@boost@@U345@U345@U345@U345@U345@U345@@tuples@boost@@@?$vector@V?$tuple@V?$basic_string@_WU?$char_traits@_W@std@@V?$allocator@_W@2@@std@@V12@V12@Unull_type@tuples@boost@@U345@U345@U345@U345@U345@U345@@tuples@boost@@V?$allocator@V?$tuple@V?$basic_string@_WU?$char_traits@_W@std@@V?$allocator@_W@2@@std@@V12@V12@Unull_type@tuples@boost@@U345@U345@U345@U345@U345@U345@@tuples@boost@@@std@@@std@@IAEPAV?$tuple@V?$basic_string@_WU?$char_traits@_W@std@@V?$allocator@_W@2@@std@@V12@V12@Unull_type@tuples@boost@@U345@U345@U345@U345@U345@U345@@tuples@boost@@PAV234@00@Z 0042ffd0 f i DlgFindAll.obj
 0001:0002f000       ??$_Destroy_range@V?$allocator@V?$tuple@V?$basic_string@_WU?$char_traits@_W@std@@V?$allocator@_W@2@@std@@V12@V12@Unull_type@tuples@boost@@U345@U345@U345@U345@U345@U345@@tuples@boost@@@std@@@std@@YAXPAV?$tuple@V?$basic_string@_WU?$char_traits@_W@std@@V?$allocator@_W@2@@std@@V12@V12@Unull_type@tuples@boost@@U345@U345@U345@U345@U345@U345@@tuples@boost@@0AAV?$allocator@V?$tuple@V?$basic_string@_WU?$char_traits@_W@std@@V?$allocator@_W@2@@std@@V12@V12@Unull_type@tuples@boost@@U345@U345@U345@U345@U345@U345@@tuples@boost@@@0@@Z 00430000 f i DlgFindAll.obj
 0001:0002f040       ??$_Allocate@V?$tuple@V?$basic_string@_WU?$char_traits@_W@std@@V?$allocator@_W@2@@std@@V12@V12@Unull_type@tuples@boost@@U345@U345@U345@U345@U345@U345@@tuples@boost@@@std@@YAPAV?$tuple@V?$basic_string@_WU?$char_traits@_W@std@@V?$allocator@_W@2@@std@@V12@V12@Unull_type@tuples@boost@@U345@U345@U345@U345@U345@U345@@tuples@boost@@IPAV123@@Z 00430040 f i DlgFindAll.obj
 0001:0002f0a0       ??0<lambda3>@?A0xa417b150@@QAE@ABV01@@Z 004300a0 f i DlgFindAll.obj
 0001:0002f0a0       ??0<lambda3>@?A0xede8a68f@@QAE@ABV01@@Z 004300a0 f i DlgInsert.obj
 0001:0002f110       ?construct@?$allocator@V?$tuple@V?$basic_string@_WU?$char_traits@_W@std@@V?$allocator@_W@2@@std@@V12@V12@Unull_type@tuples@boost@@U345@U345@U345@U345@U345@U345@@tuples@boost@@@std@@QAEXPAV?$tuple@V?$basic_string@_WU?$char_traits@_W@std@@V?$allocator@_W@2@@std@@V12@V12@Unull_type@tuples@boost@@U345@U345@U345@U345@U345@U345@@tuples@boost@@ABV345@@Z 00430110 f i DlgFindAll.obj
 0001:0002f130       ??0?$tuple@V?$basic_string@_WU?$char_traits@_W@std@@V?$allocator@_W@2@@std@@V12@V12@Unull_type@tuples@boost@@U345@U345@U345@U345@U345@U345@@tuples@boost@@QAE@ABV?$basic_string@_WU?$char_traits@_W@std@@V?$allocator@_W@2@@std@@00@Z 00430130 f i DlgFindAll.obj
 0001:0002f1b0       ?cnull@detail@tuples@boost@@YA?BUnull_type@23@XZ 004301b0 f i DlgFindAll.obj
 0001:0002f1c0       ??G?$_Vector_iterator@V?$_Vector_val@V?$tuple@V?$basic_string@_WU?$char_traits@_W@std@@V?$allocator@_W@2@@std@@V12@V12@Unull_type@tuples@boost@@U345@U345@U345@U345@U345@U345@@tuples@boost@@V?$allocator@V?$tuple@V?$basic_string@_WU?$char_traits@_W@std@@V?$allocator@_W@2@@std@@V12@V12@Unull_type@tuples@boost@@U345@U345@U345@U345@U345@U345@@tuples@boost@@@std@@@std@@@std@@QBEHABV?$_Vector_const_iterator@V?$_Vector_val@V?$tuple@V?$basic_string@_WU?$char_traits@_W@std@@V?$allocator@_W@2@@std@@V12@V12@Unull_type@tuples@boost@@U345@U345@U345@U345@U345@U345@@tuples@boost@@V?$allocator@V?$tuple@V?$basic_string@_WU?$char_traits@_W@std@@V?$allocator@_W@2@@std@@V12@V12@Unull_type@tuples@boost@@U345@U345@U345@U345@U345@U345@@tuples@boost@@@std@@@std@@@1@@Z 004301c0 f i DlgFindAll.obj
 0001:0002f1e0       ??G?$_Vector_const_iterator@V?$_Vector_val@V?$tuple@V?$basic_string@_WU?$char_traits@_W@std@@V?$allocator@_W@2@@std@@V12@V12@Unull_type@tuples@boost@@U345@U345@U345@U345@U345@U345@@tuples@boost@@V?$allocator@V?$tuple@V?$basic_string@_WU?$char_traits@_W@std@@V?$allocator@_W@2@@std@@V12@V12@Unull_type@tuples@boost@@U345@U345@U345@U345@U345@U345@@tuples@boost@@@std@@@std@@@std@@QBEHABV01@@Z 004301e0 f i DlgFindAll.obj
 0001:0002f210       ??$_Sort@PAV?$tuple@V?$basic_string@_WU?$char_traits@_W@std@@V?$allocator@_W@2@@std@@V12@V12@Unull_type@tuples@boost@@U345@U345@U345@U345@U345@U345@@tuples@boost@@HV<lambda0>@?A0xa417b150@@@std@@YAXPAV?$tuple@V?$basic_string@_WU?$char_traits@_W@std@@V?$allocator@_W@2@@std@@V12@V12@Unull_type@tuples@boost@@U345@U345@U345@U345@U345@U345@@tuples@boost@@0HV<lambda0>@?A0xa417b150@@@Z 00430210 f i DlgFindAll.obj
 0001:0002f330       ??$get@$01@?$cons@V?$basic_string@_WU?$char_traits@_W@std@@V?$allocator@_W@2@@std@@U?$cons@V?$basic_string@_WU?$char_traits@_W@std@@V?$allocator@_W@2@@std@@U?$cons@_NU?$cons@V?$basic_string@_WU?$char_traits@_W@std@@V?$allocator@_W@2@@std@@U?$cons@V?$shared_ptr@VRefItemV@@@boost@@Unull_type@tuples@2@@tuples@boost@@@tuples@boost@@@tuples@boost@@@tuples@boost@@@tuples@boost@@QAEAA_NXZ 00430330 f i DlgFindAll.obj
 0001:0002f330       ??$get@$01@?$cons@V?$basic_string@_WU?$char_traits@_W@std@@V?$allocator@_W@2@@std@@U?$cons@V?$basic_string@_WU?$char_traits@_W@std@@V?$allocator@_W@2@@std@@U?$cons@V?$basic_string@_WU?$char_traits@_W@std@@V?$allocator@_W@2@@std@@U?$cons@V?$shared_ptr@VRefItemV@@@boost@@Unull_type@tuples@2@@tuples@boost@@@tuples@boost@@@tuples@boost@@@tuples@boost@@QAEAAV?$basic_string@_WU?$char_traits@_W@std@@V?$allocator@_W@2@@std@@XZ 00430330 f i DlgInsert.obj
 0001:0002f330       ??$get@$01@?$cons@V?$basic_string@_WU?$char_traits@_W@std@@V?$allocator@_W@2@@std@@U?$cons@V?$basic_string@_WU?$char_traits@_W@std@@V?$allocator@_W@2@@std@@U?$cons@V?$basic_string@_WU?$char_traits@_W@std@@V?$allocator@_W@2@@std@@Unull_type@tuples@boost@@@tuples@boost@@@tuples@boost@@@tuples@boost@@QAEAAV?$basic_string@_WU?$char_traits@_W@std@@V?$allocator@_W@2@@std@@XZ 00430330 f i DlgFindAll.obj
 0001:0002f330       ??$get@$01@?$cons@V?$basic_string@_WU?$char_traits@_W@std@@V?$allocator@_W@2@@std@@U?$cons@V?$basic_string@_WU?$char_traits@_W@std@@V?$allocator@_W@2@@std@@U?$cons@V?$basic_string@_WU?$char_traits@_W@std@@V?$allocator@_W@2@@std@@U?$cons@V?$basic_string@_WU?$char_traits@_W@std@@V?$allocator@_W@2@@std@@Unull_type@tuples@boost@@@tuples@boost@@@tuples@boost@@@tuples@boost@@@tuples@boost@@QAEAAV?$basic_string@_WU?$char_traits@_W@std@@V?$allocator@_W@2@@std@@XZ 00430330 f i DlgInsert.obj
 0001:0002f350       ??R<lambda6>@?A0xfa0d1c7f@@QBE_NV?$tuple@V?$basic_string@_WU?$char_traits@_W@std@@V?$allocator@_W@2@@std@@V12@_NV12@V?$shared_ptr@VRefItemV@@@boost@@Unull_type@tuples@4@U564@U564@U564@U564@@tuples@boost@@@Z 00430350 f i DlgSelectGood.obj
 0001:0002f350       ??R<lambda2>@?A0xa417b150@@QBE_NV?$tuple@V?$basic_string@_WU?$char_traits@_W@std@@V?$allocator@_W@2@@std@@V12@_NV12@V?$shared_ptr@VRefItemV@@@boost@@Unull_type@tuples@4@U564@U564@U564@U564@@tuples@boost@@@Z 00430350 f i DlgFindAll.obj
 0001:0002f3c0       ??$get@$02@?$cons@V?$basic_string@_WU?$char_traits@_W@std@@V?$allocator@_W@2@@std@@U?$cons@V?$basic_string@_WU?$char_traits@_W@std@@V?$allocator@_W@2@@std@@U?$cons@_NU?$cons@V?$basic_string@_WU?$char_traits@_W@std@@V?$allocator@_W@2@@std@@U?$cons@V?$shared_ptr@VRefItemV@@@boost@@Unull_type@tuples@2@@tuples@boost@@@tuples@boost@@@tuples@boost@@@tuples@boost@@@tuples@boost@@QAEAAV?$basic_string@_WU?$char_traits@_W@std@@V?$allocator@_W@2@@std@@XZ 004303c0 f i DlgFindAll.obj
 0001:0002f3e0       ??$?9_WU?$char_traits@_W@std@@V?$allocator@_W@1@@std@@YA_NABV?$basic_string@_WU?$char_traits@_W@std@@V?$allocator@_W@2@@0@0@Z 004303e0 f i DlgFindAll.obj
 0001:0002f400       ??$get@$02V?$basic_string@_WU?$char_traits@_W@std@@V?$allocator@_W@2@@std@@U?$cons@V?$basic_string@_WU?$char_traits@_W@std@@V?$allocator@_W@2@@std@@U?$cons@_NU?$cons@V?$basic_string@_WU?$char_traits@_W@std@@V?$allocator@_W@2@@std@@U?$cons@V?$shared_ptr@VRefItemV@@@boost@@Unull_type@tuples@2@@tuples@boost@@@tuples@boost@@@tuples@boost@@@tuples@boost@@@tuples@boost@@YAAAV?$basic_string@_WU?$char_traits@_W@std@@V?$allocator@_W@2@@std@@AAU?$cons@V?$basic_string@_WU?$char_traits@_W@std@@V?$allocator@_W@2@@std@@U?$cons@V?$basic_string@_WU?$char_traits@_W@std@@V?$allocator@_W@2@@std@@U?$cons@_NU?$cons@V?$basic_string@_WU?$char_traits@_W@std@@V?$allocator@_W@2@@std@@U?$cons@V?$shared_ptr@VRefItemV@@@boost@@Unull_type@tuples@2@@tuples@boost@@@tuples@boost@@@tuples@boost@@@tuples@boost@@@01@@Z 00430400 f i DlgFindAll.obj
 0001:0002f420       ??$find_if@V?$_Vector_iterator@V?$_Vector_val@V?$tuple@V?$basic_string@_WU?$char_traits@_W@std@@V?$allocator@_W@2@@std@@V12@_NV12@V?$shared_ptr@VRefItemV@@@boost@@Unull_type@tuples@4@U564@U564@U564@U564@@tuples@boost@@V?$allocator@V?$tuple@V?$basic_string@_WU?$char_traits@_W@std@@V?$allocator@_W@2@@std@@V12@_NV12@V?$shared_ptr@VRefItemV@@@boost@@Unull_type@tuples@4@U564@U564@U564@U564@@tuples@boost@@@std@@@std@@@std@@V<lambda3>@?A0xa417b150@@@std@@YA?AV?$_Vector_iterator@V?$_Vector_val@V?$tuple@V?$basic_string@_WU?$char_traits@_W@std@@V?$allocator@_W@2@@std@@V12@_NV12@V?$shared_ptr@VRefItemV@@@boost@@Unull_type@tuples@4@U564@U564@U564@U564@@tuples@boost@@V?$allocator@V?$tuple@V?$basic_string@_WU?$char_traits@_W@std@@V?$allocator@_W@2@@std@@V12@_NV12@V?$shared_ptr@VRefItemV@@@boost@@Unull_type@tuples@4@U564@U564@U564@U564@@tuples@boost@@@std@@@std@@@0@V10@0V<lambda3>@?A0xa417b150@@@Z 00430420 f i DlgFindAll.obj
 0001:0002f4d0       ??$_Remove_if@PAV?$tuple@V?$basic_string@_WU?$char_traits@_W@std@@V?$allocator@_W@2@@std@@V12@_NV12@V?$shared_ptr@VRefItemV@@@boost@@Unull_type@tuples@4@U564@U564@U564@U564@@tuples@boost@@V<lambda3>@?A0xa417b150@@@std@@YAPAV?$tuple@V?$basic_string@_WU?$char_traits@_W@std@@V?$allocator@_W@2@@std@@V12@_NV12@V?$shared_ptr@VRefItemV@@@boost@@Unull_type@tuples@4@U564@U564@U564@U564@@tuples@boost@@PAV123@0V<lambda3>@?A0xa417b150@@@Z 004304d0 f i DlgFindAll.obj
 0001:0002f5a0       ??R<lambda3>@?A0xa417b150@@QBE_NV?$tuple@V?$basic_string@_WU?$char_traits@_W@std@@V?$allocator@_W@2@@std@@V12@_NV12@V?$shared_ptr@VRefItemV@@@boost@@Unull_type@tuples@4@U564@U564@U564@U564@@tuples@boost@@@Z 004305a0 f i DlgFindAll.obj
 0001:0002f710       ??$search@V?$_String_iterator@_WU?$char_traits@_W@std@@V?$allocator@_W@2@@std@@V?$_String_const_iterator@_WU?$char_traits@_W@std@@V?$allocator@_W@2@@2@V<lambda4>@?A0xfa0d1c7f@@@std@@YA?AV?$_String_iterator@_WU?$char_traits@_W@std@@V?$allocator@_W@2@@0@V10@0V?$_String_const_iterator@_WU?$char_traits@_W@std@@V?$allocator@_W@2@@0@1V<lambda4>@?A0xfa0d1c7f@@@Z 00430710 f i DlgSelectGood.obj
 0001:0002f710       ??$search@V?$_String_iterator@_WU?$char_traits@_W@std@@V?$allocator@_W@2@@std@@V?$_String_const_iterator@_WU?$char_traits@_W@std@@V?$allocator@_W@2@@2@V<lambda4>@?A0xede8a68f@@@std@@YA?AV?$_String_iterator@_WU?$char_traits@_W@std@@V?$allocator@_W@2@@0@V10@0V?$_String_const_iterator@_WU?$char_traits@_W@std@@V?$allocator@_W@2@@0@1V<lambda4>@?A0xede8a68f@@@Z 00430710 f i DlgInsert.obj
 0001:0002f710       ??$search@V?$_String_iterator@_WU?$char_traits@_W@std@@V?$allocator@_W@2@@std@@V?$_String_const_iterator@_WU?$char_traits@_W@std@@V?$allocator@_W@2@@2@V<lambda4>@?A0xa417b150@@@std@@YA?AV?$_String_iterator@_WU?$char_traits@_W@std@@V?$allocator@_W@2@@0@V10@0V?$_String_const_iterator@_WU?$char_traits@_W@std@@V?$allocator@_W@2@@0@1V<lambda4>@?A0xa417b150@@@Z 00430710 f i DlgFindAll.obj
 0001:0002f790       ??$toupper@_W@std@@YA_W_WABVlocale@0@@Z 00430790 f i DlgFindAll.obj
 0001:0002f7b0       ??$_Rechecked@_WU?$char_traits@_W@std@@V?$allocator@_W@2@@std@@YA?AV?$_String_iterator@_WU?$char_traits@_W@std@@V?$allocator@_W@2@@0@AAV10@PA_W@Z 004307b0 f i DlgFindAll.obj
 0001:0002f7d0       ??$_Uninitialized_copy@V?$_Vector_const_iterator@V?$_Vector_val@V?$tuple@V?$basic_string@_WU?$char_traits@_W@std@@V?$allocator@_W@2@@std@@V12@_NV12@V?$shared_ptr@VRefItemV@@@boost@@Unull_type@tuples@4@U564@U564@U564@U564@@tuples@boost@@V?$allocator@V?$tuple@V?$basic_string@_WU?$char_traits@_W@std@@V?$allocator@_W@2@@std@@V12@_NV12@V?$shared_ptr@VRefItemV@@@boost@@Unull_type@tuples@4@U564@U564@U564@U564@@tuples@boost@@@std@@@std@@@std@@PAV?$tuple@V?$basic_string@_WU?$char_traits@_W@std@@V?$allocator@_W@2@@std@@V12@_NV12@V?$shared_ptr@VRefItemV@@@boost@@Unull_type@tuples@4@U564@U564@U564@U564@@tuples@boost@@V?$allocator@V?$tuple@V?$basic_string@_WU?$char_traits@_W@std@@V?$allocator@_W@2@@std@@V12@_NV12@V?$shared_ptr@VRefItemV@@@boost@@Unull_type@tuples@4@U564@U564@U564@U564@@tuples@boost@@@2@@std@@YAPAV?$tuple@V?$basic_string@_WU?$char_traits@_W@std@@V?$allocator@_W@2@@std@@V12@_NV12@V?$shared_ptr@VRefItemV@@@boost@@Unull_type@tuples@4@U564@U564@U564@U564@@tuples@boost@@V?$_Vector_const_iterator@V?$_Vector_val@V?$tuple@V?$basic_string@_WU?$char_traits@_W@std@@V?$allocator@_W@2@@std@@V12@_NV12@V?$shared_ptr@VRefItemV@@@boost@@Unull_type@tuples@4@U564@U564@U564@U564@@tuples@boost@@V?$allocator@V?$tuple@V?$basic_string@_WU?$char_traits@_W@std@@V?$allocator@_W@2@@std@@V12@_NV12@V?$shared_ptr@VRefItemV@@@boost@@Unull_type@tuples@4@U564@U564@U564@U564@@tuples@boost@@@std@@@std@@@0@0PAV123@AAV?$allocator@V?$tuple@V?$basic_string@_WU?$char_traits@_W@std@@V?$allocator@_W@2@@std@@V12@_NV12@V?$shared_ptr@VRefItemV@@@boost@@Unull_type@tuples@4@U564@U564@U564@U564@@tuples@boost@@@0@@Z 004307d0 f i DlgFindAll.obj
 0001:0002f810       ??$_Move@PAV?$tuple@V?$basic_string@_WU?$char_traits@_W@std@@V?$allocator@_W@2@@std@@V12@V12@Unull_type@tuples@boost@@U345@U345@U345@U345@U345@U345@@tuples@boost@@PAV123@@std@@YAPAV?$tuple@V?$basic_string@_WU?$char_traits@_W@std@@V?$allocator@_W@2@@std@@V12@V12@Unull_type@tuples@boost@@U345@U345@U345@U345@U345@U345@@tuples@boost@@PAV123@00U_Nonscalar_ptr_iterator_tag@0@@Z 00430810 f i DlgFindAll.obj
 0001:0002f850       ??$_Uninitialized_move@PAV?$tuple@V?$basic_string@_WU?$char_traits@_W@std@@V?$allocator@_W@2@@std@@V12@V12@Unull_type@tuples@boost@@U345@U345@U345@U345@U345@U345@@tuples@boost@@PAV123@V?$allocator@V?$tuple@V?$basic_string@_WU?$char_traits@_W@std@@V?$allocator@_W@2@@std@@V12@V12@Unull_type@tuples@boost@@U345@U345@U345@U345@U345@U345@@tuples@boost@@@std@@@std@@YAPAV?$tuple@V?$basic_string@_WU?$char_traits@_W@std@@V?$allocator@_W@2@@std@@V12@V12@Unull_type@tuples@boost@@U345@U345@U345@U345@U345@U345@@tuples@boost@@PAV123@00AAV?$allocator@V?$tuple@V?$basic_string@_WU?$char_traits@_W@std@@V?$allocator@_W@2@@std@@V12@V12@Unull_type@tuples@boost@@U345@U345@U345@U345@U345@U345@@tuples@boost@@@0@@Z 00430850 f i DlgFindAll.obj
 0001:0002f8a0       ??$_Destroy_range@V?$allocator@V?$tuple@V?$basic_string@_WU?$char_traits@_W@std@@V?$allocator@_W@2@@std@@V12@V12@Unull_type@tuples@boost@@U345@U345@U345@U345@U345@U345@@tuples@boost@@@std@@@std@@YAXPAV?$tuple@V?$basic_string@_WU?$char_traits@_W@std@@V?$allocator@_W@2@@std@@V12@V12@Unull_type@tuples@boost@@U345@U345@U345@U345@U345@U345@@tuples@boost@@0AAV?$allocator@V?$tuple@V?$basic_string@_WU?$char_traits@_W@std@@V?$allocator@_W@2@@std@@V12@V12@Unull_type@tuples@boost@@U345@U345@U345@U345@U345@U345@@tuples@boost@@@0@U_Nonscalar_ptr_iterator_tag@0@@Z 004308a0 f i DlgFindAll.obj
 0001:0002f8d0       ??$_Construct@V?$tuple@V?$basic_string@_WU?$char_traits@_W@std@@V?$allocator@_W@2@@std@@V12@V12@Unull_type@tuples@boost@@U345@U345@U345@U345@U345@U345@@tuples@boost@@ABV123@@std@@YAXPAV?$tuple@V?$basic_string@_WU?$char_traits@_W@std@@V?$allocator@_W@2@@std@@V12@V12@Unull_type@tuples@boost@@U345@U345@U345@U345@U345@U345@@tuples@boost@@ABV123@@Z 004308d0 f i DlgFindAll.obj
 0001:0002f960       ??$?0$$CBV?$basic_string@_WU?$char_traits@_W@std@@V?$allocator@_W@2@@std@@$$CBV01@$$CBV01@$$CBUnull_type@tuples@boost@@$$CBU234@$$CBU234@$$CBU234@$$CBU234@$$CBU234@$$CBU234@@?$cons@V?$basic_string@_WU?$char_traits@_W@std@@V?$allocator@_W@2@@std@@U?$cons@V?$basic_string@_WU?$char_traits@_W@std@@V?$allocator@_W@2@@std@@U?$cons@V?$basic_string@_WU?$char_traits@_W@std@@V?$allocator@_W@2@@std@@Unull_type@tuples@boost@@@tuples@boost@@@tuples@boost@@@tuples@boost@@QAE@ABV?$basic_string@_WU?$char_traits@_W@std@@V?$allocator@_W@2@@std@@00ABUnull_type@12@111111@Z 00430960 f i DlgFindAll.obj
 0001:0002fa00       ??4?$tuple@V?$basic_string@_WU?$char_traits@_W@std@@V?$allocator@_W@2@@std@@V12@V12@Unull_type@tuples@boost@@U345@U345@U345@U345@U345@U345@@tuples@boost@@QAEAAV012@ABV012@@Z 00430a00 f i DlgFindAll.obj
 0001:0002fa20       ??4?$cons@V?$basic_string@_WU?$char_traits@_W@std@@V?$allocator@_W@2@@std@@U?$cons@V?$basic_string@_WU?$char_traits@_W@std@@V?$allocator@_W@2@@std@@U?$cons@V?$basic_string@_WU?$char_traits@_W@std@@V?$allocator@_W@2@@std@@Unull_type@tuples@boost@@@tuples@boost@@@tuples@boost@@@tuples@boost@@QAEAAU012@ABU012@@Z 00430a20 f i DlgFindAll.obj
 0001:0002fa50       ??4?$cons@V?$basic_string@_WU?$char_traits@_W@std@@V?$allocator@_W@2@@std@@U?$cons@V?$basic_string@_WU?$char_traits@_W@std@@V?$allocator@_W@2@@std@@Unull_type@tuples@boost@@@tuples@boost@@@tuples@boost@@QAEAAU012@ABU012@@Z 00430a50 f i DlgFindAll.obj
 0001:0002fa80       ??4?$cons@V?$basic_string@_WU?$char_traits@_W@std@@V?$allocator@_W@2@@std@@Unull_type@tuples@boost@@@tuples@boost@@QAEAAU012@ABU012@@Z 00430a80 f i DlgFindAll.obj
 0001:0002faa0       ??$_Unguarded_partition@PAV?$tuple@V?$basic_string@_WU?$char_traits@_W@std@@V?$allocator@_W@2@@std@@V12@V12@Unull_type@tuples@boost@@U345@U345@U345@U345@U345@U345@@tuples@boost@@V<lambda0>@?A0xa417b150@@@std@@YA?AU?$pair@PAV?$tuple@V?$basic_string@_WU?$char_traits@_W@std@@V?$allocator@_W@2@@std@@V12@V12@Unull_type@tuples@boost@@U345@U345@U345@U345@U345@U345@@tuples@boost@@PAV123@@0@PAV?$tuple@V?$basic_string@_WU?$char_traits@_W@std@@V?$allocator@_W@2@@std@@V12@V12@Unull_type@tuples@boost@@U345@U345@U345@U345@U345@U345@@tuples@boost@@0V<lambda0>@?A0xa417b150@@@Z 00430aa0 f i DlgFindAll.obj
 0001:0002fff0       ??R<lambda0>@?A0xa417b150@@QBE_NV?$tuple@V?$basic_string@_WU?$char_traits@_W@std@@V?$allocator@_W@2@@std@@V12@V12@Unull_type@tuples@boost@@U345@U345@U345@U345@U345@U345@@tuples@boost@@0@Z 00430ff0 f i DlgFindAll.obj
 0001:00030070       ??$make_heap@PAV?$tuple@V?$basic_string@_WU?$char_traits@_W@std@@V?$allocator@_W@2@@std@@V12@V12@Unull_type@tuples@boost@@U345@U345@U345@U345@U345@U345@@tuples@boost@@V<lambda0>@?A0xa417b150@@@std@@YAXPAV?$tuple@V?$basic_string@_WU?$char_traits@_W@std@@V?$allocator@_W@2@@std@@V12@V12@Unull_type@tuples@boost@@U345@U345@U345@U345@U345@U345@@tuples@boost@@0V<lambda0>@?A0xa417b150@@@Z 00431070 f i DlgFindAll.obj
 0001:000300d0       ??$sort_heap@PAV?$tuple@V?$basic_string@_WU?$char_traits@_W@std@@V?$allocator@_W@2@@std@@V12@V12@Unull_type@tuples@boost@@U345@U345@U345@U345@U345@U345@@tuples@boost@@V<lambda0>@?A0xa417b150@@@std@@YAXPAV?$tuple@V?$basic_string@_WU?$char_traits@_W@std@@V?$allocator@_W@2@@std@@V12@V12@Unull_type@tuples@boost@@U345@U345@U345@U345@U345@U345@@tuples@boost@@0V<lambda0>@?A0xa417b150@@@Z 004310d0 f i DlgFindAll.obj
 0001:00030100       ??$_Insertion_sort@PAV?$tuple@V?$basic_string@_WU?$char_traits@_W@std@@V?$allocator@_W@2@@std@@V12@V12@Unull_type@tuples@boost@@U345@U345@U345@U345@U345@U345@@tuples@boost@@V<lambda0>@?A0xa417b150@@@std@@YAXPAV?$tuple@V?$basic_string@_WU?$char_traits@_W@std@@V?$allocator@_W@2@@std@@V12@V12@Unull_type@tuples@boost@@U345@U345@U345@U345@U345@U345@@tuples@boost@@0V<lambda0>@?A0xa417b150@@@Z 00431100 f i DlgFindAll.obj
 0001:00030130       ??$_Find_if@PAV?$tuple@V?$basic_string@_WU?$char_traits@_W@std@@V?$allocator@_W@2@@std@@V12@_NV12@V?$shared_ptr@VRefItemV@@@boost@@Unull_type@tuples@4@U564@U564@U564@U564@@tuples@boost@@V<lambda6>@?A0xfa0d1c7f@@@std@@YAPAV?$tuple@V?$basic_string@_WU?$char_traits@_W@std@@V?$allocator@_W@2@@std@@V12@_NV12@V?$shared_ptr@VRefItemV@@@boost@@Unull_type@tuples@4@U564@U564@U564@U564@@tuples@boost@@PAV123@0V<lambda6>@?A0xfa0d1c7f@@@Z 00431130 f i DlgSelectGood.obj
 0001:00030130       ??$_Find_if@PAV?$tuple@V?$basic_string@_WU?$char_traits@_W@std@@V?$allocator@_W@2@@std@@V12@_NV12@V?$shared_ptr@VRefItemV@@@boost@@Unull_type@tuples@4@U564@U564@U564@U564@@tuples@boost@@V<lambda2>@?A0xa417b150@@@std@@YAPAV?$tuple@V?$basic_string@_WU?$char_traits@_W@std@@V?$allocator@_W@2@@std@@V12@_NV12@V?$shared_ptr@VRefItemV@@@boost@@Unull_type@tuples@4@U564@U564@U564@U564@@tuples@boost@@PAV123@0V<lambda2>@?A0xa417b150@@@Z 00431130 f i DlgFindAll.obj
 0001:000301d0       ??$_Find_if@PAV?$tuple@V?$basic_string@_WU?$char_traits@_W@std@@V?$allocator@_W@2@@std@@V12@_NV12@V?$shared_ptr@VRefItemV@@@boost@@Unull_type@tuples@4@U564@U564@U564@U564@@tuples@boost@@V<lambda3>@?A0xa417b150@@@std@@YAPAV?$tuple@V?$basic_string@_WU?$char_traits@_W@std@@V?$allocator@_W@2@@std@@V12@_NV12@V?$shared_ptr@VRefItemV@@@boost@@Unull_type@tuples@4@U564@U564@U564@U564@@tuples@boost@@PAV123@0V<lambda3>@?A0xa417b150@@@Z 004311d0 f i DlgFindAll.obj
 0001:00030270       ??$_Uninit_copy@V?$_Vector_const_iterator@V?$_Vector_val@V?$tuple@V?$basic_string@_WU?$char_traits@_W@std@@V?$allocator@_W@2@@std@@V12@_NV12@V?$shared_ptr@VRefItemV@@@boost@@Unull_type@tuples@4@U564@U564@U564@U564@@tuples@boost@@V?$allocator@V?$tuple@V?$basic_string@_WU?$char_traits@_W@std@@V?$allocator@_W@2@@std@@V12@_NV12@V?$shared_ptr@VRefItemV@@@boost@@Unull_type@tuples@4@U564@U564@U564@U564@@tuples@boost@@@std@@@std@@@std@@PAV?$tuple@V?$basic_string@_WU?$char_traits@_W@std@@V?$allocator@_W@2@@std@@V12@_NV12@V?$shared_ptr@VRefItemV@@@boost@@Unull_type@tuples@4@U564@U564@U564@U564@@tuples@boost@@V?$allocator@V?$tuple@V?$basic_string@_WU?$char_traits@_W@std@@V?$allocator@_W@2@@std@@V12@_NV12@V?$shared_ptr@VRefItemV@@@boost@@Unull_type@tuples@4@U564@U564@U564@U564@@tuples@boost@@@2@@std@@YAPAV?$tuple@V?$basic_string@_WU?$char_traits@_W@std@@V?$allocator@_W@2@@std@@V12@_NV12@V?$shared_ptr@VRefItemV@@@boost@@Unull_type@tuples@4@U564@U564@U564@U564@@tuples@boost@@V?$_Vector_const_iterator@V?$_Vector_val@V?$tuple@V?$basic_string@_WU?$char_traits@_W@std@@V?$allocator@_W@2@@std@@V12@_NV12@V?$shared_ptr@VRefItemV@@@boost@@Unull_type@tuples@4@U564@U564@U564@U564@@tuples@boost@@V?$allocator@V?$tuple@V?$basic_string@_WU?$char_traits@_W@std@@V?$allocator@_W@2@@std@@V12@_NV12@V?$shared_ptr@VRefItemV@@@boost@@Unull_type@tuples@4@U564@U564@U564@U564@@tuples@boost@@@std@@@std@@@0@0PAV123@AAV?$allocator@V?$tuple@V?$basic_string@_WU?$char_traits@_W@std@@V?$allocator@_W@2@@std@@V12@_NV12@V?$shared_ptr@VRefItemV@@@boost@@Unull_type@tuples@4@U564@U564@U564@U564@@tuples@boost@@@0@U_Nonscalar_ptr_iterator_tag@0@@Z 00431270 f i DlgFindAll.obj
 0001:00030350       ??$_Uninit_move@PAV?$tuple@V?$basic_string@_WU?$char_traits@_W@std@@V?$allocator@_W@2@@std@@V12@V12@Unull_type@tuples@boost@@U345@U345@U345@U345@U345@U345@@tuples@boost@@PAV123@V?$allocator@V?$tuple@V?$basic_string@_WU?$char_traits@_W@std@@V?$allocator@_W@2@@std@@V12@V12@Unull_type@tuples@boost@@U345@U345@U345@U345@U345@U345@@tuples@boost@@@std@@V123@@std@@YAPAV?$tuple@V?$basic_string@_WU?$char_traits@_W@std@@V?$allocator@_W@2@@std@@V12@V12@Unull_type@tuples@boost@@U345@U345@U345@U345@U345@U345@@tuples@boost@@PAV123@00AAV?$allocator@V?$tuple@V?$basic_string@_WU?$char_traits@_W@std@@V?$allocator@_W@2@@std@@V12@V12@Unull_type@tuples@boost@@U345@U345@U345@U345@U345@U345@@tuples@boost@@@0@0U_Nonscalar_ptr_iterator_tag@0@@Z 00431350 f i DlgFindAll.obj
 0001:00030420       ??$_Dest_val@V?$allocator@V?$tuple@V?$basic_string@_WU?$char_traits@_W@std@@V?$allocator@_W@2@@std@@V12@V12@Unull_type@tuples@boost@@U345@U345@U345@U345@U345@U345@@tuples@boost@@@std@@V?$tuple@V?$basic_string@_WU?$char_traits@_W@std@@V?$allocator@_W@2@@std@@V12@V12@Unull_type@tuples@boost@@U345@U345@U345@U345@U345@U345@@tuples@boost@@@std@@YAXAAV?$allocator@V?$tuple@V?$basic_string@_WU?$char_traits@_W@std@@V?$allocator@_W@2@@std@@V12@V12@Unull_type@tuples@boost@@U345@U345@U345@U345@U345@U345@@tuples@boost@@@0@PAV?$tuple@V?$basic_string@_WU?$char_traits@_W@std@@V?$allocator@_W@2@@std@@V12@V12@Unull_type@tuples@boost@@U345@U345@U345@U345@U345@U345@@tuples@boost@@@Z 00431420 f i DlgFindAll.obj
 0001:00030440       ??$?0$$CBV?$basic_string@_WU?$char_traits@_W@std@@V?$allocator@_W@2@@std@@$$CBV01@$$CBUnull_type@tuples@boost@@$$CBU234@$$CBU234@$$CBU234@$$CBU234@$$CBU234@$$CBU234@$$CBU234@@?$cons@V?$basic_string@_WU?$char_traits@_W@std@@V?$allocator@_W@2@@std@@U?$cons@V?$basic_string@_WU?$char_traits@_W@std@@V?$allocator@_W@2@@std@@Unull_type@tuples@boost@@@tuples@boost@@@tuples@boost@@QAE@ABV?$basic_string@_WU?$char_traits@_W@std@@V?$allocator@_W@2@@std@@0ABUnull_type@12@1111111@Z 00431440 f i DlgFindAll.obj
 0001:000304e0       ?destroy@?$allocator@V?$tuple@V?$basic_string@_WU?$char_traits@_W@std@@V?$allocator@_W@2@@std@@V12@V12@Unull_type@tuples@boost@@U345@U345@U345@U345@U345@U345@@tuples@boost@@@std@@QAEXPAV?$tuple@V?$basic_string@_WU?$char_traits@_W@std@@V?$allocator@_W@2@@std@@V12@V12@Unull_type@tuples@boost@@U345@U345@U345@U345@U345@U345@@tuples@boost@@@Z 004314e0 f i DlgFindAll.obj
 0001:00030500       ??$_Median@PAV?$tuple@V?$basic_string@_WU?$char_traits@_W@std@@V?$allocator@_W@2@@std@@V12@V12@Unull_type@tuples@boost@@U345@U345@U345@U345@U345@U345@@tuples@boost@@V<lambda0>@?A0xa417b150@@@std@@YAXPAV?$tuple@V?$basic_string@_WU?$char_traits@_W@std@@V?$allocator@_W@2@@std@@V12@V12@Unull_type@tuples@boost@@U345@U345@U345@U345@U345@U345@@tuples@boost@@00V<lambda0>@?A0xa417b150@@@Z 00431500 f i DlgFindAll.obj
